TN:
SF:/usr/share/miniconda/envs/moose/x86_64-conda-linux-gnu/include/c++/9.3.0/ext/new_allocator.h
DA:114,6000270
DA:128,562094
DA:153,0
LF:3
LH:2
end_of_record
SF:/home/runner/work/raccoon/raccoon/moose/framework/contrib/hit/parse.h
LF:0
LH:0
end_of_record
SF:/usr/share/miniconda/envs/moose/x86_64-conda-linux-gnu/include/c++/9.3.0/bits/shared_ptr_base.h
FN:131,_ZNSt16_Sp_counted_baseILN9__gnu_cxx12_Lock_policyE2EE10_M_destroyEv
FNDA:0,_ZNSt16_Sp_counted_baseILN9__gnu_cxx12_Lock_policyE2EE10_M_destroyEv
FN:148,_ZNSt16_Sp_counted_baseILN9__gnu_cxx12_Lock_policyE2EE10_M_releaseEv
FNDA:54595,_ZNSt16_Sp_counted_baseILN9__gnu_cxx12_Lock_policyE2EE10_M_releaseEv
FN:404,_ZNSt15_Sp_counted_ptrIDnLN9__gnu_cxx12_Lock_policyE2EE10_M_disposeEv
FNDA:0,_ZNSt15_Sp_counted_ptrIDnLN9__gnu_cxx12_Lock_policyE2EE10_M_disposeEv
FN:552,_ZNSt23_Sp_counted_ptr_inplaceISt5mutexSaIS0_ELN9__gnu_cxx12_Lock_policyE2EED0Ev
FNDA:0,_ZNSt23_Sp_counted_ptr_inplaceISt5mutexSaIS0_ELN9__gnu_cxx12_Lock_policyE2EED0Ev
FN:552,_ZNSt23_Sp_counted_ptr_inplaceISt5mutexSaIS0_ELN9__gnu_cxx12_Lock_policyE2EED2Ev
FNDA:0,_ZNSt23_Sp_counted_ptr_inplaceISt5mutexSaIS0_ELN9__gnu_cxx12_Lock_policyE2EED2Ev
FN:552,_ZNSt23_Sp_counted_ptr_inplaceINSt13__future_base13_State_baseV2ESaIS1_ELN9__gnu_cxx12_Lock_policyE2EED0Ev
FNDA:0,_ZNSt23_Sp_counted_ptr_inplaceINSt13__future_base13_State_baseV2ESaIS1_ELN9__gnu_cxx12_Lock_policyE2EED0Ev
FN:552,_ZNSt23_Sp_counted_ptr_inplaceINSt13__future_base13_State_baseV2ESaIS1_ELN9__gnu_cxx12_Lock_policyE2EED2Ev
FNDA:0,_ZNSt23_Sp_counted_ptr_inplaceINSt13__future_base13_State_baseV2ESaIS1_ELN9__gnu_cxx12_Lock_policyE2EED2Ev
FN:555,_ZNSt23_Sp_counted_ptr_inplaceISt5mutexSaIS0_ELN9__gnu_cxx12_Lock_policyE2EE10_M_disposeEv
FNDA:0,_ZNSt23_Sp_counted_ptr_inplaceISt5mutexSaIS0_ELN9__gnu_cxx12_Lock_policyE2EE10_M_disposeEv
FN:555,_ZNSt23_Sp_counted_ptr_inplaceINSt13__future_base13_State_baseV2ESaIS1_ELN9__gnu_cxx12_Lock_policyE2EE10_M_disposeEv
FNDA:0,_ZNSt23_Sp_counted_ptr_inplaceINSt13__future_base13_State_baseV2ESaIS1_ELN9__gnu_cxx12_Lock_policyE2EE10_M_disposeEv
FN:562,_ZNSt23_Sp_counted_ptr_inplaceISt5mutexSaIS0_ELN9__gnu_cxx12_Lock_policyE2EE10_M_destroyEv
FNDA:0,_ZNSt23_Sp_counted_ptr_inplaceISt5mutexSaIS0_ELN9__gnu_cxx12_Lock_policyE2EE10_M_destroyEv
FN:562,_ZNSt23_Sp_counted_ptr_inplaceINSt13__future_base13_State_baseV2ESaIS1_ELN9__gnu_cxx12_Lock_policyE2EE10_M_destroyEv
FNDA:0,_ZNSt23_Sp_counted_ptr_inplaceINSt13__future_base13_State_baseV2ESaIS1_ELN9__gnu_cxx12_Lock_policyE2EE10_M_destroyEv
FNF:11
FNH:1
DA:131,0
DA:132,0
DA:148,54595
DA:152,109190
DA:155,2099
DA:167,4198
DA:171,2099
DA:174,54595
DA:404,0
DA:552,0
DA:552,0
DA:552,0
DA:552,0
DA:552,0
DA:555,0
DA:558,0
DA:555,0
DA:558,0
DA:562,0
DA:567,0
DA:562,0
DA:567,0
DA:729,32
DA:730,32
DA:1021,32
LF:25
LH:9
end_of_record
SF:/home/runner/work/raccoon/raccoon/src/main.C
FN:16,main
FNDA:32,main
FNF:1
FNH:1
DA:16,32
DA:19,32
DA:22,32
DA:25,64
DA:28,32
LF:5
LH:5
end_of_record
SF:/usr/share/miniconda/envs/moose/x86_64-conda-linux-gnu/include/c++/9.3.0/bits/stl_map.h
FN:490,_ZNSt3mapINSt7__cxx1112basic_stringIcSt11char_traitsIcESaIcEEEPN7libMesh10Parameters5ValueESt4lessIS5_ESaISt4pairIKS5_S9_EEEixERSD_
FNDA:0,_ZNSt3mapINSt7__cxx1112basic_stringIcSt11char_traitsIcESaIcEEEPN7libMesh10Parameters5ValueESt4lessIS5_ESaISt4pairIKS5_S9_EEEixERSD_
FNF:1
FNH:0
DA:300,0
DA:355,0
DA:364,0
DA:464,0
DA:490,0
DA:497,0
DA:499,0
DA:505,0
DA:1037,0
DA:1169,0
DA:1258,0
LF:11
LH:0
end_of_record
SF:/usr/share/miniconda/envs/moose/x86_64-conda-linux-gnu/include/c++/9.3.0/ext/aligned_buffer.h
DA:104,0
LF:1
LH:0
end_of_record
SF:/usr/share/miniconda/envs/moose/x86_64-conda-linux-gnu/include/c++/9.3.0/bits/shared_ptr.h
DA:103,32
LF:1
LH:1
end_of_record
SF:/usr/share/miniconda/envs/moose/x86_64-conda-linux-gnu/include/c++/9.3.0/bits/char_traits.h
DA:300,4168350
DA:335,27581
DA:363,67135600
DA:365,61438100
LF:4
LH:4
end_of_record
SF:/usr/share/miniconda/envs/moose/x86_64-conda-linux-gnu/include/c++/9.3.0/iostream
LF:0
LH:0
end_of_record
SF:/home/runner/work/raccoon/raccoon/moose/framework/build/header_symlinks/MooseInit.h
FN:27,_ZN9MooseInitD0Ev
FNDA:0,_ZN9MooseInitD0Ev
FN:27,_ZN9MooseInitD2Ev
FNDA:0,_ZN9MooseInitD2Ev
FNF:2
FNH:0
DA:27,0
DA:27,0
DA:27,32
LF:3
LH:1
end_of_record
SF:/usr/share/miniconda/envs/moose/x86_64-conda-linux-gnu/include/c++/9.3.0/ext/atomicity.h
DA:49,56694
DA:67,0
DA:68,0
DA:81,56694
DA:82,56694
DA:84,0
LF:6
LH:3
end_of_record
SF:/usr/share/miniconda/envs/moose/x86_64-conda-linux-gnu/include/c++/9.3.0/future
FN:328,_ZNSt13__future_base13_State_baseV2D0Ev
FNDA:0,_ZNSt13__future_base13_State_baseV2D0Ev
FN:328,_ZNSt13__future_base13_State_baseV2D2Ev
FNDA:0,_ZNSt13__future_base13_State_baseV2D2Ev
FN:570,_ZNSt13__future_base13_State_baseV217_M_complete_asyncEv
FNDA:0,_ZNSt13__future_base13_State_baseV217_M_complete_asyncEv
FN:573,_ZNKSt13__future_base13_State_baseV221_M_is_deferred_futureEv
FNDA:0,_ZNKSt13__future_base13_State_baseV221_M_is_deferred_futureEv
FN:652,_ZNSt13__future_base7_ResultIvE10_M_destroyEv
FNDA:0,_ZNSt13__future_base7_ResultIvE10_M_destroyEv
FNF:5
FNH:0
DA:213,0
DA:328,0
DA:328,0
DA:570,0
DA:573,0
DA:652,0
LF:6
LH:0
end_of_record
SF:/usr/share/miniconda/envs/moose/x86_64-conda-linux-gnu/include/c++/9.3.0/bits/stl_set.h
FN:281,_ZNSt3setIsSt4lessIsESaIsEED2Ev
FNDA:32,_ZNSt3setIsSt4lessIsESaIsEED2Ev
FN:281,_ZNSt3setItSt4lessItESaItEED2Ev
FNDA:32,_ZNSt3setItSt4lessItESaItEED2Ev
FNF:2
FNH:2
DA:281,32
DA:281,32
LF:2
LH:2
end_of_record
SF:/usr/share/miniconda/envs/moose/x86_64-conda-linux-gnu/include/c++/9.3.0/bits/stl_iterator_base_funcs.h
DA:104,71304000
LF:1
LH:1
end_of_record
SF:/usr/share/miniconda/envs/moose/x86_64-conda-linux-gnu/include/c++/9.3.0/bits/stl_function.h
DA:1156,26807600
LF:1
LH:1
end_of_record
SF:/home/runner/work/raccoon/raccoon/moose/framework/build/header_symlinks/MooseTypes.h
LF:0
LH:0
end_of_record
SF:/usr/share/miniconda/envs/moose/libmesh/include/libmesh/parameters.h
FN:132,_ZN7libMesh10Parameters14set_attributesERKNSt7__cxx1112basic_stringIcSt11char_traitsIcESaIcEEEb
FNDA:944,_ZN7libMesh10Parameters14set_attributesERKNSt7__cxx1112basic_stringIcSt11char_traitsIcESaIcEEEb
FN:316,_ZN7libMesh10Parameters5clearEv
FNDA:0,_ZN7libMesh10Parameters5clearEv
FN:332,_ZN7libMesh10ParametersaSERKS0_
FNDA:0,_ZN7libMesh10ParametersaSERKS0_
FN:341,_ZN7libMesh10ParameterspLERKS0_
FNDA:0,_ZN7libMesh10ParameterspLERKS0_
FN:362,_ZN7libMesh10ParametersD0Ev
FNDA:0,_ZN7libMesh10ParametersD0Ev
FN:362,_ZN7libMesh10ParametersD2Ev
FNDA:0,_ZN7libMesh10ParametersD2Ev
FNF:6
FNH:1
DA:132,944
DA:316,0
DA:318,0
DA:322,0
DA:323,0
DA:327,0
DA:332,0
DA:334,0
DA:335,0
DA:337,0
DA:341,0
DA:343,0
DA:345,0
DA:346,0
DA:347,0
DA:350,0
DA:362,0
DA:364,0
DA:365,0
DA:362,0
DA:364,0
DA:365,0
LF:22
LH:1
end_of_record
SF:/usr/share/miniconda/envs/moose/x86_64-conda-linux-gnu/include/c++/9.3.0/bits/stl_tree.h
FN:609,_ZNSt8_Rb_treeINSt7__cxx1112basic_stringIcSt11char_traitsIcESaIcEEESt4pairIKS5_PN7libMesh10Parameters5ValueEESt10_Select1stISC_ESt4lessIS5_ESaISC_EE17_M_construct_nodeIJRKSt21piecewise_construct_tSt5tupleIJRS7_EESN_IJEEEEEvPSt13_Rb_tree_nodeISC_EDpOT_
FNDA:6000270,_ZNSt8_Rb_treeINSt7__cxx1112basic_stringIcSt11char_traitsIcESaIcEEESt4pairIKS5_PN7libMesh10Parameters5ValueEESt10_Select1stISC_ESt4lessIS5_ESaISC_EE17_M_construct_nodeIJRKSt21piecewise_construct_tSt5tupleIJRS7_EESN_IJEEEEEvPSt13_Rb_tree_nodeISC_EDpOT_
FN:1281,_ZNSt8_Rb_treeINSt7__cxx1112basic_stringIcSt11char_traitsIcESaIcEEESt4pairIKS5_PN7libMesh10Parameters5ValueEESt10_Select1stISC_ESt4lessIS5_ESaISC_EE11lower_boundERS7_
FNDA:0,_ZNSt8_Rb_treeINSt7__cxx1112basic_stringIcSt11char_traitsIcESaIcEEESt4pairIKS5_PN7libMesh10Parameters5ValueEESt10_Select1stISC_ESt4lessIS5_ESaISC_EE11lower_boundERS7_
FN:1907,_ZNSt8_Rb_treeIssSt9_IdentityIsESt4lessIsESaIsEE8_M_eraseEPSt13_Rb_tree_nodeIsE
FNDA:26581,_ZNSt8_Rb_treeIssSt9_IdentityIsESt4lessIsESaIsEE8_M_eraseEPSt13_Rb_tree_nodeIsE
FN:1907,_ZNSt8_Rb_treeIttSt9_IdentityItESt4lessItESaItEE8_M_eraseEPSt13_Rb_tree_nodeItE
FNDA:1102900,_ZNSt8_Rb_treeIttSt9_IdentityItESt4lessItESaItEE8_M_eraseEPSt13_Rb_tree_nodeItE
FN:1907,_ZNSt8_Rb_treeINSt7__cxx1112basic_stringIcSt11char_traitsIcESaIcEEESt4pairIKS5_PN7libMesh10Parameters5ValueEESt10_Select1stISC_ESt4lessIS5_ESaISC_EE8_M_eraseEPSt13_Rb_tree_nodeISC_E
FNDA:805449,_ZNSt8_Rb_treeINSt7__cxx1112basic_stringIcSt11char_traitsIcESaIcEEESt4pairIKS5_PN7libMesh10Parameters5ValueEESt10_Select1stISC_ESt4lessIS5_ESaISC_EE8_M_eraseEPSt13_Rb_tree_nodeISC_E
FN:2085,_ZNSt8_Rb_treeINSt7__cxx1112basic_stringIcSt11char_traitsIcESaIcEEESt4pairIKS5_PN7libMesh10Parameters5ValueEESt10_Select1stISC_ESt4lessIS5_ESaISC_EE24_M_get_insert_unique_posERS7_
FNDA:716670,_ZNSt8_Rb_treeINSt7__cxx1112basic_stringIcSt11char_traitsIcESaIcEEESt4pairIKS5_PN7libMesh10Parameters5ValueEESt10_Select1stISC_ESt4lessIS5_ESaISC_EE24_M_get_insert_unique_posERS7_
FN:2187,_ZNSt8_Rb_treeINSt7__cxx1112basic_stringIcSt11char_traitsIcESaIcEEESt4pairIKS5_PN7libMesh10Parameters5ValueEESt10_Select1stISC_ESt4lessIS5_ESaISC_EE29_M_get_insert_hint_unique_posESt23_Rb_tree_const_iteratorISC_ERS7_
FNDA:6000270,_ZNSt8_Rb_treeINSt7__cxx1112basic_stringIcSt11char_traitsIcESaIcEEESt4pairIKS5_PN7libMesh10Parameters5ValueEESt10_Select1stISC_ESt4lessIS5_ESaISC_EE29_M_get_insert_hint_unique_posESt23_Rb_tree_const_iteratorISC_ERS7_
FN:2354,_ZNSt8_Rb_treeINSt7__cxx1112basic_stringIcSt11char_traitsIcESaIcEEESt4pairIKS5_PN7libMesh10Parameters5ValueEESt10_Select1stISC_ESt4lessIS5_ESaISC_EE14_M_insert_nodeEPSt18_Rb_tree_node_baseSK_PSt13_Rb_tree_nodeISC_E
FNDA:6000270,_ZNSt8_Rb_treeINSt7__cxx1112basic_stringIcSt11char_traitsIcESaIcEEESt4pairIKS5_PN7libMesh10Parameters5ValueEESt10_Select1stISC_ESt4lessIS5_ESaISC_EE14_M_insert_nodeEPSt18_Rb_tree_node_baseSK_PSt13_Rb_tree_nodeISC_E
FN:2452,_ZNSt8_Rb_treeINSt7__cxx1112basic_stringIcSt11char_traitsIcESaIcEEESt4pairIKS5_PN7libMesh10Parameters5ValueEESt10_Select1stISC_ESt4lessIS5_ESaISC_EE22_M_emplace_hint_uniqueIJRKSt21piecewise_construct_tSt5tupleIJRS7_EESN_IJEEEEESt17_Rb_tree_iteratorISC_ESt23_Rb_tree_const_iteratorISC_EDpOT_
FNDA:6000270,_ZNSt8_Rb_treeINSt7__cxx1112basic_stringIcSt11char_traitsIcESaIcEEESt4pairIKS5_PN7libMesh10Parameters5ValueEESt10_Select1stISC_ESt4lessIS5_ESaISC_EE22_M_emplace_hint_uniqueIJRKSt21piecewise_construct_tSt5tupleIJRS7_EESN_IJEEEEESt17_Rb_tree_iteratorISC_ESt23_Rb_tree_const_iteratorISC_EDpOT_
FN:2504,_ZNSt8_Rb_treeINSt7__cxx1112basic_stringIcSt11char_traitsIcESaIcEEESt4pairIKS5_PN7libMesh10Parameters5ValueEESt10_Select1stISC_ESt4lessIS5_ESaISC_EE12_M_erase_auxESt23_Rb_tree_const_iteratorISC_E
FNDA:0,_ZNSt8_Rb_treeINSt7__cxx1112basic_stringIcSt11char_traitsIcESaIcEEESt4pairIKS5_PN7libMesh10Parameters5ValueEESt10_Select1stISC_ESt4lessIS5_ESaISC_EE12_M_erase_auxESt23_Rb_tree_const_iteratorISC_E
FN:2554,_ZNSt8_Rb_treeINSt7__cxx1112basic_stringIcSt11char_traitsIcESaIcEEESt4pairIKS5_PN7libMesh10Parameters5ValueEESt10_Select1stISC_ESt4lessIS5_ESaISC_EE4findERS7_
FNDA:1819330,_ZNSt8_Rb_treeINSt7__cxx1112basic_stringIcSt11char_traitsIcESaIcEEESt4pairIKS5_PN7libMesh10Parameters5ValueEESt10_Select1stISC_ESt4lessIS5_ESaISC_EE4findERS7_
FNF:11
FNH:9
DA:287,0
DA:302,3215400
DA:303,0
DA:348,0
DA:349,0
DA:366,0
DA:367,0
DA:609,6000270
DA:618,0
DA:620,0
DA:622,0
DA:624,6000270
DA:631,6000270
DA:756,12092200
DA:995,64
DA:1015,1335270
DA:1019,0
DA:1220,0
DA:1281,0
DA:1282,0
DA:1907,26581
DA:1911,40020
DA:1913,13439
DA:1914,13439
DA:1918,26581
DA:1907,1102900
DA:1911,1651550
DA:1913,548655
DA:1914,548655
DA:1918,1102900
DA:1907,805449
DA:1911,805449
DA:1913,0
DA:1914,0
DA:1915,0
DA:1918,805449
DA:1928,10092000
DA:1929,8272700
DA:1930,2625310
DA:1932,5647390
DA:2085,716670
DA:2089,716670
DA:2092,716670
DA:2096,0
DA:2099,716670
DA:2101,716670
DA:2102,716670
DA:2106,0
DA:2107,0
DA:2108,0
DA:2187,6000270
DA:2191,6000270
DA:2195,6000270
DA:2197,1625900
DA:2198,1625900
DA:2199,909226
DA:2201,716670
DA:2203,4374380
DA:2207,4374380
DA:2208,1158980
DA:2209,3215400
DA:2211,3215400
DA:2212,1930070
DA:2214,1285320
DA:2217,0
DA:2219,0
DA:2223,0
DA:2224,0
DA:2225,0
DA:2227,0
DA:2228,0
DA:2230,0
DA:2233,0
DA:2237,0
DA:2354,6000270
DA:2357,3555970
DA:2358,8839570
DA:2361,6000270
DA:2362,6000270
DA:2363,6000270
DA:2364,6000270
DA:2452,6000270
DA:2459,6000270
DA:2461,6000270
DA:2462,6000270
DA:2464,0
DA:2465,0
DA:2504,0
DA:2509,0
DA:2510,0
DA:2511,0
DA:2512,0
DA:2513,0
DA:2554,1819330
DA:2557,1819330
DA:2559,1196380
DA:2560,2303380
LF:97
LH:59
end_of_record
SF:/usr/share/miniconda/envs/moose/libmesh/include/timpi/message_tag.h
LF:0
LH:0
end_of_record
SF:/usr/share/miniconda/envs/moose/x86_64-conda-linux-gnu/include/c++/9.3.0/bits/basic_string.tcc
FN:206,_ZNSt7__cxx1112basic_stringIcSt11char_traitsIcESaIcEE12_M_constructIPcEEvT_S7_St20forward_iterator_tag
FNDA:46336300,_ZNSt7__cxx1112basic_stringIcSt11char_traitsIcESaIcEE12_M_constructIPcEEvT_S7_St20forward_iterator_tag
FN:206,_ZNSt7__cxx1112basic_stringIcSt11char_traitsIcESaIcEE12_M_constructIPKcEEvT_S8_St20forward_iterator_tag
FNDA:24967700,_ZNSt7__cxx1112basic_stringIcSt11char_traitsIcESaIcEE12_M_constructIPKcEEvT_S8_St20forward_iterator_tag
FNF:2
FNH:2
DA:206,46336300
DA:211,46336300
DA:212,0
DA:215,46336300
DA:217,46336300
DA:219,6664850
DA:220,6664850
DA:225,46336300
DA:232,46336300
DA:233,46336300
DA:206,24967700
DA:211,24967700
DA:212,0
DA:215,24967700
DA:217,24967700
DA:219,5758370
DA:220,5758370
DA:225,24967700
DA:232,24967700
DA:233,24967700
LF:20
LH:18
end_of_record
SF:/usr/share/miniconda/envs/moose/x86_64-conda-linux-gnu/include/c++/9.3.0/bits/unique_ptr.h
DA:291,0
LF:1
LH:0
end_of_record
SF:/usr/share/miniconda/envs/moose/x86_64-conda-linux-gnu/include/c++/9.3.0/tuple
DA:125,0
DA:126,0
DA:334,6000270
DA:1670,6000270
DA:1674,6000270
LF:5
LH:3
end_of_record
SF:/usr/share/miniconda/envs/moose/x86_64-conda-linux-gnu/include/c++/9.3.0/bits/basic_string.h
FN:525,_ZNSt7__cxx1112basic_stringIcSt11char_traitsIcESaIcEEC2IS3_EEPKcRKS3_
FNDA:27581,_ZNSt7__cxx1112basic_stringIcSt11char_traitsIcESaIcEEC2IS3_EEPKcRKS3_
FNF:1
FNH:1
DA:156,27581
DA:157,27581
DA:159,6000270
DA:160,6000270
DA:179,12423200
DA:183,71304000
DA:193,6027850
DA:211,12423200
DA:217,71304000
DA:222,32
DA:231,32
DA:237,0
DA:247,27581
DA:348,71304000
DA:349,4168350
DA:448,6000270
DA:451,6000270
DA:525,27581
DA:527,27581
DA:6229,20807400
LF:20
LH:19
end_of_record
TN:
SF:/usr/share/miniconda/envs/moose/x86_64-conda-linux-gnu/include/c++/9.3.0/bits/stl_tree.h
FN:609,_ZNSt8_Rb_treeINSt7__cxx1112basic_stringIcSt11char_traitsIcESaIcEEESt4pairIKS5_PF15InputParametersvEESt10_Select1stISB_ESt4lessIS5_ESaISB_EE17_M_construct_nodeIJRKSt21piecewise_construct_tSt5tupleIJRS7_EESM_IJEEEEEvPSt13_Rb_tree_nodeISB_EDpOT_
FNDA:0,_ZNSt8_Rb_treeINSt7__cxx1112basic_stringIcSt11char_traitsIcESaIcEEESt4pairIKS5_PF15InputParametersvEESt10_Select1stISB_ESt4lessIS5_ESaISB_EE17_M_construct_nodeIJRKSt21piecewise_construct_tSt5tupleIJRS7_EESM_IJEEEEEvPSt13_Rb_tree_nodeISB_EDpOT_
FN:609,_ZNSt8_Rb_treeINSt7__cxx1112basic_stringIcSt11char_traitsIcESaIcEEESt4pairIKS5_PFSt10shared_ptrI8MooseAppERK15InputParametersEESt10_Select1stISG_ESt4lessIS5_ESaISG_EE17_M_construct_nodeIJRKSt21piecewise_construct_tSt5tupleIJRS7_EESR_IJEEEEEvPSt13_Rb_tree_nodeISG_EDpOT_
FNDA:0,_ZNSt8_Rb_treeINSt7__cxx1112basic_stringIcSt11char_traitsIcESaIcEEESt4pairIKS5_PFSt10shared_ptrI8MooseAppERK15InputParametersEESt10_Select1stISG_ESt4lessIS5_ESaISG_EE17_M_construct_nodeIJRKSt21piecewise_construct_tSt5tupleIJRS7_EESR_IJEEEEEvPSt13_Rb_tree_nodeISG_EDpOT_
FN:609,_ZNSt8_Rb_treeINSt7__cxx1112basic_stringIcSt11char_traitsIcESaIcEEESt4pairIKS5_PN7libMesh10Parameters5ValueEESt10_Select1stISC_ESt4lessIS5_ESaISC_EE17_M_construct_nodeIJRKSt21piecewise_construct_tSt5tupleIJRS7_EESN_IJEEEEEvPSt13_Rb_tree_nodeISC_EDpOT_
FNDA:0,_ZNSt8_Rb_treeINSt7__cxx1112basic_stringIcSt11char_traitsIcESaIcEEESt4pairIKS5_PN7libMesh10Parameters5ValueEESt10_Select1stISC_ESt4lessIS5_ESaISC_EE17_M_construct_nodeIJRKSt21piecewise_construct_tSt5tupleIJRS7_EESN_IJEEEEEvPSt13_Rb_tree_nodeISC_EDpOT_
FN:609,_ZNSt8_Rb_treeINSt7__cxx1112basic_stringIcSt11char_traitsIcESaIcEEESt4pairIKS5_N15InputParameters8MetadataEESt10_Select1stISA_ESt4lessIS5_ESaISA_EE17_M_construct_nodeIJRKSt21piecewise_construct_tSt5tupleIJRS7_EESL_IJEEEEEvPSt13_Rb_tree_nodeISA_EDpOT_
FNDA:0,_ZNSt8_Rb_treeINSt7__cxx1112basic_stringIcSt11char_traitsIcESaIcEEESt4pairIKS5_N15InputParameters8MetadataEESt10_Select1stISA_ESt4lessIS5_ESaISA_EE17_M_construct_nodeIJRKSt21piecewise_construct_tSt5tupleIJRS7_EESL_IJEEEEEvPSt13_Rb_tree_nodeISA_EDpOT_
FN:1281,_ZNSt8_Rb_treeINSt7__cxx1112basic_stringIcSt11char_traitsIcESaIcEEESt4pairIKS5_PN7libMesh10Parameters5ValueEESt10_Select1stISC_ESt4lessIS5_ESaISC_EE11lower_boundERS7_
FNDA:0,_ZNSt8_Rb_treeINSt7__cxx1112basic_stringIcSt11char_traitsIcESaIcEEESt4pairIKS5_PN7libMesh10Parameters5ValueEESt10_Select1stISC_ESt4lessIS5_ESaISC_EE11lower_boundERS7_
FN:1281,_ZNSt8_Rb_treeINSt7__cxx1112basic_stringIcSt11char_traitsIcESaIcEEESt4pairIKS5_PF15InputParametersvEESt10_Select1stISB_ESt4lessIS5_ESaISB_EE11lower_boundERS7_
FNDA:0,_ZNSt8_Rb_treeINSt7__cxx1112basic_stringIcSt11char_traitsIcESaIcEEESt4pairIKS5_PF15InputParametersvEESt10_Select1stISB_ESt4lessIS5_ESaISB_EE11lower_boundERS7_
FN:1281,_ZNSt8_Rb_treeINSt7__cxx1112basic_stringIcSt11char_traitsIcESaIcEEESt4pairIKS5_N15InputParameters8MetadataEESt10_Select1stISA_ESt4lessIS5_ESaISA_EE11lower_boundERS7_
FNDA:0,_ZNSt8_Rb_treeINSt7__cxx1112basic_stringIcSt11char_traitsIcESaIcEEESt4pairIKS5_N15InputParameters8MetadataEESt10_Select1stISA_ESt4lessIS5_ESaISA_EE11lower_boundERS7_
FN:1281,_ZNSt8_Rb_treeINSt7__cxx1112basic_stringIcSt11char_traitsIcESaIcEEESt4pairIKS5_PFSt10shared_ptrI8MooseAppERK15InputParametersEESt10_Select1stISG_ESt4lessIS5_ESaISG_EE11lower_boundERS7_
FNDA:0,_ZNSt8_Rb_treeINSt7__cxx1112basic_stringIcSt11char_traitsIcESaIcEEESt4pairIKS5_PFSt10shared_ptrI8MooseAppERK15InputParametersEESt10_Select1stISG_ESt4lessIS5_ESaISG_EE11lower_boundERS7_
FN:1797,_ZNSt8_Rb_treeINSt7__cxx1112basic_stringIcSt11char_traitsIcESaIcEEES5_St9_IdentityIS5_ESt4lessIS5_ESaIS5_EE10_M_insert_IRKS5_NSB_11_Alloc_nodeEEESt17_Rb_tree_iteratorIS5_EPSt18_Rb_tree_node_baseSJ_OT_RT0_
FNDA:0,_ZNSt8_Rb_treeINSt7__cxx1112basic_stringIcSt11char_traitsIcESaIcEEES5_St9_IdentityIS5_ESt4lessIS5_ESaIS5_EE10_M_insert_IRKS5_NSB_11_Alloc_nodeEEESt17_Rb_tree_iteratorIS5_EPSt18_Rb_tree_node_baseSJ_OT_RT0_
FN:1907,_ZNSt8_Rb_treeI13MooseEnumItemS0_St9_IdentityIS0_ESt4lessIS0_ESaIS0_EE8_M_eraseEPSt13_Rb_tree_nodeIS0_E
FNDA:0,_ZNSt8_Rb_treeI13MooseEnumItemS0_St9_IdentityIS0_ESt4lessIS0_ESaIS0_EE8_M_eraseEPSt13_Rb_tree_nodeIS0_E
FN:1907,_ZNSt8_Rb_treeINSt7__cxx1112basic_stringIcSt11char_traitsIcESaIcEEESt4pairIKS5_PN7libMesh10Parameters5ValueEESt10_Select1stISC_ESt4lessIS5_ESaISC_EE8_M_eraseEPSt13_Rb_tree_nodeISC_E
FNDA:0,_ZNSt8_Rb_treeINSt7__cxx1112basic_stringIcSt11char_traitsIcESaIcEEESt4pairIKS5_PN7libMesh10Parameters5ValueEESt10_Select1stISC_ESt4lessIS5_ESaISC_EE8_M_eraseEPSt13_Rb_tree_nodeISC_E
FN:1907,_ZNSt8_Rb_treeIttSt9_IdentityItESt4lessItESaItEE8_M_eraseEPSt13_Rb_tree_nodeItE
FNDA:0,_ZNSt8_Rb_treeIttSt9_IdentityItESt4lessItESaItEE8_M_eraseEPSt13_Rb_tree_nodeItE
FN:1907,_ZNSt8_Rb_treeIssSt9_IdentityIsESt4lessIsESaIsEE8_M_eraseEPSt13_Rb_tree_nodeIsE
FNDA:0,_ZNSt8_Rb_treeIssSt9_IdentityIsESt4lessIsESaIsEE8_M_eraseEPSt13_Rb_tree_nodeIsE
FN:1907,_ZNSt8_Rb_treeINSt7__cxx1112basic_stringIcSt11char_traitsIcESaIcEEES5_St9_IdentityIS5_ESt4lessIS5_ESaIS5_EE8_M_eraseEPSt13_Rb_tree_nodeIS5_E
FNDA:0,_ZNSt8_Rb_treeINSt7__cxx1112basic_stringIcSt11char_traitsIcESaIcEEES5_St9_IdentityIS5_ESt4lessIS5_ESaIS5_EE8_M_eraseEPSt13_Rb_tree_nodeIS5_E
FN:1907,_ZNSt8_Rb_treeINSt7__cxx1112basic_stringIcSt11char_traitsIcESaIcEEESt4pairIKS5_N15InputParameters8MetadataEESt10_Select1stISA_ESt4lessIS5_ESaISA_EE8_M_eraseEPSt13_Rb_tree_nodeISA_E
FNDA:0,_ZNSt8_Rb_treeINSt7__cxx1112basic_stringIcSt11char_traitsIcESaIcEEESt4pairIKS5_N15InputParameters8MetadataEESt10_Select1stISA_ESt4lessIS5_ESaISA_EE8_M_eraseEPSt13_Rb_tree_nodeISA_E
FN:2085,_ZNSt8_Rb_treeINSt7__cxx1112basic_stringIcSt11char_traitsIcESaIcEEESt4pairIKS5_PN7libMesh10Parameters5ValueEESt10_Select1stISC_ESt4lessIS5_ESaISC_EE24_M_get_insert_unique_posERS7_
FNDA:0,_ZNSt8_Rb_treeINSt7__cxx1112basic_stringIcSt11char_traitsIcESaIcEEESt4pairIKS5_PN7libMesh10Parameters5ValueEESt10_Select1stISC_ESt4lessIS5_ESaISC_EE24_M_get_insert_unique_posERS7_
FN:2085,_ZNSt8_Rb_treeINSt7__cxx1112basic_stringIcSt11char_traitsIcESaIcEEESt4pairIKS5_PF15InputParametersvEESt10_Select1stISB_ESt4lessIS5_ESaISB_EE24_M_get_insert_unique_posERS7_
FNDA:0,_ZNSt8_Rb_treeINSt7__cxx1112basic_stringIcSt11char_traitsIcESaIcEEESt4pairIKS5_PF15InputParametersvEESt10_Select1stISB_ESt4lessIS5_ESaISB_EE24_M_get_insert_unique_posERS7_
FN:2085,_ZNSt8_Rb_treeINSt7__cxx1112basic_stringIcSt11char_traitsIcESaIcEEESt4pairIKS5_PFSt10shared_ptrI8MooseAppERK15InputParametersEESt10_Select1stISG_ESt4lessIS5_ESaISG_EE24_M_get_insert_unique_posERS7_
FNDA:0,_ZNSt8_Rb_treeINSt7__cxx1112basic_stringIcSt11char_traitsIcESaIcEEESt4pairIKS5_PFSt10shared_ptrI8MooseAppERK15InputParametersEESt10_Select1stISG_ESt4lessIS5_ESaISG_EE24_M_get_insert_unique_posERS7_
FN:2085,_ZNSt8_Rb_treeINSt7__cxx1112basic_stringIcSt11char_traitsIcESaIcEEES5_St9_IdentityIS5_ESt4lessIS5_ESaIS5_EE24_M_get_insert_unique_posERKS5_
FNDA:0,_ZNSt8_Rb_treeINSt7__cxx1112basic_stringIcSt11char_traitsIcESaIcEEES5_St9_IdentityIS5_ESt4lessIS5_ESaIS5_EE24_M_get_insert_unique_posERKS5_
FN:2085,_ZNSt8_Rb_treeINSt7__cxx1112basic_stringIcSt11char_traitsIcESaIcEEESt4pairIKS5_N15InputParameters8MetadataEESt10_Select1stISA_ESt4lessIS5_ESaISA_EE24_M_get_insert_unique_posERS7_
FNDA:0,_ZNSt8_Rb_treeINSt7__cxx1112basic_stringIcSt11char_traitsIcESaIcEEESt4pairIKS5_N15InputParameters8MetadataEESt10_Select1stISA_ESt4lessIS5_ESaISA_EE24_M_get_insert_unique_posERS7_
FN:2187,_ZNSt8_Rb_treeINSt7__cxx1112basic_stringIcSt11char_traitsIcESaIcEEES5_St9_IdentityIS5_ESt4lessIS5_ESaIS5_EE29_M_get_insert_hint_unique_posESt23_Rb_tree_const_iteratorIS5_ERKS5_
FNDA:0,_ZNSt8_Rb_treeINSt7__cxx1112basic_stringIcSt11char_traitsIcESaIcEEES5_St9_IdentityIS5_ESt4lessIS5_ESaIS5_EE29_M_get_insert_hint_unique_posESt23_Rb_tree_const_iteratorIS5_ERKS5_
FN:2187,_ZNSt8_Rb_treeINSt7__cxx1112basic_stringIcSt11char_traitsIcESaIcEEESt4pairIKS5_PFSt10shared_ptrI8MooseAppERK15InputParametersEESt10_Select1stISG_ESt4lessIS5_ESaISG_EE29_M_get_insert_hint_unique_posESt23_Rb_tree_const_iteratorISG_ERS7_
FNDA:0,_ZNSt8_Rb_treeINSt7__cxx1112basic_stringIcSt11char_traitsIcESaIcEEESt4pairIKS5_PFSt10shared_ptrI8MooseAppERK15InputParametersEESt10_Select1stISG_ESt4lessIS5_ESaISG_EE29_M_get_insert_hint_unique_posESt23_Rb_tree_const_iteratorISG_ERS7_
FN:2187,_ZNSt8_Rb_treeINSt7__cxx1112basic_stringIcSt11char_traitsIcESaIcEEESt4pairIKS5_PF15InputParametersvEESt10_Select1stISB_ESt4lessIS5_ESaISB_EE29_M_get_insert_hint_unique_posESt23_Rb_tree_const_iteratorISB_ERS7_
FNDA:0,_ZNSt8_Rb_treeINSt7__cxx1112basic_stringIcSt11char_traitsIcESaIcEEESt4pairIKS5_PF15InputParametersvEESt10_Select1stISB_ESt4lessIS5_ESaISB_EE29_M_get_insert_hint_unique_posESt23_Rb_tree_const_iteratorISB_ERS7_
FN:2187,_ZNSt8_Rb_treeINSt7__cxx1112basic_stringIcSt11char_traitsIcESaIcEEESt4pairIKS5_N15InputParameters8MetadataEESt10_Select1stISA_ESt4lessIS5_ESaISA_EE29_M_get_insert_hint_unique_posESt23_Rb_tree_const_iteratorISA_ERS7_
FNDA:0,_ZNSt8_Rb_treeINSt7__cxx1112basic_stringIcSt11char_traitsIcESaIcEEESt4pairIKS5_N15InputParameters8MetadataEESt10_Select1stISA_ESt4lessIS5_ESaISA_EE29_M_get_insert_hint_unique_posESt23_Rb_tree_const_iteratorISA_ERS7_
FN:2187,_ZNSt8_Rb_treeINSt7__cxx1112basic_stringIcSt11char_traitsIcESaIcEEESt4pairIKS5_PN7libMesh10Parameters5ValueEESt10_Select1stISC_ESt4lessIS5_ESaISC_EE29_M_get_insert_hint_unique_posESt23_Rb_tree_const_iteratorISC_ERS7_
FNDA:0,_ZNSt8_Rb_treeINSt7__cxx1112basic_stringIcSt11char_traitsIcESaIcEEESt4pairIKS5_PN7libMesh10Parameters5ValueEESt10_Select1stISC_ESt4lessIS5_ESaISC_EE29_M_get_insert_hint_unique_posESt23_Rb_tree_const_iteratorISC_ERS7_
FN:2248,_ZNSt8_Rb_treeINSt7__cxx1112basic_stringIcSt11char_traitsIcESaIcEEES5_St9_IdentityIS5_ESt4lessIS5_ESaIS5_EE17_M_insert_unique_IRKS5_NSB_11_Alloc_nodeEEESt17_Rb_tree_iteratorIS5_ESt23_Rb_tree_const_iteratorIS5_EOT_RT0_
FNDA:98,_ZNSt8_Rb_treeINSt7__cxx1112basic_stringIcSt11char_traitsIcESaIcEEES5_St9_IdentityIS5_ESt4lessIS5_ESaIS5_EE17_M_insert_unique_IRKS5_NSB_11_Alloc_nodeEEESt17_Rb_tree_iteratorIS5_ESt23_Rb_tree_const_iteratorIS5_EOT_RT0_
FN:2354,_ZNSt8_Rb_treeINSt7__cxx1112basic_stringIcSt11char_traitsIcESaIcEEESt4pairIKS5_PFSt10shared_ptrI8MooseAppERK15InputParametersEESt10_Select1stISG_ESt4lessIS5_ESaISG_EE14_M_insert_nodeEPSt18_Rb_tree_node_baseSO_PSt13_Rb_tree_nodeISG_E
FNDA:0,_ZNSt8_Rb_treeINSt7__cxx1112basic_stringIcSt11char_traitsIcESaIcEEESt4pairIKS5_PFSt10shared_ptrI8MooseAppERK15InputParametersEESt10_Select1stISG_ESt4lessIS5_ESaISG_EE14_M_insert_nodeEPSt18_Rb_tree_node_baseSO_PSt13_Rb_tree_nodeISG_E
FN:2354,_ZNSt8_Rb_treeINSt7__cxx1112basic_stringIcSt11char_traitsIcESaIcEEESt4pairIKS5_PF15InputParametersvEESt10_Select1stISB_ESt4lessIS5_ESaISB_EE14_M_insert_nodeEPSt18_Rb_tree_node_baseSJ_PSt13_Rb_tree_nodeISB_E
FNDA:0,_ZNSt8_Rb_treeINSt7__cxx1112basic_stringIcSt11char_traitsIcESaIcEEESt4pairIKS5_PF15InputParametersvEESt10_Select1stISB_ESt4lessIS5_ESaISB_EE14_M_insert_nodeEPSt18_Rb_tree_node_baseSJ_PSt13_Rb_tree_nodeISB_E
FN:2354,_ZNSt8_Rb_treeINSt7__cxx1112basic_stringIcSt11char_traitsIcESaIcEEESt4pairIKS5_PN7libMesh10Parameters5ValueEESt10_Select1stISC_ESt4lessIS5_ESaISC_EE14_M_insert_nodeEPSt18_Rb_tree_node_baseSK_PSt13_Rb_tree_nodeISC_E
FNDA:0,_ZNSt8_Rb_treeINSt7__cxx1112basic_stringIcSt11char_traitsIcESaIcEEESt4pairIKS5_PN7libMesh10Parameters5ValueEESt10_Select1stISC_ESt4lessIS5_ESaISC_EE14_M_insert_nodeEPSt18_Rb_tree_node_baseSK_PSt13_Rb_tree_nodeISC_E
FN:2354,_ZNSt8_Rb_treeINSt7__cxx1112basic_stringIcSt11char_traitsIcESaIcEEESt4pairIKS5_N15InputParameters8MetadataEESt10_Select1stISA_ESt4lessIS5_ESaISA_EE14_M_insert_nodeEPSt18_Rb_tree_node_baseSI_PSt13_Rb_tree_nodeISA_E
FNDA:0,_ZNSt8_Rb_treeINSt7__cxx1112basic_stringIcSt11char_traitsIcESaIcEEESt4pairIKS5_N15InputParameters8MetadataEESt10_Select1stISA_ESt4lessIS5_ESaISA_EE14_M_insert_nodeEPSt18_Rb_tree_node_baseSI_PSt13_Rb_tree_nodeISA_E
FN:2452,_ZNSt8_Rb_treeINSt7__cxx1112basic_stringIcSt11char_traitsIcESaIcEEESt4pairIKS5_N15InputParameters8MetadataEESt10_Select1stISA_ESt4lessIS5_ESaISA_EE22_M_emplace_hint_uniqueIJRKSt21piecewise_construct_tSt5tupleIJRS7_EESL_IJEEEEESt17_Rb_tree_iteratorISA_ESt23_Rb_tree_const_iteratorISA_EDpOT_
FNDA:0,_ZNSt8_Rb_treeINSt7__cxx1112basic_stringIcSt11char_traitsIcESaIcEEESt4pairIKS5_N15InputParameters8MetadataEESt10_Select1stISA_ESt4lessIS5_ESaISA_EE22_M_emplace_hint_uniqueIJRKSt21piecewise_construct_tSt5tupleIJRS7_EESL_IJEEEEESt17_Rb_tree_iteratorISA_ESt23_Rb_tree_const_iteratorISA_EDpOT_
FN:2452,_ZNSt8_Rb_treeINSt7__cxx1112basic_stringIcSt11char_traitsIcESaIcEEESt4pairIKS5_PFSt10shared_ptrI8MooseAppERK15InputParametersEESt10_Select1stISG_ESt4lessIS5_ESaISG_EE22_M_emplace_hint_uniqueIJRKSt21piecewise_construct_tSt5tupleIJRS7_EESR_IJEEEEESt17_Rb_tree_iteratorISG_ESt23_Rb_tree_const_iteratorISG_EDpOT_
FNDA:0,_ZNSt8_Rb_treeINSt7__cxx1112basic_stringIcSt11char_traitsIcESaIcEEESt4pairIKS5_PFSt10shared_ptrI8MooseAppERK15InputParametersEESt10_Select1stISG_ESt4lessIS5_ESaISG_EE22_M_emplace_hint_uniqueIJRKSt21piecewise_construct_tSt5tupleIJRS7_EESR_IJEEEEESt17_Rb_tree_iteratorISG_ESt23_Rb_tree_const_iteratorISG_EDpOT_
FN:2452,_ZNSt8_Rb_treeINSt7__cxx1112basic_stringIcSt11char_traitsIcESaIcEEESt4pairIKS5_PF15InputParametersvEESt10_Select1stISB_ESt4lessIS5_ESaISB_EE22_M_emplace_hint_uniqueIJRKSt21piecewise_construct_tSt5tupleIJRS7_EESM_IJEEEEESt17_Rb_tree_iteratorISB_ESt23_Rb_tree_const_iteratorISB_EDpOT_
FNDA:0,_ZNSt8_Rb_treeINSt7__cxx1112basic_stringIcSt11char_traitsIcESaIcEEESt4pairIKS5_PF15InputParametersvEESt10_Select1stISB_ESt4lessIS5_ESaISB_EE22_M_emplace_hint_uniqueIJRKSt21piecewise_construct_tSt5tupleIJRS7_EESM_IJEEEEESt17_Rb_tree_iteratorISB_ESt23_Rb_tree_const_iteratorISB_EDpOT_
FN:2452,_ZNSt8_Rb_treeINSt7__cxx1112basic_stringIcSt11char_traitsIcESaIcEEESt4pairIKS5_PN7libMesh10Parameters5ValueEESt10_Select1stISC_ESt4lessIS5_ESaISC_EE22_M_emplace_hint_uniqueIJRKSt21piecewise_construct_tSt5tupleIJRS7_EESN_IJEEEEESt17_Rb_tree_iteratorISC_ESt23_Rb_tree_const_iteratorISC_EDpOT_
FNDA:0,_ZNSt8_Rb_treeINSt7__cxx1112basic_stringIcSt11char_traitsIcESaIcEEESt4pairIKS5_PN7libMesh10Parameters5ValueEESt10_Select1stISC_ESt4lessIS5_ESaISC_EE22_M_emplace_hint_uniqueIJRKSt21piecewise_construct_tSt5tupleIJRS7_EESN_IJEEEEESt17_Rb_tree_iteratorISC_ESt23_Rb_tree_const_iteratorISC_EDpOT_
FN:2504,_ZNSt8_Rb_treeINSt7__cxx1112basic_stringIcSt11char_traitsIcESaIcEEESt4pairIKS5_PN7libMesh10Parameters5ValueEESt10_Select1stISC_ESt4lessIS5_ESaISC_EE12_M_erase_auxESt23_Rb_tree_const_iteratorISC_E
FNDA:0,_ZNSt8_Rb_treeINSt7__cxx1112basic_stringIcSt11char_traitsIcESaIcEEESt4pairIKS5_PN7libMesh10Parameters5ValueEESt10_Select1stISC_ESt4lessIS5_ESaISC_EE12_M_erase_auxESt23_Rb_tree_const_iteratorISC_E
FN:2554,_ZNSt8_Rb_treeINSt7__cxx1112basic_stringIcSt11char_traitsIcESaIcEEESt4pairIKS5_PFSt10shared_ptrI8MooseAppERK15InputParametersEESt10_Select1stISG_ESt4lessIS5_ESaISG_EE4findERS7_
FNDA:0,_ZNSt8_Rb_treeINSt7__cxx1112basic_stringIcSt11char_traitsIcESaIcEEESt4pairIKS5_PFSt10shared_ptrI8MooseAppERK15InputParametersEESt10_Select1stISG_ESt4lessIS5_ESaISG_EE4findERS7_
FN:2554,_ZNSt8_Rb_treeINSt7__cxx1112basic_stringIcSt11char_traitsIcESaIcEEESt4pairIKS5_PN7libMesh10Parameters5ValueEESt10_Select1stISC_ESt4lessIS5_ESaISC_EE4findERS7_
FNDA:0,_ZNSt8_Rb_treeINSt7__cxx1112basic_stringIcSt11char_traitsIcESaIcEEESt4pairIKS5_PN7libMesh10Parameters5ValueEESt10_Select1stISC_ESt4lessIS5_ESaISC_EE4findERS7_
FN:2567,_ZNKSt8_Rb_treeINSt7__cxx1112basic_stringIcSt11char_traitsIcESaIcEEESt4pairIKS5_PN7libMesh10Parameters5ValueEESt10_Select1stISC_ESt4lessIS5_ESaISC_EE4findERS7_
FNDA:0,_ZNKSt8_Rb_treeINSt7__cxx1112basic_stringIcSt11char_traitsIcESaIcEEESt4pairIKS5_PN7libMesh10Parameters5ValueEESt10_Select1stISC_ESt4lessIS5_ESaISC_EE4findERS7_
FNF:38
FNH:1
DA:152,98
DA:174,98
DA:175,98
DA:208,98
DA:209,98
DA:210,98
DA:211,98
DA:287,0
DA:302,0
DA:303,0
DA:348,98
DA:349,0
DA:366,0
DA:367,0
DA:538,98
DA:539,98
DA:609,0
DA:618,0
DA:620,0
DA:622,0
DA:624,0
DA:609,0
DA:618,0
DA:620,0
DA:622,0
DA:624,0
DA:609,0
DA:618,0
DA:620,0
DA:622,0
DA:624,0
DA:609,0
DA:618,0
DA:620,0
DA:622,0
DA:624,0
DA:631,0
DA:643,0
DA:710,98
DA:756,0
DA:760,0
DA:995,98
DA:1015,0
DA:1019,0
DA:1112,196
DA:1113,98
DA:1220,0
DA:1281,0
DA:1282,0
DA:1281,0
DA:1282,0
DA:1281,0
DA:1282,0
DA:1281,0
DA:1282,0
DA:1797,0
DA:1806,0
DA:1807,0
DA:1812,0
DA:1813,0
DA:1814,0
DA:1815,0
DA:1907,0
DA:1911,0
DA:1913,0
DA:1914,0
DA:1918,0
DA:1907,0
DA:1911,0
DA:1913,0
DA:1914,0
DA:1918,0
DA:1907,0
DA:1911,0
DA:1913,0
DA:1914,0
DA:1915,0
DA:1918,0
DA:1907,0
DA:1911,0
DA:1913,0
DA:1914,0
DA:1918,0
DA:1907,0
DA:1911,0
DA:1913,0
DA:1914,0
DA:1918,0
DA:1907,0
DA:1911,0
DA:1913,0
DA:1914,0
DA:1915,0
DA:1918,0
DA:1928,0
DA:1929,0
DA:1930,0
DA:1932,0
DA:1944,0
DA:1945,0
DA:1946,0
DA:1948,0
DA:2085,0
DA:2089,0
DA:2092,0
DA:2096,0
DA:2099,0
DA:2101,0
DA:2102,0
DA:2106,0
DA:2107,0
DA:2108,0
DA:2085,0
DA:2089,0
DA:2092,0
DA:2096,0
DA:2099,0
DA:2101,0
DA:2102,0
DA:2106,0
DA:2107,0
DA:2108,0
DA:2085,0
DA:2089,0
DA:2092,0
DA:2096,0
DA:2099,0
DA:2101,0
DA:2102,0
DA:2106,0
DA:2107,0
DA:2108,0
DA:2085,0
DA:2089,0
DA:2092,0
DA:2096,0
DA:2099,0
DA:2101,0
DA:2102,0
DA:2106,0
DA:2107,0
DA:2108,0
DA:2085,0
DA:2089,0
DA:2092,0
DA:2096,0
DA:2099,0
DA:2101,0
DA:2102,0
DA:2106,0
DA:2107,0
DA:2108,0
DA:2187,0
DA:2191,0
DA:2195,0
DA:2197,0
DA:2198,0
DA:2199,0
DA:2201,0
DA:2203,0
DA:2207,0
DA:2208,0
DA:2209,0
DA:2211,0
DA:2212,0
DA:2214,0
DA:2217,0
DA:2219,0
DA:2223,0
DA:2224,0
DA:2225,0
DA:2227,0
DA:2228,0
DA:2230,0
DA:2233,0
DA:2237,0
DA:2187,0
DA:2191,0
DA:2195,0
DA:2197,0
DA:2198,0
DA:2199,0
DA:2201,0
DA:2203,0
DA:2207,0
DA:2208,0
DA:2209,0
DA:2211,0
DA:2212,0
DA:2214,0
DA:2217,0
DA:2219,0
DA:2223,0
DA:2224,0
DA:2225,0
DA:2227,0
DA:2228,0
DA:2230,0
DA:2233,0
DA:2237,0
DA:2187,0
DA:2191,0
DA:2195,0
DA:2197,0
DA:2198,0
DA:2199,0
DA:2201,0
DA:2203,0
DA:2207,0
DA:2208,0
DA:2209,0
DA:2211,0
DA:2212,0
DA:2214,0
DA:2217,0
DA:2219,0
DA:2223,0
DA:2224,0
DA:2225,0
DA:2227,0
DA:2228,0
DA:2230,0
DA:2233,0
DA:2237,0
DA:2187,0
DA:2191,0
DA:2195,0
DA:2197,0
DA:2198,0
DA:2199,0
DA:2201,0
DA:2203,0
DA:2207,0
DA:2208,0
DA:2209,0
DA:2211,0
DA:2212,0
DA:2214,0
DA:2217,0
DA:2219,0
DA:2223,0
DA:2224,0
DA:2225,0
DA:2227,0
DA:2228,0
DA:2230,0
DA:2233,0
DA:2237,0
DA:2187,0
DA:2191,0
DA:2195,0
DA:2197,0
DA:2198,0
DA:2199,0
DA:2201,0
DA:2203,0
DA:2207,0
DA:2208,0
DA:2209,0
DA:2211,0
DA:2212,0
DA:2214,0
DA:2217,0
DA:2219,0
DA:2223,0
DA:2224,0
DA:2225,0
DA:2227,0
DA:2228,0
DA:2230,0
DA:2233,0
DA:2237,0
DA:2248,98
DA:2257,98
DA:2260,98
DA:2263,98
DA:2264,0
DA:2354,0
DA:2357,0
DA:2358,0
DA:2361,0
DA:2362,0
DA:2363,0
DA:2364,0
DA:2354,0
DA:2357,0
DA:2358,0
DA:2361,0
DA:2362,0
DA:2363,0
DA:2364,0
DA:2354,0
DA:2357,0
DA:2358,0
DA:2361,0
DA:2362,0
DA:2363,0
DA:2364,0
DA:2354,0
DA:2357,0
DA:2358,0
DA:2361,0
DA:2362,0
DA:2363,0
DA:2364,0
DA:2452,0
DA:2459,0
DA:2461,0
DA:2462,0
DA:2464,0
DA:2465,0
DA:2452,0
DA:2459,0
DA:2461,0
DA:2462,0
DA:2464,0
DA:2465,0
DA:2452,0
DA:2459,0
DA:2461,0
DA:2462,0
DA:2465,0
DA:2452,0
DA:2459,0
DA:2461,0
DA:2462,0
DA:2464,0
DA:2465,0
DA:2504,0
DA:2509,0
DA:2510,0
DA:2511,0
DA:2512,0
DA:2513,0
DA:2554,0
DA:2557,0
DA:2559,0
DA:2560,0
DA:2554,0
DA:2557,0
DA:2559,0
DA:2560,0
DA:2567,0
DA:2570,0
DA:2572,0
DA:2573,0
LF:346
LH:18
end_of_record
SF:/usr/share/miniconda/envs/moose/libmesh/include/libmesh/parameters.h
FN:132,_ZN7libMesh10Parameters14set_attributesERKNSt7__cxx1112basic_stringIcSt11char_traitsIcESaIcEEEb
FNDA:0,_ZN7libMesh10Parameters14set_attributesERKNSt7__cxx1112basic_stringIcSt11char_traitsIcESaIcEEEb
FN:285,_ZNK7libMesh10Parameters9ParameterIbE4typeB5cxx11Ev
FNDA:0,_ZNK7libMesh10Parameters9ParameterIbE4typeB5cxx11Ev
FN:293,_ZNK7libMesh10Parameters9ParameterIbE5printERSo
FNDA:0,_ZNK7libMesh10Parameters9ParameterIbE5printERSo
FN:301,_ZNK7libMesh10Parameters9ParameterIbE5cloneEv
FNDA:0,_ZNK7libMesh10Parameters9ParameterIbE5cloneEv
FN:316,_ZN7libMesh10Parameters5clearEv
FNDA:0,_ZN7libMesh10Parameters5clearEv
FN:332,_ZN7libMesh10ParametersaSERKS0_
FNDA:0,_ZN7libMesh10ParametersaSERKS0_
FN:341,_ZN7libMesh10ParameterspLERKS0_
FNDA:0,_ZN7libMesh10ParameterspLERKS0_
FN:362,_ZN7libMesh10ParametersD0Ev
FNDA:0,_ZN7libMesh10ParametersD0Ev
FN:362,_ZN7libMesh10ParametersD2Ev
FNDA:0,_ZN7libMesh10ParametersD2Ev
FN:405,_ZNK7libMesh10Parameters14have_parameterIbEEbRKNSt7__cxx1112basic_stringIcSt11char_traitsIcESaIcEEE
FNDA:0,_ZNK7libMesh10Parameters14have_parameterIbEEbRKNSt7__cxx1112basic_stringIcSt11char_traitsIcESaIcEEE
FNF:10
FNH:0
DA:132,0
DA:200,0
DA:212,0
DA:285,0
DA:287,0
DA:293,0
DA:296,0
DA:297,0
DA:301,0
DA:303,0
DA:307,0
DA:309,0
DA:316,0
DA:318,0
DA:322,0
DA:323,0
DA:327,0
DA:332,0
DA:334,0
DA:335,0
DA:337,0
DA:341,0
DA:343,0
DA:345,0
DA:346,0
DA:347,0
DA:350,0
DA:362,0
DA:364,0
DA:365,0
DA:362,0
DA:364,0
DA:365,0
DA:362,0
DA:364,0
DA:405,0
DA:409,0
DA:411,0
DA:415,0
DA:535,0
LF:40
LH:0
end_of_record
SF:/usr/share/miniconda/envs/moose/x86_64-conda-linux-gnu/include/c++/9.3.0/bits/hashtable.h
FN:1348,_ZNSt10_HashtableINSt7__cxx1112basic_stringIcSt11char_traitsIcESaIcEEESt4pairIKS5_S5_ESaIS8_ENSt8__detail10_Select1stESt8equal_toIS5_ESt4hashIS5_ENSA_18_Mod_range_hashingENSA_20_Default_ranged_hashENSA_20_Prime_rehash_policyENSA_17_Hashtable_traitsILb1ELb0ELb1EEEED2Ev
FNDA:0,_ZNSt10_HashtableINSt7__cxx1112basic_stringIcSt11char_traitsIcESaIcEEESt4pairIKS5_S5_ESaIS8_ENSt8__detail10_Select1stESt8equal_toIS5_ESt4hashIS5_ENSA_18_Mod_range_hashingENSA_20_Default_ranged_hashENSA_20_Prime_rehash_policyENSA_17_Hashtable_traitsILb1ELb0ELb1EEEED2Ev
FN:2024,_ZNSt10_HashtableINSt7__cxx1112basic_stringIcSt11char_traitsIcESaIcEEESt4pairIKS5_S5_ESaIS8_ENSt8__detail10_Select1stESt8equal_toIS5_ESt4hashIS5_ENSA_18_Mod_range_hashingENSA_20_Default_ranged_hashENSA_20_Prime_rehash_policyENSA_17_Hashtable_traitsILb1ELb0ELb1EEEE5clearEv
FNDA:0,_ZNSt10_HashtableINSt7__cxx1112basic_stringIcSt11char_traitsIcESaIcEEESt4pairIKS5_S5_ESaIS8_ENSt8__detail10_Select1stESt8equal_toIS5_ESt4hashIS5_ENSA_18_Mod_range_hashingENSA_20_Default_ranged_hashENSA_20_Prime_rehash_policyENSA_17_Hashtable_traitsILb1ELb0ELb1EEEE5clearEv
FNF:2
FNH:0
DA:343,0
DA:367,0
DA:375,0
DA:1348,0
DA:1352,0
DA:1354,0
DA:2024,0
DA:2028,0
DA:2029,0
DA:2030,0
DA:2031,0
DA:2032,0
LF:12
LH:0
end_of_record
SF:/usr/share/miniconda/envs/moose/x86_64-conda-linux-gnu/include/c++/9.3.0/bits/hashtable_policy.h
DA:2149,0
LF:1
LH:0
end_of_record
SF:/usr/share/miniconda/envs/moose/x86_64-conda-linux-gnu/include/c++/9.3.0/bits/stl_iterator_base_funcs.h
DA:104,0
LF:1
LH:0
end_of_record
SF:/home/runner/work/raccoon/raccoon/moose/framework/build/header_symlinks/MooseTypes.h
LF:0
LH:0
end_of_record
SF:/usr/share/miniconda/envs/moose/x86_64-conda-linux-gnu/include/c++/9.3.0/sstream
DA:678,0
LF:1
LH:0
end_of_record
SF:/usr/share/miniconda/envs/moose/x86_64-conda-linux-gnu/include/c++/9.3.0/bits/unordered_map.h
DA:102,0
LF:1
LH:0
end_of_record
SF:/usr/share/miniconda/envs/moose/x86_64-conda-linux-gnu/include/c++/9.3.0/bits/alloc_traits.h
DA:470,0
DA:484,0
LF:2
LH:0
end_of_record
SF:/usr/share/miniconda/envs/moose/x86_64-conda-linux-gnu/include/c++/9.3.0/bits/basic_string.h
FN:525,_ZNSt7__cxx1112basic_stringIcSt11char_traitsIcESaIcEEC2IS3_EEPKcRKS3_
FNDA:196,_ZNSt7__cxx1112basic_stringIcSt11char_traitsIcESaIcEEC2IS3_EEPKcRKS3_
FNF:1
FNH:1
DA:156,196
DA:157,196
DA:159,0
DA:160,0
DA:179,0
DA:183,0
DA:193,196
DA:203,98
DA:211,0
DA:217,0
DA:222,196
DA:231,196
DA:237,98
DA:247,196
DA:348,0
DA:349,0
DA:448,0
DA:451,0
DA:525,196
DA:527,196
DA:658,98
DA:2313,0
DA:2555,0
DA:2639,0
DA:6229,0
DA:6421,0
LF:26
LH:11
end_of_record
SF:/usr/share/miniconda/envs/moose/x86_64-conda-linux-gnu/include/c++/9.3.0/tuple
FN:1670,_ZNSt4pairIKNSt7__cxx1112basic_stringIcSt11char_traitsIcESaIcEEEN15InputParameters8MetadataEEC2IJRS6_EJLm0EEJEJEEERSt5tupleIJDpT_EERSC_IJDpT1_EESt12_Index_tupleIJXspT0_EEESL_IJXspT2_EEE
FNDA:0,_ZNSt4pairIKNSt7__cxx1112basic_stringIcSt11char_traitsIcESaIcEEEN15InputParameters8MetadataEEC2IJRS6_EJLm0EEJEJEEERSt5tupleIJDpT_EERSC_IJDpT1_EESt12_Index_tupleIJXspT0_EEESL_IJXspT2_EEE
FNF:1
FNH:0
DA:125,0
DA:126,0
DA:334,0
DA:523,0
DA:1658,0
DA:1663,0
DA:1670,0
DA:1674,0
DA:1675,0
LF:9
LH:0
end_of_record
SF:/home/runner/work/raccoon/raccoon/build/header_symlinks/raccoonApp.h
LF:0
LH:0
end_of_record
SF:/usr/share/miniconda/envs/moose/libmesh/include/timpi/message_tag.h
LF:0
LH:0
end_of_record
SF:/usr/share/miniconda/envs/moose/x86_64-conda-linux-gnu/include/c++/9.3.0/bits/stl_pair.h
LF:0
LH:0
end_of_record
SF:/usr/share/miniconda/envs/moose/x86_64-conda-linux-gnu/include/c++/9.3.0/bits/char_traits.h
DA:300,0
DA:335,196
DA:363,0
DA:365,0
LF:4
LH:1
end_of_record
SF:/usr/share/miniconda/envs/moose/x86_64-conda-linux-gnu/include/c++/9.3.0/bits/shared_ptr.h
DA:359,0
DA:718,0
LF:2
LH:0
end_of_record
SF:/home/runner/work/raccoon/raccoon/moose/framework/contrib/hit/parse.h
LF:0
LH:0
end_of_record
SF:/home/runner/work/raccoon/raccoon/moose/framework/build/header_symlinks/AppFactory.h
FN:49,_Z8buildAppI10raccoonAppESt10shared_ptrI8MooseAppERK15InputParameters
FNDA:0,_Z8buildAppI10raccoonAppESt10shared_ptrI8MooseAppERK15InputParameters
FN:81,_ZN10AppFactory3regI10raccoonAppEEvRKNSt7__cxx1112basic_stringIcSt11char_traitsIcESaIcEEE
FNDA:0,_ZN10AppFactory3regI10raccoonAppEEvRKNSt7__cxx1112basic_stringIcSt11char_traitsIcESaIcEEE
FNF:2
FNH:0
DA:49,0
DA:51,0
DA:81,0
DA:83,0
DA:85,0
DA:86,0
DA:88,0
LF:7
LH:0
end_of_record
SF:/home/runner/work/raccoon/raccoon/moose/framework/build/header_symlinks/InputParameters.h
FN:59,_ZN15InputParametersD0Ev
FNDA:0,_ZN15InputParametersD0Ev
FN:59,_ZN15InputParametersD2Ev
FNDA:0,_ZN15InputParametersD2Ev
FN:1024,_ZN15InputParameters3setIbEERT_RKNSt7__cxx1112basic_stringIcSt11char_traitsIcESaIcEEEb
FNDA:0,_ZN15InputParameters3setIbEERT_RKNSt7__cxx1112basic_stringIcSt11char_traitsIcESaIcEEEb
FN:1398,_ZNK15InputParameters19checkConsistentTypeIbEEvRKNSt7__cxx1112basic_stringIcSt11char_traitsIcESaIcEEE
FNDA:0,_ZNK15InputParameters19checkConsistentTypeIbEEvRKNSt7__cxx1112basic_stringIcSt11char_traitsIcESaIcEEE
FNF:4
FNH:0
DA:59,0
DA:59,0
DA:1024,0
DA:1026,0
DA:1027,0
DA:1029,0
DA:1030,0
DA:1032,0
DA:1034,0
DA:1035,0
DA:1039,0
DA:1398,0
DA:1402,0
DA:1403,0
DA:1408,0
DA:1410,0
DA:1639,0
LF:17
LH:0
end_of_record
SF:/usr/share/miniconda/envs/moose/x86_64-conda-linux-gnu/include/c++/9.3.0/bits/shared_ptr_base.h
FN:552,_ZNSt23_Sp_counted_ptr_inplaceI10raccoonAppSaIS0_ELN9__gnu_cxx12_Lock_policyE2EED0Ev
FNDA:0,_ZNSt23_Sp_counted_ptr_inplaceI10raccoonAppSaIS0_ELN9__gnu_cxx12_Lock_policyE2EED0Ev
FN:552,_ZNSt23_Sp_counted_ptr_inplaceI10raccoonAppSaIS0_ELN9__gnu_cxx12_Lock_policyE2EED2Ev
FNDA:0,_ZNSt23_Sp_counted_ptr_inplaceI10raccoonAppSaIS0_ELN9__gnu_cxx12_Lock_policyE2EED2Ev
FN:555,_ZNSt23_Sp_counted_ptr_inplaceI10raccoonAppSaIS0_ELN9__gnu_cxx12_Lock_policyE2EE10_M_disposeEv
FNDA:0,_ZNSt23_Sp_counted_ptr_inplaceI10raccoonAppSaIS0_ELN9__gnu_cxx12_Lock_policyE2EE10_M_disposeEv
FN:562,_ZNSt23_Sp_counted_ptr_inplaceI10raccoonAppSaIS0_ELN9__gnu_cxx12_Lock_policyE2EE10_M_destroyEv
FNDA:0,_ZNSt23_Sp_counted_ptr_inplaceI10raccoonAppSaIS0_ELN9__gnu_cxx12_Lock_policyE2EE10_M_destroyEv
FN:575,_ZNSt23_Sp_counted_ptr_inplaceI10raccoonAppSaIS0_ELN9__gnu_cxx12_Lock_policyE2EE14_M_get_deleterERKSt9type_info
FNDA:0,_ZNSt23_Sp_counted_ptr_inplaceI10raccoonAppSaIS0_ELN9__gnu_cxx12_Lock_policyE2EE14_M_get_deleterERKSt9type_info
FN:672,_ZNSt14__shared_countILN9__gnu_cxx12_Lock_policyE2EEC2I10raccoonAppSaIS4_EJRK15InputParametersEEERPT_St20_Sp_alloc_shared_tagIT0_EDpOT1_
FNDA:0,_ZNSt14__shared_countILN9__gnu_cxx12_Lock_policyE2EEC2I10raccoonAppSaIS4_EJRK15InputParametersEEERPT_St20_Sp_alloc_shared_tagIT0_EDpOT1_
FNF:6
FNH:0
DA:117,0
DA:118,0
DA:531,0
DA:543,0
DA:544,0
DA:550,0
DA:552,0
DA:552,0
DA:552,0
DA:555,0
DA:558,0
DA:562,0
DA:567,0
DA:575,0
DA:583,0
DA:585,0
DA:590,0
DA:672,0
DA:682,0
DA:683,0
DA:684,0
DA:758,0
DA:760,0
DA:1185,0
DA:1344,0
LF:25
LH:0
end_of_record
SF:/usr/share/miniconda/envs/moose/x86_64-conda-linux-gnu/include/c++/9.3.0/ostream
DA:175,0
LF:1
LH:0
end_of_record
SF:/home/runner/work/raccoon/raccoon/moose/framework/build/header_symlinks/MooseError.h
FN:154,_ZN5moose8internal14mooseStreamAllINSt7__cxx1112basic_stringIcSt11char_traitsIcESaIcEEEJRA2_KcEEEvRNS2_19basic_ostringstreamIcS5_S6_EEOT_DpOT0_
FNDA:0,_ZN5moose8internal14mooseStreamAllINSt7__cxx1112basic_stringIcSt11char_traitsIcESaIcEEEJRA2_KcEEEvRNS2_19basic_ostringstreamIcS5_S6_EEOT_DpOT0_
FN:154,_ZN5moose8internal14mooseStreamAllINSt7__cxx1112basic_stringIcSt11char_traitsIcESaIcEEEJRA45_KcS7_RA2_S8_EEEvRNS2_19basic_ostringstreamIcS5_S6_EEOT_DpOT0_
FNDA:0,_ZN5moose8internal14mooseStreamAllINSt7__cxx1112basic_stringIcSt11char_traitsIcESaIcEEEJRA45_KcS7_RA2_S8_EEEvRNS2_19basic_ostringstreamIcS5_S6_EEOT_DpOT0_
FN:154,_ZN5moose8internal14mooseStreamAllIRKNSt7__cxx1112basic_stringIcSt11char_traitsIcESaIcEEEJRA14_KcS7_RA45_SA_S7_RA2_SA_EEEvRNS2_19basic_ostringstreamIcS5_S6_EEOT_DpOT0_
FNDA:0,_ZN5moose8internal14mooseStreamAllIRKNSt7__cxx1112basic_stringIcSt11char_traitsIcESaIcEEEJRA14_KcS7_RA45_SA_S7_RA2_SA_EEEvRNS2_19basic_ostringstreamIcS5_S6_EEOT_DpOT0_
FN:236,_Z10mooseErrorIJRA30_KcRKNSt7__cxx1112basic_stringIcSt11char_traitsIcESaIcEEERA14_S0_S8_RA45_S0_S8_RA2_S0_EEvDpOT_
FNDA:0,_Z10mooseErrorIJRA30_KcRKNSt7__cxx1112basic_stringIcSt11char_traitsIcESaIcEEERA14_S0_S8_RA45_S0_S8_RA2_S0_EEvDpOT_
FNF:4
FNH:0
DA:154,0
DA:156,0
DA:157,0
DA:158,0
DA:154,0
DA:156,0
DA:157,0
DA:158,0
DA:154,0
DA:156,0
DA:157,0
DA:158,0
DA:156,0
DA:157,0
DA:158,0
DA:236,0
DA:238,0
DA:240,0
LF:18
LH:0
end_of_record
SF:/usr/share/miniconda/envs/moose/libmesh/include/libmesh/reference_counted_object.h
DA:75,0
LF:1
LH:0
end_of_record
SF:/usr/share/miniconda/envs/moose/libmesh/include/libmesh/threads_pthread.h
DA:149,0
DA:150,0
DA:527,0
DA:541,0
LF:4
LH:0
end_of_record
SF:/usr/share/miniconda/envs/moose/x86_64-conda-linux-gnu/include/c++/9.3.0/bits/std_function.h
LF:0
LH:0
end_of_record
SF:/usr/share/miniconda/envs/moose/x86_64-conda-linux-gnu/include/c++/9.3.0/bits/stl_function.h
DA:1156,0
LF:1
LH:0
end_of_record
SF:/home/runner/work/raccoon/raccoon/moose/framework/build/header_symlinks/MooseEnumItem.h
FN:23,_ZN13MooseEnumItemD2Ev
FNDA:0,_ZN13MooseEnumItemD2Ev
FNF:1
FNH:0
DA:23,0
LF:1
LH:0
end_of_record
SF:/usr/share/miniconda/envs/moose/libmesh/include/libmesh/reference_counter.h
FN:150,_ZN7libMesh16ReferenceCounterC2Ev
FNDA:0,_ZN7libMesh16ReferenceCounterC2Ev
FN:171,_ZN7libMesh16ReferenceCounterD2Ev
FNDA:0,_ZN7libMesh16ReferenceCounterD2Ev
FNF:2
FNH:0
DA:150,0
DA:153,0
DA:171,0
DA:174,0
LF:4
LH:0
end_of_record
SF:/usr/share/miniconda/envs/moose/x86_64-conda-linux-gnu/include/c++/9.3.0/initializer_list
DA:79,98
LF:1
LH:1
end_of_record
SF:/usr/share/miniconda/envs/moose/x86_64-conda-linux-gnu/include/c++/9.3.0/typeinfo
DA:100,0
DA:123,0
DA:124,0
LF:3
LH:0
end_of_record
SF:/home/runner/work/raccoon/raccoon/moose/framework/build/header_symlinks/Registry.h
FN:137,_ZN5moose8internal15callValidParamsI10raccoonAppEEDTcmcl20callValidParamsInnerIT_ELi0EEclL_Z20emptyInputParametersvEEEv
FNDA:0,_ZN5moose8internal15callValidParamsI10raccoonAppEEDTcmcl20callValidParamsInnerIT_ELi0EEclL_Z20emptyInputParametersvEEEv
FNF:1
FNH:0
DA:137,0
DA:139,0
LF:2
LH:0
end_of_record
SF:/usr/share/miniconda/envs/moose/x86_64-conda-linux-gnu/include/c++/9.3.0/bits/stl_vector.h
FN:622,_ZNSt6vectorIdSaIdEEC2ESt16initializer_listIdERKS0_
FNDA:0,_ZNSt6vectorIdSaIdEEC2ESt16initializer_listIdERKS0_
FN:675,_ZNSt6vectorISt5tupleIJNSt7__cxx1112basic_stringIcSt11char_traitsIcESaIcEEEN5Moose23RelationshipManagerTypeESt8functionIFvRK15InputParametersRSA_EEEESaISG_EED2Ev
FNDA:0,_ZNSt6vectorISt5tupleIJNSt7__cxx1112basic_stringIcSt11char_traitsIcESaIcEEEN5Moose23RelationshipManagerTypeESt8functionIFvRK15InputParametersRSA_EEEESaISG_EED2Ev
FN:675,_ZNSt6vectorINSt7__cxx1112basic_stringIcSt11char_traitsIcESaIcEEESaIS5_EED2Ev
FNDA:0,_ZNSt6vectorINSt7__cxx1112basic_stringIcSt11char_traitsIcESaIcEEESaIS5_EED2Ev
FNF:3
FNH:0
DA:94,0
DA:95,0
DA:333,0
DA:334,0
DA:350,0
DA:622,0
DA:626,0
DA:628,0
DA:675,0
DA:677,0
DA:680,0
DA:675,0
DA:677,0
DA:680,0
LF:14
LH:0
end_of_record
SF:/usr/share/miniconda/envs/moose/x86_64-conda-linux-gnu/include/c++/9.3.0/bits/stl_construct.h
DA:107,0
LF:1
LH:0
end_of_record
SF:/usr/share/miniconda/envs/moose/x86_64-conda-linux-gnu/include/c++/9.3.0/bits/basic_string.tcc
FN:206,_ZNSt7__cxx1112basic_stringIcSt11char_traitsIcESaIcEE12_M_constructIPcEEvT_S7_St20forward_iterator_tag
FNDA:0,_ZNSt7__cxx1112basic_stringIcSt11char_traitsIcESaIcEE12_M_constructIPcEEvT_S7_St20forward_iterator_tag
FN:206,_ZNSt7__cxx1112basic_stringIcSt11char_traitsIcESaIcEE12_M_constructIPKcEEvT_S8_St20forward_iterator_tag
FNDA:0,_ZNSt7__cxx1112basic_stringIcSt11char_traitsIcESaIcEE12_M_constructIPKcEEvT_S8_St20forward_iterator_tag
FNF:2
FNH:0
DA:206,0
DA:211,0
DA:212,0
DA:215,0
DA:217,0
DA:219,0
DA:220,0
DA:225,0
DA:232,0
DA:233,0
DA:206,0
DA:211,0
DA:212,0
DA:215,0
DA:217,0
DA:219,0
DA:220,0
DA:225,0
DA:232,0
DA:233,0
LF:20
LH:0
end_of_record
SF:/home/runner/work/raccoon/raccoon/src/base/raccoonApp.C
FN:13,_ZN10raccoonApp11validParamsEv
FNDA:49,_ZN10raccoonApp11validParamsEv
FN:23,_ZN10raccoonAppC2E15InputParameters
FNDA:0,_ZN10raccoonAppC2E15InputParameters
FN:28,_ZN10raccoonAppD0Ev
FNDA:0,_ZN10raccoonAppD0Ev
FN:28,_ZN10raccoonAppD2Ev
FNDA:0,_ZN10raccoonAppD2Ev
FN:36,_ZN10raccoonApp11registerAllER7FactoryR13ActionFactoryR6Syntax
FNDA:49,_ZN10raccoonApp11registerAllER7FactoryR13ActionFactoryR6Syntax
FN:46,_ZN10raccoonApp12registerAppsEv
FNDA:0,_ZN10raccoonApp12registerAppsEv
FN:55,raccoonApp__registerAll
FNDA:0,raccoonApp__registerAll
FN:60,raccoonApp__registerApps
FNDA:0,raccoonApp__registerApps
FNF:8
FNH:2
DA:13,49
DA:15,49
DA:16,49
DA:19,49
DA:20,49
DA:23,0
DA:25,0
DA:26,0
DA:28,0
DA:28,0
DA:36,49
DA:38,49
DA:39,147
DA:40,147
DA:42,49
DA:43,49
DA:46,0
DA:48,0
DA:49,0
DA:55,0
DA:57,0
DA:58,0
DA:60,0
DA:62,0
DA:63,0
LF:25
LH:11
end_of_record
SF:/usr/share/miniconda/envs/moose/x86_64-conda-linux-gnu/include/c++/9.3.0/bits/stl_map.h
FN:490,_ZNSt3mapINSt7__cxx1112basic_stringIcSt11char_traitsIcESaIcEEEPF15InputParametersvESt4lessIS5_ESaISt4pairIKS5_S8_EEEixERSC_
FNDA:0,_ZNSt3mapINSt7__cxx1112basic_stringIcSt11char_traitsIcESaIcEEEPF15InputParametersvESt4lessIS5_ESaISt4pairIKS5_S8_EEEixERSC_
FN:490,_ZNSt3mapINSt7__cxx1112basic_stringIcSt11char_traitsIcESaIcEEEPFSt10shared_ptrI8MooseAppERK15InputParametersESt4lessIS5_ESaISt4pairIKS5_SD_EEEixERSH_
FNDA:0,_ZNSt3mapINSt7__cxx1112basic_stringIcSt11char_traitsIcESaIcEEEPFSt10shared_ptrI8MooseAppERK15InputParametersESt4lessIS5_ESaISt4pairIKS5_SD_EEEixERSH_
FN:490,_ZNSt3mapINSt7__cxx1112basic_stringIcSt11char_traitsIcESaIcEEEN15InputParameters8MetadataESt4lessIS5_ESaISt4pairIKS5_S7_EEEixERSB_
FNDA:0,_ZNSt3mapINSt7__cxx1112basic_stringIcSt11char_traitsIcESaIcEEEN15InputParameters8MetadataESt4lessIS5_ESaISt4pairIKS5_S7_EEEixERSB_
FN:490,_ZNSt3mapINSt7__cxx1112basic_stringIcSt11char_traitsIcESaIcEEEPN7libMesh10Parameters5ValueESt4lessIS5_ESaISt4pairIKS5_S9_EEEixERSD_
FNDA:0,_ZNSt3mapINSt7__cxx1112basic_stringIcSt11char_traitsIcESaIcEEEPN7libMesh10Parameters5ValueESt4lessIS5_ESaISt4pairIKS5_S9_EEEixERSD_
FNF:4
FNH:0
DA:300,0
DA:355,0
DA:364,0
DA:464,0
DA:490,0
DA:497,0
DA:499,0
DA:505,0
DA:490,0
DA:497,0
DA:499,0
DA:505,0
DA:490,0
DA:497,0
DA:499,0
DA:505,0
DA:490,0
DA:497,0
DA:499,0
DA:505,0
DA:1037,0
DA:1169,0
DA:1194,0
DA:1258,0
LF:24
LH:0
end_of_record
SF:/usr/share/miniconda/envs/moose/x86_64-conda-linux-gnu/include/c++/9.3.0/iostream
LF:0
LH:0
end_of_record
SF:/usr/share/miniconda/envs/moose/x86_64-conda-linux-gnu/include/c++/9.3.0/ext/aligned_buffer.h
DA:65,0
DA:69,0
DA:104,0
LF:3
LH:0
end_of_record
SF:/home/runner/work/raccoon/raccoon/moose/framework/build/header_symlinks/MooseApp.h
FN:91,_ZNK8MooseApp16getPrintableNameB5cxx11Ev
FNDA:0,_ZNK8MooseApp16getPrintableNameB5cxx11Ev
FN:93,_ZNK8MooseApp13appBinaryNameB5cxx11Ev
FNDA:0,_ZNK8MooseApp13appBinaryNameB5cxx11Ev
FN:831,_ZNK8MooseApp34errorOnJacobianNonzeroReallocationEv
FNDA:0,_ZNK8MooseApp34errorOnJacobianNonzeroReallocationEv
FNF:3
FNH:0
DA:91,0
DA:93,0
DA:95,0
DA:96,0
DA:97,0
DA:98,0
DA:99,0
DA:831,0
LF:8
LH:0
end_of_record
SF:/usr/share/miniconda/envs/moose/x86_64-conda-linux-gnu/include/c++/9.3.0/streambuf
LF:0
LH:0
end_of_record
SF:/usr/share/miniconda/envs/moose/x86_64-conda-linux-gnu/include/c++/9.3.0/ext/new_allocator.h
DA:114,0
DA:128,98
DA:147,0
DA:153,0
LF:4
LH:1
end_of_record
SF:/usr/share/miniconda/envs/moose/x86_64-conda-linux-gnu/include/c++/9.3.0/bits/stl_algobase.h
LF:0
LH:0
end_of_record
SF:/usr/share/miniconda/envs/moose/x86_64-conda-linux-gnu/include/c++/9.3.0/bits/stl_set.h
FN:243,_ZNSt3setINSt7__cxx1112basic_stringIcSt11char_traitsIcESaIcEEESt4lessIS5_ESaIS5_EEC2ESt16initializer_listIS5_ERKS7_RKS8_
FNDA:98,_ZNSt3setINSt7__cxx1112basic_stringIcSt11char_traitsIcESaIcEEESt4lessIS5_ESaIS5_EEC2ESt16initializer_listIS5_ERKS7_RKS8_
FN:281,_ZNSt3setIsSt4lessIsESaIsEED2Ev
FNDA:0,_ZNSt3setIsSt4lessIsESaIsEED2Ev
FN:281,_ZNSt3setItSt4lessItESaItEED2Ev
FNDA:0,_ZNSt3setItSt4lessItESaItEED2Ev
FNF:3
FNH:1
DA:243,98
DA:246,98
DA:247,98
DA:281,0
DA:281,0
DA:281,0
LF:6
LH:3
end_of_record
TN:
SF:/usr/share/miniconda/envs/moose/x86_64-conda-linux-gnu/include/c++/9.3.0/bits/char_traits.h
DA:300,0
DA:335,32
DA:363,32
DA:365,32
LF:4
LH:3
end_of_record
SF:/usr/share/miniconda/envs/moose/x86_64-conda-linux-gnu/include/c++/9.3.0/bits/basic_string.h
FN:525,_ZNSt7__cxx1112basic_stringIcSt11char_traitsIcESaIcEEC2IS3_EEPKcRKS3_
FNDA:32,_ZNSt7__cxx1112basic_stringIcSt11char_traitsIcESaIcEEC2IS3_EEPKcRKS3_
FNF:1
FNH:1
DA:156,32
DA:157,32
DA:179,0
DA:183,32
DA:193,32
DA:203,0
DA:211,0
DA:217,32
DA:222,0
DA:231,0
DA:237,0
DA:247,32
DA:348,32
DA:349,0
DA:525,32
DA:527,32
DA:658,0
LF:17
LH:9
end_of_record
SF:/usr/share/miniconda/envs/moose/x86_64-conda-linux-gnu/include/c++/9.3.0/bits/stl_iterator_base_funcs.h
DA:104,32
LF:1
LH:1
end_of_record
SF:/usr/share/miniconda/envs/moose/x86_64-conda-linux-gnu/include/c++/9.3.0/ext/new_allocator.h
DA:128,0
LF:1
LH:0
end_of_record
SF:/usr/share/miniconda/envs/moose/x86_64-conda-linux-gnu/include/c++/9.3.0/iostream
LF:0
LH:0
end_of_record
SF:/usr/share/miniconda/envs/moose/x86_64-conda-linux-gnu/include/c++/9.3.0/bits/basic_string.tcc
FN:206,_ZNSt7__cxx1112basic_stringIcSt11char_traitsIcESaIcEE12_M_constructIPKcEEvT_S8_St20forward_iterator_tag
FNDA:32,_ZNSt7__cxx1112basic_stringIcSt11char_traitsIcESaIcEE12_M_constructIPKcEEvT_S8_St20forward_iterator_tag
FNF:1
FNH:1
DA:206,32
DA:211,32
DA:212,0
DA:215,32
DA:217,32
DA:219,0
DA:220,0
DA:225,32
DA:232,32
DA:233,32
LF:10
LH:7
end_of_record
SF:/home/runner/work/raccoon/raccoon/src/base/raccoonAppTypes.C
LF:0
LH:0
end_of_record
SF:/home/runner/work/raccoon/raccoon/moose/framework/build/header_symlinks/MooseEnumItem.h
FN:23,_ZN13MooseEnumItemD2Ev
FNDA:0,_ZN13MooseEnumItemD2Ev
FNF:1
FNH:0
DA:23,0
LF:1
LH:0
end_of_record
TN:
SF:/usr/share/miniconda/envs/moose/x86_64-conda-linux-gnu/include/c++/9.3.0/bits/unordered_map.h
DA:102,0
LF:1
LH:0
end_of_record
SF:/usr/share/miniconda/envs/moose/x86_64-conda-linux-gnu/include/c++/9.3.0/sstream
DA:678,0
DA:832,0
LF:2
LH:0
end_of_record
SF:/usr/share/miniconda/envs/moose/x86_64-conda-linux-gnu/include/c++/9.3.0/bits/hashtable_policy.h
DA:2149,0
LF:1
LH:0
end_of_record
SF:/home/runner/work/raccoon/raccoon/moose/framework/build/header_symlinks/MeshChangedInterface.h
FN:39,_ZN20MeshChangedInterface11meshChangedEv
FNDA:0,_ZN20MeshChangedInterface11meshChangedEv
FNF:1
FNH:0
DA:39,0
LF:1
LH:0
end_of_record
SF:/usr/share/miniconda/envs/moose/x86_64-conda-linux-gnu/include/c++/9.3.0/bits/stl_iterator_base_funcs.h
DA:104,0
LF:1
LH:0
end_of_record
SF:/usr/share/miniconda/envs/moose/libmesh/include/Eigen/src/Core/Matrix.h
LF:0
LH:0
end_of_record
SF:/home/runner/work/raccoon/raccoon/src/materials/hardening_models/LinearHardening.C
FN:11,_ZN15LinearHardening11validParamsEv
FNDA:102,_ZN15LinearHardening11validParamsEv
FN:30,_ZN15LinearHardeningC2ERK15InputParameters
FNDA:3,_ZN15LinearHardeningC2ERK15InputParameters
FN:52,_ZN15LinearHardening13plasticEnergyERKN11MetaPhysicL10DualNumberIdNS0_28SemiDynamicSparseNumberArrayIdmNS0_8NWrapperILm50EEEEELb1EEEj
FNDA:2928,_ZN15LinearHardening13plasticEnergyERKN11MetaPhysicL10DualNumberIdNS0_28SemiDynamicSparseNumberArrayIdmNS0_8NWrapperILm50EEEEELb1EEEj
FNF:3
FNH:3
DA:11,102
DA:13,102
DA:14,102
DA:16,204
DA:18,204
DA:20,204
DA:21,204
DA:25,204
DA:27,102
DA:30,3
DA:33,6
DA:34,6
DA:36,6
DA:40,3
DA:41,6
DA:42,9
DA:46,3
DA:47,36
DA:49,3
DA:52,2928
DA:54,2928
DA:56,1320
DA:57,1320
DA:58,1320
DA:59,1320
DA:62,1608
DA:63,1512
DA:65,96
DA:66,96
DA:68,0
LF:30
LH:29
end_of_record
SF:/usr/share/miniconda/envs/moose/libmesh/include/libmesh/vector_value.h
DA:149,0
DA:150,0
DA:197,0
DA:198,0
DA:261,0
DA:262,0
LF:6
LH:0
end_of_record
SF:/usr/share/miniconda/envs/moose/x86_64-conda-linux-gnu/include/c++/9.3.0/bits/unique_ptr.h
FN:555,_ZNSt10unique_ptrIA_N11MetaPhysicL10DualNumberIdNS0_28SemiDynamicSparseNumberArrayIdmNS0_8NWrapperILm50EEEEELb1EEESt14default_deleteIS7_EED2Ev
FNDA:0,_ZNSt10unique_ptrIA_N11MetaPhysicL10DualNumberIdNS0_28SemiDynamicSparseNumberArrayIdmNS0_8NWrapperILm50EEEEELb1EEESt14default_deleteIS7_EED2Ev
FN:555,_ZNSt10unique_ptrIA_N7libMesh11TensorValueIdEESt14default_deleteIS3_EED2Ev
FNDA:0,_ZNSt10unique_ptrIA_N7libMesh11TensorValueIdEESt14default_deleteIS3_EED2Ev
FN:555,_ZNSt10unique_ptrIA_N7libMesh11TensorValueIN11MetaPhysicL10DualNumberIdNS2_28SemiDynamicSparseNumberArrayIdmNS2_8NWrapperILm50EEEEELb1EEEEESt14default_deleteISA_EED2Ev
FNDA:0,_ZNSt10unique_ptrIA_N7libMesh11TensorValueIN11MetaPhysicL10DualNumberIdNS2_28SemiDynamicSparseNumberArrayIdmNS2_8NWrapperILm50EEEEELb1EEEEESt14default_deleteISA_EED2Ev
FN:555,_ZNSt10unique_ptrIA_N7libMesh11VectorValueIN11MetaPhysicL10DualNumberIdNS2_28SemiDynamicSparseNumberArrayIdmNS2_8NWrapperILm50EEEEELb1EEEEESt14default_deleteISA_EED2Ev
FNDA:0,_ZNSt10unique_ptrIA_N7libMesh11VectorValueIN11MetaPhysicL10DualNumberIdNS2_28SemiDynamicSparseNumberArrayIdmNS2_8NWrapperILm50EEEEELb1EEEEESt14default_deleteISA_EED2Ev
FN:555,_ZNSt10unique_ptrIA_N7libMesh11VectorValueIdEESt14default_deleteIS3_EED2Ev
FNDA:0,_ZNSt10unique_ptrIA_N7libMesh11VectorValueIdEESt14default_deleteIS3_EED2Ev
FNF:5
FNH:0
DA:81,0
DA:82,0
DA:115,0
DA:116,0
DA:154,0
DA:291,0
DA:292,0
DA:294,0
DA:555,0
DA:558,0
DA:561,0
DA:555,0
DA:558,0
DA:561,0
DA:555,0
DA:558,0
DA:561,0
DA:555,0
DA:558,0
DA:561,0
DA:555,0
DA:558,0
DA:561,0
DA:558,0
DA:671,0
LF:25
LH:0
end_of_record
SF:/usr/share/miniconda/envs/moose/libmesh/include/timpi/message_tag.h
LF:0
LH:0
end_of_record
SF:/usr/share/miniconda/envs/moose/libmesh/include/metaphysicl/dualnumber.h
FN:73,_ZNK11MetaPhysicL10DualNumberIdNS_28SemiDynamicSparseNumberArrayIdmNS_8NWrapperILm50EEEEELb1EEngEv
FNDA:3112,_ZNK11MetaPhysicL10DualNumberIdNS_28SemiDynamicSparseNumberArrayIdmNS_8NWrapperILm50EEEEELb1EEngEv
FN:97,_ZN11MetaPhysicL10DualNumberIdNS_28SemiDynamicSparseNumberArrayIdmNS_8NWrapperILm50EEEEELb1EEaSERKS5_
FNDA:0,_ZN11MetaPhysicL10DualNumberIdNS_28SemiDynamicSparseNumberArrayIdmNS_8NWrapperILm50EEEEELb1EEaSERKS5_
FN:136,_ZN11MetaPhysicL10DualNumberIdNS_28SemiDynamicSparseNumberArrayIdmNS_8NWrapperILm50EEEEELb1EEC2ERKS5_
FNDA:0,_ZN11MetaPhysicL10DualNumberIdNS_28SemiDynamicSparseNumberArrayIdmNS_8NWrapperILm50EEEEELb1EEC2ERKS5_
FN:214,_ZN11MetaPhysicL10DualNumberIdNS_28SemiDynamicSparseNumberArrayIdmNS_8NWrapperILm50EEEEELb1EEC2IiEERKT_NSt9enable_ifIXsrSt14is_convertibleIS7_dE5valueEPvE4typeE
FNDA:499190,_ZN11MetaPhysicL10DualNumberIdNS_28SemiDynamicSparseNumberArrayIdmNS_8NWrapperILm50EEEEELb1EEC2IiEERKT_NSt9enable_ifIXsrSt14is_convertibleIS7_dE5valueEPvE4typeE
FN:214,_ZN11MetaPhysicL10DualNumberIdNS_28SemiDynamicSparseNumberArrayIdmNS_8NWrapperILm50EEEEELb1EEC2IdEERKT_NSt9enable_ifIXsrSt14is_convertibleIS7_dE5valueEPvE4typeE
FNDA:0,_ZN11MetaPhysicL10DualNumberIdNS_28SemiDynamicSparseNumberArrayIdmNS_8NWrapperILm50EEEEELb1EEC2IdEERKT_NSt9enable_ifIXsrSt14is_convertibleIS7_dE5valueEPvE4typeE
FN:224,_ZN11MetaPhysicL10DualNumberIdNS_28SemiDynamicSparseNumberArrayIdmNS_8NWrapperILm50EEEEELb1EEC2IdS4_EERKT_RKT0_
FNDA:302244,_ZN11MetaPhysicL10DualNumberIdNS_28SemiDynamicSparseNumberArrayIdmNS_8NWrapperILm50EEEEELb1EEC2IdS4_EERKT_RKT0_
FN:259,_ZN11MetaPhysicL26derivative_multiply_helperIdNS_28SemiDynamicSparseNumberArrayIdmNS_8NWrapperILm50EEEEELb1EEEvRNS_10DualNumberIT_T0_XT1_EEERKS8_
FNDA:0,_ZN11MetaPhysicL26derivative_multiply_helperIdNS_28SemiDynamicSparseNumberArrayIdmNS_8NWrapperILm50EEEEELb1EEEvRNS_10DualNumberIT_T0_XT1_EEERKS8_
FN:310,_ZN11MetaPhysicL26derivative_division_helperIdNS_28SemiDynamicSparseNumberArrayIdmNS_8NWrapperILm50EEEEELb1EEEvRNS_10DualNumberIT_T0_XT1_EEERKS8_
FNDA:0,_ZN11MetaPhysicL26derivative_division_helperIdNS_28SemiDynamicSparseNumberArrayIdmNS_8NWrapperILm50EEEEELb1EEEvRNS_10DualNumberIT_T0_XT1_EEERKS8_
FN:464,_ZN11MetaPhysicLplIidNS_28SemiDynamicSparseNumberArrayIdmNS_8NWrapperILm50EEEEELb1EEENS_8PlusTypeINS_10DualNumberIT0_T1_XT2_EEET_Lb1EvE9supertypeERKSA_RKS9_
FNDA:499513,_ZN11MetaPhysicLplIidNS_28SemiDynamicSparseNumberArrayIdmNS_8NWrapperILm50EEEEELb1EEENS_8PlusTypeINS_10DualNumberIT0_T1_XT2_EEET_Lb1EvE9supertypeERKSA_RKS9_
FN:464,_ZN11MetaPhysicLplIdNS_28SemiDynamicSparseNumberArrayIdmNS_8NWrapperILm50EEEEEdS4_Lb1EEENS_8PlusTypeINS_10DualNumberIT_T0_XT3_EEENS6_IT1_T2_XT3_EEELb0EvE9supertypeEOS9_RKSC_
FNDA:0,_ZN11MetaPhysicLplIdNS_28SemiDynamicSparseNumberArrayIdmNS_8NWrapperILm50EEEEEdS4_Lb1EEENS_8PlusTypeINS_10DualNumberIT_T0_XT3_EEENS6_IT1_T2_XT3_EEELb0EvE9supertypeEOS9_RKSC_
FN:468,_ZN11MetaPhysicLmlIdNS_28SemiDynamicSparseNumberArrayIdmNS_8NWrapperILm50EEEEEdLb1EEENS_14MultipliesTypeINS_10DualNumberIT_T0_XT2_EEET1_Lb0EvE9supertypeEOS9_RKSA_
FNDA:11384,_ZN11MetaPhysicLmlIdNS_28SemiDynamicSparseNumberArrayIdmNS_8NWrapperILm50EEEEEdLb1EEENS_14MultipliesTypeINS_10DualNumberIT_T0_XT2_EEET1_Lb0EvE9supertypeEOS9_RKSA_
FN:468,_ZN11MetaPhysicLmlIdNS_28SemiDynamicSparseNumberArrayIdmNS_8NWrapperILm50EEEEEdS4_Lb1EEENS_14MultipliesTypeINS_10DualNumberIT_T0_XT3_EEENS6_IT1_T2_XT3_EEELb0EvE9supertypeERKS9_RKSC_
FNDA:0,_ZN11MetaPhysicLmlIdNS_28SemiDynamicSparseNumberArrayIdmNS_8NWrapperILm50EEEEEdS4_Lb1EEENS_14MultipliesTypeINS_10DualNumberIT_T0_XT3_EEENS6_IT1_T2_XT3_EEELb0EvE9supertypeERKS9_RKSC_
FN:468,_ZN11MetaPhysicLmlIdNS_28SemiDynamicSparseNumberArrayIdmNS_8NWrapperILm50EEEEEdS4_Lb1EEENS_14MultipliesTypeINS_10DualNumberIT_T0_XT3_EEENS6_IT1_T2_XT3_EEELb0EvE9supertypeEOS9_RKSC_
FNDA:9336,_ZN11MetaPhysicLmlIdNS_28SemiDynamicSparseNumberArrayIdmNS_8NWrapperILm50EEEEEdS4_Lb1EEENS_14MultipliesTypeINS_10DualNumberIT_T0_XT3_EEENS6_IT1_T2_XT3_EEELb0EvE9supertypeEOS9_RKSC_
FN:468,_ZN11MetaPhysicLmlIddNS_28SemiDynamicSparseNumberArrayIdmNS_8NWrapperILm50EEEEELb1EEENS_14MultipliesTypeINS_10DualNumberIT0_T1_XT2_EEET_Lb1EvE9supertypeERKSA_RKS9_
FNDA:0,_ZN11MetaPhysicLmlIddNS_28SemiDynamicSparseNumberArrayIdmNS_8NWrapperILm50EEEEELb1EEENS_14MultipliesTypeINS_10DualNumberIT0_T1_XT2_EEET_Lb1EvE9supertypeERKSA_RKS9_
FN:473,_ZN11MetaPhysicLdvIidNS_28SemiDynamicSparseNumberArrayIdmNS_8NWrapperILm50EEEEELb1EEENS_11DividesTypeINS_10DualNumberIT0_T1_XT2_EEET_Lb1EvE9supertypeERKSA_RKS9_
FNDA:499513,_ZN11MetaPhysicLdvIidNS_28SemiDynamicSparseNumberArrayIdmNS_8NWrapperILm50EEEEELb1EEENS_11DividesTypeINS_10DualNumberIT0_T1_XT2_EEET_Lb1EvE9supertypeERKSA_RKS9_
FN:473,_ZN11MetaPhysicLdvIdNS_28SemiDynamicSparseNumberArrayIdmNS_8NWrapperILm50EEEEEdLb1EEENS_11DividesTypeINS_10DualNumberIT_T0_XT2_EEET1_Lb0EvE9supertypeERKS9_RKSA_
FNDA:1320,_ZN11MetaPhysicLdvIdNS_28SemiDynamicSparseNumberArrayIdmNS_8NWrapperILm50EEEEEdLb1EEENS_11DividesTypeINS_10DualNumberIT_T0_XT2_EEET1_Lb0EvE9supertypeERKS9_RKSA_
FN:473,_ZN11MetaPhysicLdvIdNS_28SemiDynamicSparseNumberArrayIdmNS_8NWrapperILm50EEEEEdS4_Lb1EEENS_11DividesTypeINS_10DualNumberIT_T0_XT3_EEENS6_IT1_T2_XT3_EEELb0EvE9supertypeERKS9_RKSC_
FNDA:0,_ZN11MetaPhysicLdvIdNS_28SemiDynamicSparseNumberArrayIdmNS_8NWrapperILm50EEEEEdS4_Lb1EEENS_11DividesTypeINS_10DualNumberIT_T0_XT3_EEENS6_IT1_T2_XT3_EEELb0EvE9supertypeERKS9_RKSC_
FN:473,_ZN11MetaPhysicLdvIdNS_28SemiDynamicSparseNumberArrayIdmNS_8NWrapperILm50EEEEEdS4_Lb1EEENS_11DividesTypeINS_10DualNumberIT_T0_XT3_EEENS6_IT1_T2_XT3_EEELb0EvE9supertypeEOS9_RKSC_
FNDA:6224,_ZN11MetaPhysicLdvIdNS_28SemiDynamicSparseNumberArrayIdmNS_8NWrapperILm50EEEEEdS4_Lb1EEENS_11DividesTypeINS_10DualNumberIT_T0_XT3_EEENS6_IT1_T2_XT3_EEELb0EvE9supertypeEOS9_RKSC_
FN:848,_ZSt3powIdN11MetaPhysicL28SemiDynamicSparseNumberArrayIdmNS0_8NWrapperILm50EEEEELb1EENS0_10DualNumberIT_T0_XT1_EEERKS8_SA_
FNDA:499513,_ZSt3powIdN11MetaPhysicL28SemiDynamicSparseNumberArrayIdmNS0_8NWrapperILm50EEEEELb1EENS0_10DualNumberIT_T0_XT1_EEERKS8_SA_
FNF:19
FNH:10
DA:63,299132
DA:73,6224
DA:97,0
DA:99,0
DA:101,0
DA:104,0
DA:112,760080
DA:114,760080
DA:136,0
DA:137,0
DA:139,0
DA:141,0
DA:146,498523
DA:148,525467
DA:214,0
DA:215,0
DA:217,0
DA:218,0
DA:219,0
DA:214,499190
DA:215,499190
DA:217,499190
DA:218,298978
DA:219,499190
DA:224,302244
DA:226,502625
DA:228,302244
DA:229,300868
DA:230,302244
DA:259,0
DA:262,0
DA:265,0
DA:266,0
DA:269,0
DA:270,0
DA:310,0
DA:313,0
DA:316,0
DA:317,0
DA:318,0
DA:321,0
DA:322,0
DA:464,499513
DA:464,0
DA:464,497856
DA:466,249595
DA:468,17904
DA:468,0
DA:468,14544
DA:468,0
DA:473,499513
DA:473,1320
DA:473,0
DA:473,9696
DA:848,1396910
LF:55
LH:25
end_of_record
SF:/home/runner/work/raccoon/raccoon/moose/framework/build/header_symlinks/MooseVariableDependencyInterface.h
LF:0
LH:0
end_of_record
SF:/home/runner/work/raccoon/raccoon/src/materials/hardening_models/PlasticHardeningModel.C
FN:8,_ZN21PlasticHardeningModel11validParamsEv
FNDA:334,_ZN21PlasticHardeningModel11validParamsEv
FN:19,_ZN21PlasticHardeningModelC2ERK15InputParameters
FNDA:30,_ZN21PlasticHardeningModelC2ERK15InputParameters
FNF:2
FNH:2
DA:8,334
DA:10,334
DA:11,334
DA:13,334
DA:14,334
DA:16,334
DA:19,30
DA:20,30
DA:22,30
LF:9
LH:9
end_of_record
SF:/usr/share/miniconda/envs/moose/x86_64-conda-linux-gnu/include/c++/9.3.0/tuple
FN:1670,_ZNSt4pairIKNSt7__cxx1112basic_stringIcSt11char_traitsIcESaIcEEEN15InputParameters8MetadataEEC2IJRS6_EJLm0EEJEJEEERSt5tupleIJDpT_EERSC_IJDpT1_EESt12_Index_tupleIJXspT0_EEESL_IJXspT2_EEE
FNDA:0,_ZNSt4pairIKNSt7__cxx1112basic_stringIcSt11char_traitsIcESaIcEEEN15InputParameters8MetadataEEC2IJRS6_EJLm0EEJEJEEERSt5tupleIJDpT_EERSC_IJDpT1_EESt12_Index_tupleIJXspT0_EEESL_IJXspT2_EEE
FNF:1
FNH:0
DA:122,0
DA:123,0
DA:125,0
DA:126,0
DA:334,0
DA:523,0
DA:1658,0
DA:1663,0
DA:1670,0
DA:1674,0
DA:1675,0
LF:11
LH:0
end_of_record
SF:/usr/share/miniconda/envs/moose/x86_64-conda-linux-gnu/include/c++/9.3.0/bits/basic_string.h
FN:525,_ZNSt7__cxx1112basic_stringIcSt11char_traitsIcESaIcEEC2IS3_EEPKcRKS3_
FNDA:6264,_ZNSt7__cxx1112basic_stringIcSt11char_traitsIcESaIcEEC2IS3_EEPKcRKS3_
FN:6057,_ZStplIcSt11char_traitsIcESaIcEENSt7__cxx1112basic_stringIT_T0_T1_EERKS8_PKS5_
FNDA:0,_ZStplIcSt11char_traitsIcESaIcEENSt7__cxx1112basic_stringIT_T0_T1_EERKS8_PKS5_
FN:6121,_ZStplIcSt11char_traitsIcESaIcEENSt7__cxx1112basic_stringIT_T0_T1_EEOS8_PKS5_
FNDA:0,_ZStplIcSt11char_traitsIcESaIcEENSt7__cxx1112basic_stringIT_T0_T1_EEOS8_PKS5_
FNF:3
FNH:1
DA:156,6264
DA:157,6264
DA:159,117
DA:160,117
DA:179,0
DA:183,0
DA:193,0
DA:203,69
DA:211,0
DA:217,0
DA:222,5815
DA:231,4828
DA:237,3896
DA:247,6264
DA:348,0
DA:349,0
DA:431,0
DA:448,117
DA:451,117
DA:525,6264
DA:527,6264
DA:555,0
DA:563,0
DA:569,0
DA:658,69
DA:1032,0
DA:1222,0
DA:1366,110
DA:2313,0
DA:6057,0
DA:6061,0
DA:6062,0
DA:6121,0
DA:6123,0
DA:6229,0
DA:6421,0
LF:36
LH:15
end_of_record
SF:/usr/share/miniconda/envs/moose/libmesh/include/metaphysicl/semidynamicsparsenumberarray.h
DA:84,299132
DA:85,0
LF:2
LH:1
end_of_record
SF:/usr/share/miniconda/envs/moose/x86_64-conda-linux-gnu/include/c++/9.3.0/bits/alloc_traits.h
DA:470,0
LF:1
LH:0
end_of_record
SF:/usr/share/miniconda/envs/moose/x86_64-conda-linux-gnu/include/c++/9.3.0/bits/shared_ptr_base.h
FN:131,_ZNSt16_Sp_counted_baseILN9__gnu_cxx12_Lock_policyE2EE10_M_destroyEv
FNDA:0,_ZNSt16_Sp_counted_baseILN9__gnu_cxx12_Lock_policyE2EE10_M_destroyEv
FN:148,_ZNSt16_Sp_counted_baseILN9__gnu_cxx12_Lock_policyE2EE10_M_releaseEv
FNDA:0,_ZNSt16_Sp_counted_baseILN9__gnu_cxx12_Lock_policyE2EE10_M_releaseEv
FN:404,_ZNSt15_Sp_counted_ptrIDnLN9__gnu_cxx12_Lock_policyE2EE10_M_disposeEv
FNDA:0,_ZNSt15_Sp_counted_ptrIDnLN9__gnu_cxx12_Lock_policyE2EE10_M_disposeEv
FN:552,_ZNSt23_Sp_counted_ptr_inplaceISt5mutexSaIS0_ELN9__gnu_cxx12_Lock_policyE2EED0Ev
FNDA:0,_ZNSt23_Sp_counted_ptr_inplaceISt5mutexSaIS0_ELN9__gnu_cxx12_Lock_policyE2EED0Ev
FN:552,_ZNSt23_Sp_counted_ptr_inplaceISt5mutexSaIS0_ELN9__gnu_cxx12_Lock_policyE2EED2Ev
FNDA:0,_ZNSt23_Sp_counted_ptr_inplaceISt5mutexSaIS0_ELN9__gnu_cxx12_Lock_policyE2EED2Ev
FN:552,_ZNSt23_Sp_counted_ptr_inplaceINSt13__future_base13_State_baseV2ESaIS1_ELN9__gnu_cxx12_Lock_policyE2EED0Ev
FNDA:0,_ZNSt23_Sp_counted_ptr_inplaceINSt13__future_base13_State_baseV2ESaIS1_ELN9__gnu_cxx12_Lock_policyE2EED0Ev
FN:552,_ZNSt23_Sp_counted_ptr_inplaceINSt13__future_base13_State_baseV2ESaIS1_ELN9__gnu_cxx12_Lock_policyE2EED2Ev
FNDA:0,_ZNSt23_Sp_counted_ptr_inplaceINSt13__future_base13_State_baseV2ESaIS1_ELN9__gnu_cxx12_Lock_policyE2EED2Ev
FN:552,_ZNSt23_Sp_counted_ptr_inplaceI17PowerLawHardeningSaIS0_ELN9__gnu_cxx12_Lock_policyE2EED2Ev
FNDA:0,_ZNSt23_Sp_counted_ptr_inplaceI17PowerLawHardeningSaIS0_ELN9__gnu_cxx12_Lock_policyE2EED2Ev
FN:552,_ZNSt23_Sp_counted_ptr_inplaceI17PowerLawHardeningSaIS0_ELN9__gnu_cxx12_Lock_policyE2EED0Ev
FNDA:0,_ZNSt23_Sp_counted_ptr_inplaceI17PowerLawHardeningSaIS0_ELN9__gnu_cxx12_Lock_policyE2EED0Ev
FN:552,_ZNSt23_Sp_counted_ptr_inplaceI21ArrheniusLawHardeningSaIS0_ELN9__gnu_cxx12_Lock_policyE2EED0Ev
FNDA:0,_ZNSt23_Sp_counted_ptr_inplaceI21ArrheniusLawHardeningSaIS0_ELN9__gnu_cxx12_Lock_policyE2EED0Ev
FN:552,_ZNSt23_Sp_counted_ptr_inplaceI21ArrheniusLawHardeningSaIS0_ELN9__gnu_cxx12_Lock_policyE2EED2Ev
FNDA:0,_ZNSt23_Sp_counted_ptr_inplaceI21ArrheniusLawHardeningSaIS0_ELN9__gnu_cxx12_Lock_policyE2EED2Ev
FN:552,_ZNSt23_Sp_counted_ptr_inplaceI15LinearHardeningSaIS0_ELN9__gnu_cxx12_Lock_policyE2EED2Ev
FNDA:0,_ZNSt23_Sp_counted_ptr_inplaceI15LinearHardeningSaIS0_ELN9__gnu_cxx12_Lock_policyE2EED2Ev
FN:552,_ZNSt23_Sp_counted_ptr_inplaceI15LinearHardeningSaIS0_ELN9__gnu_cxx12_Lock_policyE2EED0Ev
FNDA:0,_ZNSt23_Sp_counted_ptr_inplaceI15LinearHardeningSaIS0_ELN9__gnu_cxx12_Lock_policyE2EED0Ev
FN:555,_ZNSt23_Sp_counted_ptr_inplaceISt5mutexSaIS0_ELN9__gnu_cxx12_Lock_policyE2EE10_M_disposeEv
FNDA:0,_ZNSt23_Sp_counted_ptr_inplaceISt5mutexSaIS0_ELN9__gnu_cxx12_Lock_policyE2EE10_M_disposeEv
FN:555,_ZNSt23_Sp_counted_ptr_inplaceI17PowerLawHardeningSaIS0_ELN9__gnu_cxx12_Lock_policyE2EE10_M_disposeEv
FNDA:18,_ZNSt23_Sp_counted_ptr_inplaceI17PowerLawHardeningSaIS0_ELN9__gnu_cxx12_Lock_policyE2EE10_M_disposeEv
FN:555,_ZNSt23_Sp_counted_ptr_inplaceI15LinearHardeningSaIS0_ELN9__gnu_cxx12_Lock_policyE2EE10_M_disposeEv
FNDA:3,_ZNSt23_Sp_counted_ptr_inplaceI15LinearHardeningSaIS0_ELN9__gnu_cxx12_Lock_policyE2EE10_M_disposeEv
FN:555,_ZNSt23_Sp_counted_ptr_inplaceI21ArrheniusLawHardeningSaIS0_ELN9__gnu_cxx12_Lock_policyE2EE10_M_disposeEv
FNDA:9,_ZNSt23_Sp_counted_ptr_inplaceI21ArrheniusLawHardeningSaIS0_ELN9__gnu_cxx12_Lock_policyE2EE10_M_disposeEv
FN:555,_ZNSt23_Sp_counted_ptr_inplaceINSt13__future_base13_State_baseV2ESaIS1_ELN9__gnu_cxx12_Lock_policyE2EE10_M_disposeEv
FNDA:0,_ZNSt23_Sp_counted_ptr_inplaceINSt13__future_base13_State_baseV2ESaIS1_ELN9__gnu_cxx12_Lock_policyE2EE10_M_disposeEv
FN:562,_ZNSt23_Sp_counted_ptr_inplaceI15LinearHardeningSaIS0_ELN9__gnu_cxx12_Lock_policyE2EE10_M_destroyEv
FNDA:3,_ZNSt23_Sp_counted_ptr_inplaceI15LinearHardeningSaIS0_ELN9__gnu_cxx12_Lock_policyE2EE10_M_destroyEv
FN:562,_ZNSt23_Sp_counted_ptr_inplaceI17PowerLawHardeningSaIS0_ELN9__gnu_cxx12_Lock_policyE2EE10_M_destroyEv
FNDA:18,_ZNSt23_Sp_counted_ptr_inplaceI17PowerLawHardeningSaIS0_ELN9__gnu_cxx12_Lock_policyE2EE10_M_destroyEv
FN:562,_ZNSt23_Sp_counted_ptr_inplaceI21ArrheniusLawHardeningSaIS0_ELN9__gnu_cxx12_Lock_policyE2EE10_M_destroyEv
FNDA:9,_ZNSt23_Sp_counted_ptr_inplaceI21ArrheniusLawHardeningSaIS0_ELN9__gnu_cxx12_Lock_policyE2EE10_M_destroyEv
FN:562,_ZNSt23_Sp_counted_ptr_inplaceINSt13__future_base13_State_baseV2ESaIS1_ELN9__gnu_cxx12_Lock_policyE2EE10_M_destroyEv
FNDA:0,_ZNSt23_Sp_counted_ptr_inplaceINSt13__future_base13_State_baseV2ESaIS1_ELN9__gnu_cxx12_Lock_policyE2EE10_M_destroyEv
FN:562,_ZNSt23_Sp_counted_ptr_inplaceISt5mutexSaIS0_ELN9__gnu_cxx12_Lock_policyE2EE10_M_destroyEv
FNDA:0,_ZNSt23_Sp_counted_ptr_inplaceISt5mutexSaIS0_ELN9__gnu_cxx12_Lock_policyE2EE10_M_destroyEv
FN:575,_ZNSt23_Sp_counted_ptr_inplaceI15LinearHardeningSaIS0_ELN9__gnu_cxx12_Lock_policyE2EE14_M_get_deleterERKSt9type_info
FNDA:0,_ZNSt23_Sp_counted_ptr_inplaceI15LinearHardeningSaIS0_ELN9__gnu_cxx12_Lock_policyE2EE14_M_get_deleterERKSt9type_info
FN:575,_ZNSt23_Sp_counted_ptr_inplaceI17PowerLawHardeningSaIS0_ELN9__gnu_cxx12_Lock_policyE2EE14_M_get_deleterERKSt9type_info
FNDA:0,_ZNSt23_Sp_counted_ptr_inplaceI17PowerLawHardeningSaIS0_ELN9__gnu_cxx12_Lock_policyE2EE14_M_get_deleterERKSt9type_info
FN:575,_ZNSt23_Sp_counted_ptr_inplaceI21ArrheniusLawHardeningSaIS0_ELN9__gnu_cxx12_Lock_policyE2EE14_M_get_deleterERKSt9type_info
FNDA:0,_ZNSt23_Sp_counted_ptr_inplaceI21ArrheniusLawHardeningSaIS0_ELN9__gnu_cxx12_Lock_policyE2EE14_M_get_deleterERKSt9type_info
FN:672,_ZNSt14__shared_countILN9__gnu_cxx12_Lock_policyE2EEC2I17PowerLawHardeningSaIS4_EJRK15InputParametersEEERPT_St20_Sp_alloc_shared_tagIT0_EDpOT1_
FNDA:18,_ZNSt14__shared_countILN9__gnu_cxx12_Lock_policyE2EEC2I17PowerLawHardeningSaIS4_EJRK15InputParametersEEERPT_St20_Sp_alloc_shared_tagIT0_EDpOT1_
FN:672,_ZNSt14__shared_countILN9__gnu_cxx12_Lock_policyE2EEC2I15LinearHardeningSaIS4_EJRK15InputParametersEEERPT_St20_Sp_alloc_shared_tagIT0_EDpOT1_
FNDA:3,_ZNSt14__shared_countILN9__gnu_cxx12_Lock_policyE2EEC2I15LinearHardeningSaIS4_EJRK15InputParametersEEERPT_St20_Sp_alloc_shared_tagIT0_EDpOT1_
FN:672,_ZNSt14__shared_countILN9__gnu_cxx12_Lock_policyE2EEC2I21ArrheniusLawHardeningSaIS4_EJRK15InputParametersEEERPT_St20_Sp_alloc_shared_tagIT0_EDpOT1_
FNDA:9,_ZNSt14__shared_countILN9__gnu_cxx12_Lock_policyE2EEC2I21ArrheniusLawHardeningSaIS4_EJRK15InputParametersEEERPT_St20_Sp_alloc_shared_tagIT0_EDpOT1_
FNF:29
FNH:9
DA:117,30
DA:118,30
DA:131,0
DA:132,0
DA:148,0
DA:152,0
DA:155,0
DA:167,0
DA:171,0
DA:174,0
DA:404,0
DA:531,30
DA:543,30
DA:544,30
DA:550,30
DA:552,0
DA:552,0
DA:552,0
DA:552,0
DA:552,0
DA:552,0
DA:552,0
DA:552,0
DA:552,0
DA:552,0
DA:552,30
DA:555,0
DA:558,0
DA:555,0
DA:558,0
DA:555,9
DA:558,9
DA:555,3
DA:558,3
DA:555,18
DA:558,18
DA:562,0
DA:567,0
DA:562,0
DA:567,0
DA:562,9
DA:567,9
DA:562,3
DA:567,3
DA:562,18
DA:567,18
DA:575,0
DA:583,0
DA:585,0
DA:590,0
DA:575,0
DA:583,0
DA:585,0
DA:590,0
DA:575,0
DA:583,0
DA:585,0
DA:590,0
DA:672,18
DA:682,18
DA:683,18
DA:684,18
DA:672,3
DA:682,3
DA:683,3
DA:684,3
DA:672,9
DA:682,9
DA:683,9
DA:684,9
DA:729,0
DA:730,0
DA:758,30
DA:760,30
DA:1021,0
DA:1185,30
DA:1344,30
LF:77
LH:35
end_of_record
SF:/home/runner/work/raccoon/raccoon/moose/framework/build/header_symlinks/InputParameters.h
FN:59,_ZN15InputParametersD0Ev
FNDA:0,_ZN15InputParametersD0Ev
FN:59,_ZN15InputParametersD2Ev
FNDA:0,_ZN15InputParametersD2Ev
FN:1024,_ZN15InputParameters3setIdEERT_RKNSt7__cxx1112basic_stringIcSt11char_traitsIcESaIcEEEb
FNDA:0,_ZN15InputParameters3setIdEERT_RKNSt7__cxx1112basic_stringIcSt11char_traitsIcESaIcEEEb
FN:1024,_ZN15InputParameters3setI20MaterialPropertyNameEERT_RKNSt7__cxx1112basic_stringIcSt11char_traitsIcESaIcEEEb
FNDA:0,_ZN15InputParameters3setI20MaterialPropertyNameEERT_RKNSt7__cxx1112basic_stringIcSt11char_traitsIcESaIcEEEb
FN:1024,_ZN15InputParameters3setIbEERT_RKNSt7__cxx1112basic_stringIcSt11char_traitsIcESaIcEEEb
FNDA:0,_ZN15InputParameters3setIbEERT_RKNSt7__cxx1112basic_stringIcSt11char_traitsIcESaIcEEEb
FN:1223,_ZN15InputParameters16addRequiredParamIdEEvRKNSt7__cxx1112basic_stringIcSt11char_traitsIcESaIcEEES8_
FNDA:0,_ZN15InputParameters16addRequiredParamIdEEvRKNSt7__cxx1112basic_stringIcSt11char_traitsIcESaIcEEES8_
FN:1223,_ZN15InputParameters16addRequiredParamI20MaterialPropertyNameEEvRKNSt7__cxx1112basic_stringIcSt11char_traitsIcESaIcEEES9_
FNDA:0,_ZN15InputParameters16addRequiredParamI20MaterialPropertyNameEEvRKNSt7__cxx1112basic_stringIcSt11char_traitsIcESaIcEEES9_
FN:1245,_ZN15InputParameters8addParamIddEEvRKNSt7__cxx1112basic_stringIcSt11char_traitsIcESaIcEEERKT0_S8_
FNDA:0,_ZN15InputParameters8addParamIddEEvRKNSt7__cxx1112basic_stringIcSt11char_traitsIcESaIcEEERKT0_S8_
FN:1245,_ZN15InputParameters8addParamI20MaterialPropertyNameA3_cEEvRKNSt7__cxx1112basic_stringIcSt11char_traitsIcESaIcEEERKT0_SA_
FNDA:0,_ZN15InputParameters8addParamI20MaterialPropertyNameA3_cEEvRKNSt7__cxx1112basic_stringIcSt11char_traitsIcESaIcEEERKT0_SA_
FN:1245,_ZN15InputParameters8addParamI20MaterialPropertyNameA5_cEEvRKNSt7__cxx1112basic_stringIcSt11char_traitsIcESaIcEEERKT0_SA_
FNDA:0,_ZN15InputParameters8addParamI20MaterialPropertyNameA5_cEEvRKNSt7__cxx1112basic_stringIcSt11char_traitsIcESaIcEEERKT0_SA_
FN:1292,_ZN15InputParameters20addRangeCheckedParamIdEEvRKNSt7__cxx1112basic_stringIcSt11char_traitsIcESaIcEEERKT_S8_S8_
FNDA:110,_ZN15InputParameters20addRangeCheckedParamIdEEvRKNSt7__cxx1112basic_stringIcSt11char_traitsIcESaIcEEERKT_S8_S8_
FN:1398,_ZNK15InputParameters19checkConsistentTypeIbEEvRKNSt7__cxx1112basic_stringIcSt11char_traitsIcESaIcEEE
FNDA:0,_ZNK15InputParameters19checkConsistentTypeIbEEvRKNSt7__cxx1112basic_stringIcSt11char_traitsIcESaIcEEE
FN:1398,_ZNK15InputParameters19checkConsistentTypeIdEEvRKNSt7__cxx1112basic_stringIcSt11char_traitsIcESaIcEEE
FNDA:0,_ZNK15InputParameters19checkConsistentTypeIdEEvRKNSt7__cxx1112basic_stringIcSt11char_traitsIcESaIcEEE
FN:1398,_ZNK15InputParameters19checkConsistentTypeI20MaterialPropertyNameEEvRKNSt7__cxx1112basic_stringIcSt11char_traitsIcESaIcEEE
FNDA:0,_ZNK15InputParameters19checkConsistentTypeI20MaterialPropertyNameEEvRKNSt7__cxx1112basic_stringIcSt11char_traitsIcESaIcEEE
FN:1414,_ZN15InputParameters17suppressParameterIbEEvRKNSt7__cxx1112basic_stringIcSt11char_traitsIcESaIcEEE
FNDA:0,_ZN15InputParameters17suppressParameterIbEEvRKNSt7__cxx1112basic_stringIcSt11char_traitsIcESaIcEEE
FNF:15
FNH:1
DA:59,0
DA:59,0
DA:1024,0
DA:1026,0
DA:1027,0
DA:1029,0
DA:1030,0
DA:1032,0
DA:1034,0
DA:1035,0
DA:1039,0
DA:1024,0
DA:1026,0
DA:1027,0
DA:1029,0
DA:1030,0
DA:1032,0
DA:1034,0
DA:1035,0
DA:1039,0
DA:1024,0
DA:1026,0
DA:1027,0
DA:1029,0
DA:1030,0
DA:1032,0
DA:1034,0
DA:1035,0
DA:1039,0
DA:1223,0
DA:1225,0
DA:1226,0
DA:1228,0
DA:1229,0
DA:1230,0
DA:1231,0
DA:1223,0
DA:1225,0
DA:1226,0
DA:1228,0
DA:1229,0
DA:1230,0
DA:1231,0
DA:1245,0
DA:1247,0
DA:1248,0
DA:1250,0
DA:1251,0
DA:1254,0
DA:1259,0
DA:1260,0
DA:1245,0
DA:1247,0
DA:1248,0
DA:1250,0
DA:1251,0
DA:1254,0
DA:1259,0
DA:1260,0
DA:1245,0
DA:1247,0
DA:1248,0
DA:1250,0
DA:1251,0
DA:1254,0
DA:1259,0
DA:1260,0
DA:1277,0
DA:1292,110
DA:1297,110
DA:1298,110
DA:1299,110
DA:1398,0
DA:1402,0
DA:1403,0
DA:1408,0
DA:1410,0
DA:1398,0
DA:1402,0
DA:1403,0
DA:1408,0
DA:1410,0
DA:1398,0
DA:1402,0
DA:1403,0
DA:1408,0
DA:1410,0
DA:1414,0
DA:1416,0
DA:1417,0
DA:1419,0
DA:1420,0
DA:1421,0
DA:1422,0
DA:1639,334
LF:95
LH:5
end_of_record
SF:/usr/share/miniconda/envs/moose/x86_64-conda-linux-gnu/include/c++/9.3.0/array
DA:135,0
DA:139,0
DA:235,1798260
DA:239,601736
LF:4
LH:2
end_of_record
SF:/home/runner/work/raccoon/raccoon/build/header_symlinks/BaseNameInterface.h
FN:15,_ZN17BaseNameInterfaceD0Ev
FNDA:0,_ZN17BaseNameInterfaceD0Ev
FN:15,_ZN17BaseNameInterfaceD2Ev
FNDA:0,_ZN17BaseNameInterfaceD2Ev
FNF:2
FNH:0
DA:15,0
DA:15,0
LF:2
LH:0
end_of_record
SF:/home/runner/work/raccoon/raccoon/moose/framework/contrib/hit/parse.h
LF:0
LH:0
end_of_record
SF:/home/runner/work/raccoon/raccoon/moose/framework/build/header_symlinks/Restartable.h
FN:64,_ZN11RestartableD0Ev
FNDA:0,_ZN11RestartableD0Ev
FN:64,_ZN11RestartableD2Ev
FNDA:0,_ZN11RestartableD2Ev
FNF:2
FNH:0
DA:64,0
DA:64,0
LF:2
LH:0
end_of_record
SF:/usr/share/miniconda/envs/moose/libmesh/include/libmesh/parallel_object.h
LF:0
LH:0
end_of_record
SF:/home/runner/work/raccoon/raccoon/moose/framework/build/header_symlinks/MooseVariableBase.h
FN:72,_ZNK17MooseVariableBase4nameB5cxx11Ev
FNDA:0,_ZNK17MooseVariableBase4nameB5cxx11Ev
FNF:1
FNH:0
DA:72,0
LF:1
LH:0
end_of_record
SF:/usr/share/miniconda/envs/moose/libmesh/include/libmesh/reference_counted_object.h
DA:75,0
LF:1
LH:0
end_of_record
SF:/home/runner/work/raccoon/raccoon/build/header_symlinks/LinearHardening.h
LF:0
LH:0
end_of_record
SF:/home/runner/work/raccoon/raccoon/moose/framework/build/header_symlinks/MooseError.h
FN:154,_ZN5moose8internal14mooseStreamAllINSt7__cxx1112basic_stringIcSt11char_traitsIcESaIcEEEJRA2_KcEEEvRNS2_19basic_ostringstreamIcS5_S6_EEOT_DpOT0_
FNDA:0,_ZN5moose8internal14mooseStreamAllINSt7__cxx1112basic_stringIcSt11char_traitsIcESaIcEEEJRA2_KcEEEvRNS2_19basic_ostringstreamIcS5_S6_EEOT_DpOT0_
FN:154,_ZN5moose8internal14mooseStreamAllINSt7__cxx1112basic_stringIcSt11char_traitsIcESaIcEEEJRA45_KcS7_RA2_S8_EEEvRNS2_19basic_ostringstreamIcS5_S6_EEOT_DpOT0_
FNDA:0,_ZN5moose8internal14mooseStreamAllINSt7__cxx1112basic_stringIcSt11char_traitsIcESaIcEEEJRA45_KcS7_RA2_S8_EEEvRNS2_19basic_ostringstreamIcS5_S6_EEOT_DpOT0_
FN:154,_ZN5moose8internal14mooseStreamAllIRKNSt7__cxx1112basic_stringIcSt11char_traitsIcESaIcEEEJRA40_KcEEEvRNS2_19basic_ostringstreamIcS5_S6_EEOT_DpOT0_
FNDA:0,_ZN5moose8internal14mooseStreamAllIRKNSt7__cxx1112basic_stringIcSt11char_traitsIcESaIcEEEJRA40_KcEEEvRNS2_19basic_ostringstreamIcS5_S6_EEOT_DpOT0_
FN:154,_ZN5moose8internal14mooseStreamAllIRKNSt7__cxx1112basic_stringIcSt11char_traitsIcESaIcEEEJRA14_KcS7_RA45_SA_S7_RA2_SA_EEEvRNS2_19basic_ostringstreamIcS5_S6_EEOT_DpOT0_
FNDA:0,_ZN5moose8internal14mooseStreamAllIRKNSt7__cxx1112basic_stringIcSt11char_traitsIcESaIcEEEJRA14_KcS7_RA45_SA_S7_RA2_SA_EEEvRNS2_19basic_ostringstreamIcS5_S6_EEOT_DpOT0_
FN:154,_ZN5moose8internal14mooseStreamAllIRA43_KcJRKNSt7__cxx1112basic_stringIcSt11char_traitsIcESaIcEEEEEEvRNS5_19basic_ostringstreamIcS8_S9_EEOT_DpOT0_
FNDA:0,_ZN5moose8internal14mooseStreamAllIRA43_KcJRKNSt7__cxx1112basic_stringIcSt11char_traitsIcESaIcEEEEEEvRNS5_19basic_ostringstreamIcS8_S9_EEOT_DpOT0_
FN:154,_ZN5moose8internal14mooseStreamAllIRKNSt7__cxx1112basic_stringIcSt11char_traitsIcESaIcEEEJRA46_KcEEEvRNS2_19basic_ostringstreamIcS5_S6_EEOT_DpOT0_
FNDA:0,_ZN5moose8internal14mooseStreamAllIRKNSt7__cxx1112basic_stringIcSt11char_traitsIcESaIcEEEJRA46_KcEEEvRNS2_19basic_ostringstreamIcS5_S6_EEOT_DpOT0_
FN:154,_ZN5moose8internal14mooseStreamAllINSt7__cxx1112basic_stringIcSt11char_traitsIcESaIcEEEJRA117_KcEEEvRNS2_19basic_ostringstreamIcS5_S6_EEOT_DpOT0_
FNDA:0,_ZN5moose8internal14mooseStreamAllINSt7__cxx1112basic_stringIcSt11char_traitsIcESaIcEEEJRA117_KcEEEvRNS2_19basic_ostringstreamIcS5_S6_EEOT_DpOT0_
FN:154,_ZN5moose8internal14mooseStreamAllINSt7__cxx1112basic_stringIcSt11char_traitsIcESaIcEEEJRA105_KcEEEvRNS2_19basic_ostringstreamIcS5_S6_EEOT_DpOT0_
FNDA:0,_ZN5moose8internal14mooseStreamAllINSt7__cxx1112basic_stringIcSt11char_traitsIcESaIcEEEJRA105_KcEEEvRNS2_19basic_ostringstreamIcS5_S6_EEOT_DpOT0_
FN:236,_Z10mooseErrorIJNSt7__cxx1112basic_stringIcSt11char_traitsIcESaIcEEEEEvDpOT_
FNDA:0,_Z10mooseErrorIJNSt7__cxx1112basic_stringIcSt11char_traitsIcESaIcEEEEEvDpOT_
FN:236,_Z10mooseErrorIJRA16_KcRKNSt7__cxx1112basic_stringIcSt11char_traitsIcESaIcEEERA40_S0_EEvDpOT_
FNDA:0,_Z10mooseErrorIJRA16_KcRKNSt7__cxx1112basic_stringIcSt11char_traitsIcESaIcEEERA40_S0_EEvDpOT_
FN:236,_Z10mooseErrorIJRA30_KcRKNSt7__cxx1112basic_stringIcSt11char_traitsIcESaIcEEERA14_S0_S8_RA45_S0_S8_RA2_S0_EEvDpOT_
FNDA:0,_Z10mooseErrorIJRA30_KcRKNSt7__cxx1112basic_stringIcSt11char_traitsIcESaIcEEERA14_S0_S8_RA45_S0_S8_RA2_S0_EEvDpOT_
FN:236,_Z10mooseErrorIJRA43_KcRKNSt7__cxx1112basic_stringIcSt11char_traitsIcESaIcEEEEEvDpOT_
FNDA:0,_Z10mooseErrorIJRA43_KcRKNSt7__cxx1112basic_stringIcSt11char_traitsIcESaIcEEEEEvDpOT_
FNF:12
FNH:0
DA:154,0
DA:156,0
DA:157,0
DA:158,0
DA:154,0
DA:156,0
DA:157,0
DA:158,0
DA:154,0
DA:156,0
DA:157,0
DA:158,0
DA:154,0
DA:156,0
DA:157,0
DA:158,0
DA:154,0
DA:156,0
DA:157,0
DA:158,0
DA:154,0
DA:156,0
DA:157,0
DA:158,0
DA:154,0
DA:156,0
DA:157,0
DA:158,0
DA:154,0
DA:156,0
DA:157,0
DA:158,0
DA:156,0
DA:157,0
DA:158,0
DA:236,0
DA:238,0
DA:240,0
DA:236,0
DA:238,0
DA:240,0
DA:236,0
DA:238,0
DA:240,0
DA:236,0
DA:238,0
DA:239,0
DA:240,0
LF:48
LH:0
end_of_record
SF:/usr/share/miniconda/envs/moose/libmesh/include/libmesh/type_vector.h
FN:458,_ZN7libMesh10TypeVectorIN11MetaPhysicL10DualNumberIdNS1_28SemiDynamicSparseNumberArrayIdmNS1_8NWrapperILm50EEEEELb1EEEEC2Ev
FNDA:0,_ZN7libMesh10TypeVectorIN11MetaPhysicL10DualNumberIdNS1_28SemiDynamicSparseNumberArrayIdmNS1_8NWrapperILm50EEEEELb1EEEEC2Ev
FN:551,_ZN7libMesh10TypeVectorIN11MetaPhysicL10DualNumberIdNS1_28SemiDynamicSparseNumberArrayIdmNS1_8NWrapperILm50EEEEELb1EEEEC2IdEERKNS0_IT_EE
FNDA:0,_ZN7libMesh10TypeVectorIN11MetaPhysicL10DualNumberIdNS1_28SemiDynamicSparseNumberArrayIdmNS1_8NWrapperILm50EEEEELb1EEEEC2IdEERKNS0_IT_EE
FNF:2
FNH:0
DA:102,0
DA:458,0
DA:460,0
DA:463,0
DA:467,0
DA:469,0
DA:551,0
DA:554,0
DA:555,0
DA:556,0
DA:585,0
LF:11
LH:0
end_of_record
SF:/usr/share/miniconda/envs/moose/x86_64-conda-linux-gnu/include/c++/9.3.0/ostream
DA:113,0
DA:175,0
DA:221,0
DA:246,0
DA:518,0
DA:570,0
LF:6
LH:0
end_of_record
SF:/usr/share/miniconda/envs/moose/x86_64-conda-linux-gnu/include/c++/9.3.0/future
FN:328,_ZNSt13__future_base13_State_baseV2D0Ev
FNDA:0,_ZNSt13__future_base13_State_baseV2D0Ev
FN:328,_ZNSt13__future_base13_State_baseV2D2Ev
FNDA:0,_ZNSt13__future_base13_State_baseV2D2Ev
FN:570,_ZNSt13__future_base13_State_baseV217_M_complete_asyncEv
FNDA:0,_ZNSt13__future_base13_State_baseV217_M_complete_asyncEv
FN:573,_ZNKSt13__future_base13_State_baseV221_M_is_deferred_futureEv
FNDA:0,_ZNKSt13__future_base13_State_baseV221_M_is_deferred_futureEv
FN:652,_ZNSt13__future_base7_ResultIvE10_M_destroyEv
FNDA:0,_ZNSt13__future_base7_ResultIvE10_M_destroyEv
FNF:5
FNH:0
DA:213,0
DA:328,0
DA:328,0
DA:570,0
DA:573,0
DA:652,0
LF:6
LH:0
end_of_record
SF:/usr/share/miniconda/envs/moose/libmesh/include/metaphysicl/dynamic_std_array_wrapper.h
FN:54,_ZN11MetaPhysicL22DynamicStdArrayWrapperImNS_8NWrapperILm50EEEEC2ERKS3_
FNDA:300868,_ZN11MetaPhysicL22DynamicStdArrayWrapperImNS_8NWrapperILm50EEEEC2ERKS3_
FN:54,_ZN11MetaPhysicL22DynamicStdArrayWrapperIdNS_8NWrapperILm50EEEEC2ERKS3_
FNDA:300868,_ZN11MetaPhysicL22DynamicStdArrayWrapperIdNS_8NWrapperILm50EEEEC2ERKS3_
FN:71,_ZN11MetaPhysicL22DynamicStdArrayWrapperImNS_8NWrapperILm50EEEEaSERKS3_
FNDA:0,_ZN11MetaPhysicL22DynamicStdArrayWrapperImNS_8NWrapperILm50EEEEaSERKS3_
FN:71,_ZN11MetaPhysicL22DynamicStdArrayWrapperIdNS_8NWrapperILm50EEEEaSERKS3_
FNDA:0,_ZN11MetaPhysicL22DynamicStdArrayWrapperIdNS_8NWrapperILm50EEEEaSERKS3_
FNF:4
FNH:2
DA:54,300868
DA:56,300868
DA:59,300868
DA:54,300868
DA:56,300868
DA:59,300868
DA:62,1196530
DA:64,1196530
DA:67,1206540
DA:68,10016
DA:71,0
DA:73,0
DA:76,0
DA:71,0
DA:73,0
DA:76,0
DA:82,0
DA:85,0
DA:86,0
DA:90,1527280
DA:99,1196530
DA:105,601736
DA:125,900508
DA:131,0
DA:137,0
DA:142,0
LF:26
LH:14
end_of_record
SF:/home/runner/work/raccoon/raccoon/build/header_symlinks/PowerLawHardening.h
LF:0
LH:0
end_of_record
SF:/usr/share/miniconda/envs/moose/x86_64-conda-linux-gnu/include/c++/9.3.0/bits/move.h
DA:193,0
DA:194,0
DA:195,0
LF:3
LH:0
end_of_record
SF:/usr/share/miniconda/envs/moose/libmesh/include/libmesh/threads_pthread.h
DA:149,0
DA:150,0
DA:527,0
DA:541,0
LF:4
LH:0
end_of_record
SF:/usr/share/miniconda/envs/moose/x86_64-conda-linux-gnu/include/c++/9.3.0/bits/basic_string.tcc
FN:206,_ZNSt7__cxx1112basic_stringIcSt11char_traitsIcESaIcEE12_M_constructIPcEEvT_S7_St20forward_iterator_tag
FNDA:0,_ZNSt7__cxx1112basic_stringIcSt11char_traitsIcESaIcEE12_M_constructIPcEEvT_S7_St20forward_iterator_tag
FN:206,_ZNSt7__cxx1112basic_stringIcSt11char_traitsIcESaIcEE12_M_constructIPKcEEvT_S8_St20forward_iterator_tag
FNDA:0,_ZNSt7__cxx1112basic_stringIcSt11char_traitsIcESaIcEE12_M_constructIPKcEEvT_S8_St20forward_iterator_tag
FN:1158,_ZStplIcSt11char_traitsIcESaIcEENSt7__cxx1112basic_stringIT_T0_T1_EEPKS5_RKS8_
FNDA:0,_ZStplIcSt11char_traitsIcESaIcEENSt7__cxx1112basic_stringIT_T0_T1_EEPKS5_RKS8_
FNF:3
FNH:0
DA:206,0
DA:211,0
DA:212,0
DA:215,0
DA:217,0
DA:219,0
DA:220,0
DA:225,0
DA:232,0
DA:233,0
DA:206,0
DA:211,0
DA:212,0
DA:215,0
DA:217,0
DA:219,0
DA:220,0
DA:225,0
DA:232,0
DA:233,0
DA:1158,0
DA:1166,0
DA:1167,0
DA:1169,0
LF:24
LH:0
end_of_record
SF:/usr/share/miniconda/envs/moose/libmesh/include/metaphysicl/semidynamicsparsenumberarray_decl.h
DA:34,1368440
DA:56,598264
LF:2
LH:2
end_of_record
SF:/usr/share/miniconda/envs/moose/x86_64-conda-linux-gnu/include/c++/9.3.0/bits/stl_construct.h
DA:75,0
DA:98,0
DA:107,0
LF:3
LH:0
end_of_record
SF:/usr/share/miniconda/envs/moose/x86_64-conda-linux-gnu/include/c++/9.3.0/bits/stl_vector.h
FN:622,_ZNSt6vectorIdSaIdEEC2ESt16initializer_listIdERKS0_
FNDA:0,_ZNSt6vectorIdSaIdEEC2ESt16initializer_listIdERKS0_
FN:622,_ZNSt6vectorINSt7__cxx1112basic_stringIcSt11char_traitsIcESaIcEEESaIS5_EEC2ESt16initializer_listIS5_ERKS6_
FNDA:0,_ZNSt6vectorINSt7__cxx1112basic_stringIcSt11char_traitsIcESaIcEEESaIS5_EEC2ESt16initializer_listIS5_ERKS6_
FN:675,_ZNSt6vectorISt10unique_ptrI16MaterialPropertyIN7libMesh11VectorValueIdEEESt14default_deleteIS5_EESaIS8_EED2Ev
FNDA:0,_ZNSt6vectorISt10unique_ptrI16MaterialPropertyIN7libMesh11VectorValueIdEEESt14default_deleteIS5_EESaIS8_EED2Ev
FN:675,_ZNSt6vectorINSt7__cxx1112basic_stringIcSt11char_traitsIcESaIcEEESaIS5_EED2Ev
FNDA:0,_ZNSt6vectorINSt7__cxx1112basic_stringIcSt11char_traitsIcESaIcEEESaIS5_EED2Ev
FN:675,_ZNSt6vectorIS_IS_IS_ISt4pairIhhESaIS1_EESaIS3_EESaIS5_EESaIS7_EED2Ev
FNDA:0,_ZNSt6vectorIS_IS_IS_ISt4pairIhhESaIS1_EESaIS3_EESaIS5_EESaIS7_EED2Ev
FN:675,_ZNSt6vectorIS_IS_IaSaIaEESaIS1_EESaIS3_EED2Ev
FNDA:0,_ZNSt6vectorIS_IS_IaSaIaEESaIS1_EESaIS3_EED2Ev
FN:675,_ZNSt6vectorI13SubdomainNameSaIS0_EED2Ev
FNDA:0,_ZNSt6vectorI13SubdomainNameSaIS0_EED2Ev
FN:675,_ZNSt6vectorISt10unique_ptrI16MaterialPropertyIdESt14default_deleteIS2_EESaIS5_EED2Ev
FNDA:0,_ZNSt6vectorISt10unique_ptrI16MaterialPropertyIdESt14default_deleteIS2_EESaIS5_EED2Ev
FN:675,_ZNSt6vectorISt10unique_ptrI18ADMaterialPropertyIdESt14default_deleteIS2_EESaIS5_EED2Ev
FNDA:0,_ZNSt6vectorISt10unique_ptrI18ADMaterialPropertyIdESt14default_deleteIS2_EESaIS5_EED2Ev
FN:675,_ZNSt6vectorISt5tupleIJNSt7__cxx1112basic_stringIcSt11char_traitsIcESaIcEEEN5Moose23RelationshipManagerTypeESt8functionIFvRK15InputParametersRSA_EEEESaISG_EED2Ev
FNDA:0,_ZNSt6vectorISt5tupleIJNSt7__cxx1112basic_stringIcSt11char_traitsIcESaIcEEEN5Moose23RelationshipManagerTypeESt8functionIFvRK15InputParametersRSA_EEEESaISG_EED2Ev
FN:675,_ZNSt6vectorISt10unique_ptrI18ADMaterialPropertyIN7libMesh11VectorValueIdEEESt14default_deleteIS5_EESaIS8_EED2Ev
FNDA:0,_ZNSt6vectorISt10unique_ptrI18ADMaterialPropertyIN7libMesh11VectorValueIdEEESt14default_deleteIS5_EESaIS8_EED2Ev
FN:675,_ZNSt6vectorIS_IS_ISt4pairIhhESaIS1_EESaIS3_EESaIS5_EED2Ev
FNDA:0,_ZNSt6vectorIS_IS_ISt4pairIhhESaIS1_EESaIS3_EESaIS5_EED2Ev
FN:675,_ZNSt6vectorIS_IaSaIaEESaIS1_EED2Ev
FNDA:0,_ZNSt6vectorIS_IaSaIaEESaIS1_EED2Ev
FN:675,_ZNSt6vectorISt10unique_ptrI10MooseArrayIdESt14default_deleteIS2_EESaIS5_EED2Ev
FNDA:0,_ZNSt6vectorISt10unique_ptrI10MooseArrayIdESt14default_deleteIS2_EESaIS5_EED2Ev
FN:675,_ZNSt6vectorIS_ISt4pairIhhESaIS1_EESaIS3_EED2Ev
FNDA:0,_ZNSt6vectorIS_ISt4pairIhhESaIS1_EESaIS3_EED2Ev
FN:954,_ZNSt6vectorIP13PropertyValueSaIS1_EE6resizeEmRKS1_
FNDA:0,_ZNSt6vectorIP13PropertyValueSaIS1_EE6resizeEmRKS1_
FN:1753,_ZNKSt6vectorIP13PropertyValueSaIS1_EE12_M_check_lenEmPKc
FNDA:0,_ZNKSt6vectorIP13PropertyValueSaIS1_EE12_M_check_lenEmPKc
FNF:17
FNH:0
DA:94,0
DA:95,0
DA:333,0
DA:334,0
DA:350,0
DA:622,0
DA:626,0
DA:628,0
DA:622,0
DA:626,0
DA:628,0
DA:675,0
DA:677,0
DA:680,0
DA:675,0
DA:677,0
DA:680,0
DA:675,0
DA:677,0
DA:680,0
DA:675,0
DA:677,0
DA:680,0
DA:675,0
DA:677,0
DA:680,0
DA:675,0
DA:677,0
DA:680,0
DA:675,0
DA:677,0
DA:680,0
DA:675,0
DA:677,0
DA:680,0
DA:675,0
DA:677,0
DA:680,0
DA:675,0
DA:677,0
DA:680,0
DA:675,0
DA:677,0
DA:680,0
DA:675,0
DA:677,0
DA:680,0
DA:675,0
DA:677,0
DA:680,0
DA:677,0
DA:680,0
DA:916,0
DA:954,0
DA:956,0
DA:957,0
DA:958,0
DA:959,0
DA:960,0
DA:1043,0
DA:1708,0
DA:1753,0
DA:1755,0
DA:1756,0
DA:1758,0
DA:1759,0
DA:1791,0
DA:1795,0
LF:68
LH:0
end_of_record
SF:/home/runner/work/raccoon/raccoon/moose/framework/build/header_symlinks/MaterialData.h
FN:296,_ZN12MaterialData13resizePropsADIdEEvj
FNDA:0,_ZN12MaterialData13resizePropsADIdEEvj
FN:323,_ZN12MaterialData17declareADPropertyIdEER18ADMaterialPropertyIT_ERKNSt7__cxx1112basic_stringIcSt11char_traitsIcESaIcEEE
FNDA:0,_ZN12MaterialData17declareADPropertyIdEER18ADMaterialPropertyIT_ERKNSt7__cxx1112basic_stringIcSt11char_traitsIcESaIcEEE
FN:370,_ZN12MaterialData15declareADHelperIdEER18ADMaterialPropertyIT_ER18MaterialPropertiesRKNSt7__cxx1112basic_stringIcSt11char_traitsIcESaIcEEEj
FNDA:0,_ZN12MaterialData15declareADHelperIdEER18ADMaterialPropertyIT_ER18MaterialPropertiesRKNSt7__cxx1112basic_stringIcSt11char_traitsIcESaIcEEEj
FN:417,_ZN12MaterialData13getADPropertyIdEER18ADMaterialPropertyIT_ERKNSt7__cxx1112basic_stringIcSt11char_traitsIcESaIcEEE
FNDA:0,_ZN12MaterialData13getADPropertyIdEER18ADMaterialPropertyIT_ERKNSt7__cxx1112basic_stringIcSt11char_traitsIcESaIcEEE
FNF:4
FNH:0
DA:179,0
DA:296,0
DA:298,0
DA:299,0
DA:300,0
DA:301,0
DA:302,0
DA:303,0
DA:304,0
DA:306,0
DA:307,0
DA:308,0
DA:309,0
DA:310,0
DA:311,0
DA:312,0
DA:323,0
DA:325,0
DA:370,0
DA:374,0
DA:375,0
DA:376,0
DA:381,0
DA:382,0
DA:383,0
DA:386,0
DA:388,0
DA:389,0
DA:417,0
DA:419,0
DA:420,0
DA:421,0
DA:422,0
DA:427,0
DA:428,0
DA:429,0
DA:434,0
DA:436,0
LF:38
LH:0
end_of_record
SF:/home/runner/work/raccoon/raccoon/moose/framework/build/header_symlinks/Registry.h
FN:137,_ZN5moose8internal15callValidParamsI17PowerLawHardeningEEDTcmcl20callValidParamsInnerIT_ELi0EEclL_Z20emptyInputParametersvEEEv
FNDA:122,_ZN5moose8internal15callValidParamsI17PowerLawHardeningEEDTcmcl20callValidParamsInnerIT_ELi0EEclL_Z20emptyInputParametersvEEEv
FN:137,_ZN5moose8internal15callValidParamsI15LinearHardeningEEDTcmcl20callValidParamsInnerIT_ELi0EEclL_Z20emptyInputParametersvEEEv
FNDA:102,_ZN5moose8internal15callValidParamsI15LinearHardeningEEDTcmcl20callValidParamsInnerIT_ELi0EEclL_Z20emptyInputParametersvEEEv
FN:137,_ZN5moose8internal15callValidParamsI21ArrheniusLawHardeningEEDTcmcl20callValidParamsInnerIT_ELi0EEclL_Z20emptyInputParametersvEEEv
FNDA:110,_ZN5moose8internal15callValidParamsI21ArrheniusLawHardeningEEDTcmcl20callValidParamsInnerIT_ELi0EEclL_Z20emptyInputParametersvEEEv
FN:144,_ZN5moose8internal8buildObjI17PowerLawHardeningEESt10shared_ptrI11MooseObjectERK15InputParameters
FNDA:18,_ZN5moose8internal8buildObjI17PowerLawHardeningEESt10shared_ptrI11MooseObjectERK15InputParameters
FN:144,_ZN5moose8internal8buildObjI15LinearHardeningEESt10shared_ptrI11MooseObjectERK15InputParameters
FNDA:3,_ZN5moose8internal8buildObjI15LinearHardeningEESt10shared_ptrI11MooseObjectERK15InputParameters
FN:144,_ZN5moose8internal8buildObjI21ArrheniusLawHardeningEESt10shared_ptrI11MooseObjectERK15InputParameters
FNDA:9,_ZN5moose8internal8buildObjI21ArrheniusLawHardeningEESt10shared_ptrI11MooseObjectERK15InputParameters
FN:204,_ZN8Registry3addI17PowerLawHardeningEEcRK13RegistryEntry
FNDA:32,_ZN8Registry3addI17PowerLawHardeningEEcRK13RegistryEntry
FN:204,_ZN8Registry3addI15LinearHardeningEEcRK13RegistryEntry
FNDA:32,_ZN8Registry3addI15LinearHardeningEEcRK13RegistryEntry
FN:204,_ZN8Registry3addI21ArrheniusLawHardeningEEcRK13RegistryEntry
FNDA:32,_ZN8Registry3addI21ArrheniusLawHardeningEEcRK13RegistryEntry
FNF:9
FNH:9
DA:137,122
DA:139,122
DA:137,102
DA:139,102
DA:137,110
DA:139,110
DA:144,18
DA:146,18
DA:144,3
DA:146,3
DA:144,9
DA:146,9
DA:204,32
DA:206,64
DA:207,32
DA:208,32
DA:209,32
DA:210,32
DA:204,32
DA:206,64
DA:207,32
DA:208,32
DA:209,32
DA:210,32
DA:204,32
DA:206,64
DA:207,32
DA:208,32
DA:209,32
DA:210,32
LF:30
LH:30
end_of_record
SF:/usr/share/miniconda/envs/moose/x86_64-conda-linux-gnu/include/c++/9.3.0/typeinfo
DA:100,0
DA:123,0
DA:124,0
LF:3
LH:0
end_of_record
SF:/home/runner/work/raccoon/raccoon/src/materials/hardening_models/ArrheniusLawHardening.C
FN:10,_ZN21ArrheniusLawHardening11validParamsEv
FNDA:110,_ZN21ArrheniusLawHardening11validParamsEv
FN:41,_ZN21ArrheniusLawHardeningC2ERK15InputParameters
FNDA:9,_ZN21ArrheniusLawHardeningC2ERK15InputParameters
FN:73,_ZN21ArrheniusLawHardening13plasticEnergyERKN11MetaPhysicL10DualNumberIdNS0_28SemiDynamicSparseNumberArrayIdmNS0_8NWrapperILm50EEEEELb1EEEj
FNDA:20344,_ZN21ArrheniusLawHardening13plasticEnergyERKN11MetaPhysicL10DualNumberIdNS0_28SemiDynamicSparseNumberArrayIdmNS0_8NWrapperILm50EEEEELb1EEEj
FN:95,_ZN21ArrheniusLawHardening18plasticDissipationERKN11MetaPhysicL10DualNumberIdNS0_28SemiDynamicSparseNumberArrayIdmNS0_8NWrapperILm50EEEEELb1EEES8_j
FNDA:20344,_ZN21ArrheniusLawHardening18plasticDissipationERKN11MetaPhysicL10DualNumberIdNS0_28SemiDynamicSparseNumberArrayIdmNS0_8NWrapperILm50EEEEELb1EEES8_j
FN:115,_ZN21ArrheniusLawHardening16thermalConjugateERKN11MetaPhysicL10DualNumberIdNS0_28SemiDynamicSparseNumberArrayIdmNS0_8NWrapperILm50EEEEELb1EEE
FNDA:3112,_ZN21ArrheniusLawHardening16thermalConjugateERKN11MetaPhysicL10DualNumberIdNS0_28SemiDynamicSparseNumberArrayIdmNS0_8NWrapperILm50EEEEELb1EEE
FNF:5
FNH:5
DA:10,110
DA:12,110
DA:13,110
DA:15,220
DA:17,220
DA:19,220
DA:22,220
DA:23,220
DA:27,220
DA:28,330
DA:34,220
DA:38,110
DA:41,9
DA:44,18
DA:45,18
DA:46,9
DA:48,45
DA:49,9
DA:51,18
DA:55,9
DA:56,18
DA:57,27
DA:61,9
DA:62,27
DA:65,9
DA:68,144
DA:70,9
DA:73,20344
DA:75,20344
DA:77,3112
DA:78,3112
DA:79,3112
DA:80,3112
DA:81,3112
DA:84,17232
DA:85,13096
DA:87,4136
DA:88,4136
DA:90,0
DA:95,20344
DA:99,20344
DA:101,0
DA:104,20344
DA:105,16208
DA:107,4136
DA:108,4136
DA:110,0
DA:115,3112
DA:117,3112
DA:118,6224
LF:50
LH:47
end_of_record
SF:/usr/share/miniconda/envs/moose/x86_64-conda-linux-gnu/include/c++/9.3.0/bits/stl_algobase.h
DA:227,0
DA:228,0
DA:384,601736
DA:385,601736
DA:386,1668
DA:387,0
DA:586,0
DA:587,0
DA:588,0
DA:713,0
DA:714,0
DA:770,0
DA:771,0
DA:772,0
LF:14
LH:3
end_of_record
SF:/home/runner/work/raccoon/raccoon/moose/framework/build/header_symlinks/MooseArray.h
FN:212,_ZN10MooseArrayIN11MetaPhysicL10DualNumberIdNS0_28SemiDynamicSparseNumberArrayIdmNS0_8NWrapperILm50EEEEELb1EEEE6resizeILb1EEEvj
FNDA:0,_ZN10MooseArrayIN11MetaPhysicL10DualNumberIdNS0_28SemiDynamicSparseNumberArrayIdmNS0_8NWrapperILm50EEEEELb1EEEE6resizeILb1EEEvj
FN:212,_ZN10MooseArrayIdE6resizeILb1EEEvj
FNDA:0,_ZN10MooseArrayIdE6resizeILb1EEEvj
FN:212,_ZN10MooseArrayIN7libMesh11VectorValueIdEEE6resizeILb1EEEvj
FNDA:0,_ZN10MooseArrayIN7libMesh11VectorValueIdEEE6resizeILb1EEEvj
FN:212,_ZN10MooseArrayIN7libMesh11VectorValueIN11MetaPhysicL10DualNumberIdNS2_28SemiDynamicSparseNumberArrayIdmNS2_8NWrapperILm50EEEEELb1EEEEEE6resizeILb1EEEvj
FNDA:0,_ZN10MooseArrayIN7libMesh11VectorValueIN11MetaPhysicL10DualNumberIdNS2_28SemiDynamicSparseNumberArrayIdmNS2_8NWrapperILm50EEEEELb1EEEEEE6resizeILb1EEEvj
FNF:4
FNH:0
DA:24,0
DA:54,0
DA:212,0
DA:214,0
DA:215,0
DA:219,0
DA:224,0
DA:225,0
DA:226,0
DA:228,0
DA:212,0
DA:214,0
DA:215,0
DA:219,0
DA:224,0
DA:225,0
DA:226,0
DA:228,0
DA:212,0
DA:214,0
DA:215,0
DA:219,0
DA:224,0
DA:225,0
DA:226,0
DA:228,0
DA:212,0
DA:214,0
DA:215,0
DA:219,0
DA:224,0
DA:225,0
DA:226,0
DA:228,0
DA:268,708088
DA:278,1832690
LF:36
LH:2
end_of_record
SF:/usr/share/miniconda/envs/moose/x86_64-conda-linux-gnu/include/c++/9.3.0/ext/aligned_buffer.h
DA:65,0
DA:69,0
DA:104,60
LF:3
LH:1
end_of_record
SF:/usr/share/miniconda/envs/moose/x86_64-conda-linux-gnu/include/c++/9.3.0/iostream
LF:0
LH:0
end_of_record
SF:/usr/share/miniconda/envs/moose/x86_64-conda-linux-gnu/include/c++/9.3.0/bits/stl_map.h
FN:490,_ZNSt3mapINSt7__cxx1112basic_stringIcSt11char_traitsIcESaIcEEEN15InputParameters8MetadataESt4lessIS5_ESaISt4pairIKS5_S7_EEEixERSB_
FNDA:0,_ZNSt3mapINSt7__cxx1112basic_stringIcSt11char_traitsIcESaIcEEEN15InputParameters8MetadataESt4lessIS5_ESaISt4pairIKS5_S7_EEEixERSB_
FN:490,_ZNSt3mapINSt7__cxx1112basic_stringIcSt11char_traitsIcESaIcEEEPN7libMesh10Parameters5ValueESt4lessIS5_ESaISt4pairIKS5_S9_EEEixERSD_
FNDA:0,_ZNSt3mapINSt7__cxx1112basic_stringIcSt11char_traitsIcESaIcEEEPN7libMesh10Parameters5ValueESt4lessIS5_ESaISt4pairIKS5_S9_EEEixERSD_
FNF:2
FNH:0
DA:300,0
DA:355,0
DA:364,0
DA:464,0
DA:490,0
DA:497,0
DA:499,0
DA:505,0
DA:490,0
DA:497,0
DA:499,0
DA:505,0
DA:1037,0
DA:1169,0
DA:1194,0
DA:1258,0
LF:16
LH:0
end_of_record
SF:/home/runner/work/raccoon/raccoon/moose/framework/build/header_symlinks/PostprocessorInterface.h
FN:139,_ZNK22PostprocessorInterface32addPostprocessorDependencyHelperERK17PostprocessorName
FNDA:0,_ZNK22PostprocessorInterface32addPostprocessorDependencyHelperERK17PostprocessorName
FNF:1
FNH:0
DA:139,0
LF:1
LH:0
end_of_record
SF:/usr/share/miniconda/envs/moose/libmesh/include/libmesh/ostream_proxy.h
DA:116,0
DA:123,0
LF:2
LH:0
end_of_record
SF:/home/runner/work/raccoon/raccoon/moose/framework/build/header_symlinks/BlockRestrictable.h
FN:91,_ZN17BlockRestrictableD0Ev
FNDA:0,_ZN17BlockRestrictableD0Ev
FN:91,_ZN17BlockRestrictableD2Ev
FNDA:0,_ZN17BlockRestrictableD2Ev
FNF:2
FNH:0
DA:91,0
DA:91,0
LF:2
LH:0
end_of_record
SF:/usr/share/miniconda/envs/moose/x86_64-conda-linux-gnu/include/c++/9.3.0/bits/stl_set.h
FN:281,_ZNSt3setIsSt4lessIsESaIsEED2Ev
FNDA:0,_ZNSt3setIsSt4lessIsESaIsEED2Ev
FN:281,_ZNSt3setItSt4lessItESaItEED2Ev
FNDA:0,_ZNSt3setItSt4lessItESaItEED2Ev
FNF:2
FNH:0
DA:281,0
DA:281,0
DA:281,0
DA:511,0
DA:520,0
LF:5
LH:0
end_of_record
SF:/usr/share/miniconda/envs/moose/libmesh/include/libmesh/int_range.h
DA:63,0
DA:64,0
LF:2
LH:0
end_of_record
SF:/usr/share/miniconda/envs/moose/x86_64-conda-linux-gnu/include/c++/9.3.0/bits/stl_iterator.h
DA:206,0
DA:207,0
DA:255,0
DA:807,0
DA:992,0
LF:5
LH:0
end_of_record
SF:/home/runner/work/raccoon/raccoon/moose/framework/build/header_symlinks/OutputInterface.h
LF:0
LH:0
end_of_record
SF:/home/runner/work/raccoon/raccoon/src/materials/hardening_models/PowerLawHardening.C
FN:10,_ZN17PowerLawHardening11validParamsEv
FNDA:122,_ZN17PowerLawHardening11validParamsEv
FN:31,_ZN17PowerLawHardeningC2ERK15InputParameters
FNDA:18,_ZN17PowerLawHardeningC2ERK15InputParameters
FN:54,_ZN17PowerLawHardening13plasticEnergyERKN11MetaPhysicL10DualNumberIdNS0_28SemiDynamicSparseNumberArrayIdmNS0_8NWrapperILm50EEEEELb1EEEj
FNDA:499513,_ZN17PowerLawHardening13plasticEnergyERKN11MetaPhysicL10DualNumberIdNS0_28SemiDynamicSparseNumberArrayIdmNS0_8NWrapperILm50EEEEELb1EEEj
FNF:3
FNH:3
DA:10,122
DA:12,122
DA:13,122
DA:15,244
DA:16,244
DA:18,244
DA:21,244
DA:22,244
DA:26,244
DA:28,122
DA:31,18
DA:34,36
DA:35,36
DA:36,36
DA:38,36
DA:42,18
DA:43,36
DA:44,54
DA:48,18
DA:49,234
DA:51,18
DA:54,499513
DA:56,499513
DA:58,248928
DA:59,497856
DA:60,248928
DA:61,248928
DA:62,248928
DA:65,250585
DA:66,249918
DA:68,667
DA:69,2001
DA:70,1334
DA:72,0
LF:34
LH:33
end_of_record
SF:/home/runner/work/raccoon/raccoon/moose/framework/build/header_symlinks/MooseTypes.h
DA:880,30
DA:886,0
DA:919,147
LF:3
LH:2
end_of_record
SF:/usr/share/miniconda/envs/moose/x86_64-conda-linux-gnu/include/c++/9.3.0/bits/hashtable.h
FN:1348,_ZNSt10_HashtableINSt7__cxx1112basic_stringIcSt11char_traitsIcESaIcEEESt4pairIKS5_S5_ESaIS8_ENSt8__detail10_Select1stESt8equal_toIS5_ESt4hashIS5_ENSA_18_Mod_range_hashingENSA_20_Default_ranged_hashENSA_20_Prime_rehash_policyENSA_17_Hashtable_traitsILb1ELb0ELb1EEEED2Ev
FNDA:0,_ZNSt10_HashtableINSt7__cxx1112basic_stringIcSt11char_traitsIcESaIcEEESt4pairIKS5_S5_ESaIS8_ENSt8__detail10_Select1stESt8equal_toIS5_ESt4hashIS5_ENSA_18_Mod_range_hashingENSA_20_Default_ranged_hashENSA_20_Prime_rehash_policyENSA_17_Hashtable_traitsILb1ELb0ELb1EEEED2Ev
FN:1348,_ZNSt10_HashtableINSt7__cxx1112basic_stringIcSt11char_traitsIcESaIcEEESt4pairIKS5_St6vectorIP19MooseVariableScalarSaISA_EEESaISD_ENSt8__detail10_Select1stESt8equal_toIS5_ESt4hashIS5_ENSF_18_Mod_range_hashingENSF_20_Default_ranged_hashENSF_20_Prime_rehash_policyENSF_17_Hashtable_traitsILb1ELb0ELb1EEEED2Ev
FNDA:0,_ZNSt10_HashtableINSt7__cxx1112basic_stringIcSt11char_traitsIcESaIcEEESt4pairIKS5_St6vectorIP19MooseVariableScalarSaISA_EEESaISD_ENSt8__detail10_Select1stESt8equal_toIS5_ESt4hashIS5_ENSF_18_Mod_range_hashingENSF_20_Default_ranged_hashENSF_20_Prime_rehash_policyENSF_17_Hashtable_traitsILb1ELb0ELb1EEEED2Ev
FN:1348,_ZNSt10_HashtableINSt7__cxx1112basic_stringIcSt11char_traitsIcESaIcEEESt4pairIKS5_St10unique_ptrI10MooseArrayIdESt14default_deleteISA_EEESaISE_ENSt8__detail10_Select1stESt8equal_toIS5_ESt4hashIS5_ENSG_18_Mod_range_hashingENSG_20_Default_ranged_hashENSG_20_Prime_rehash_policyENSG_17_Hashtable_traitsILb1ELb0ELb1EEEED2Ev
FNDA:0,_ZNSt10_HashtableINSt7__cxx1112basic_stringIcSt11char_traitsIcESaIcEEESt4pairIKS5_St10unique_ptrI10MooseArrayIdESt14default_deleteISA_EEESaISE_ENSt8__detail10_Select1stESt8equal_toIS5_ESt4hashIS5_ENSG_18_Mod_range_hashingENSG_20_Default_ranged_hashENSG_20_Prime_rehash_policyENSG_17_Hashtable_traitsILb1ELb0ELb1EEEED2Ev
FN:1348,_ZNSt10_HashtableINSt7__cxx1112basic_stringIcSt11char_traitsIcESaIcEEESt4pairIKS5_St10unique_ptrI10MooseArrayIN11MetaPhysicL10DualNumberIdNSA_28SemiDynamicSparseNumberArrayIdmNSA_8NWrapperILm50EEEEELb1EEEESt14default_deleteISH_EEESaISL_ENSt8__detail10_Select1stESt8equal_toIS5_ESt4hashIS5_ENSN_18_Mod_range_hashingENSN_20_Default_ranged_hashENSN_20_Prime_rehash_policyENSN_17_Hashtable_traitsILb1ELb0ELb1EEEED2Ev
FNDA:0,_ZNSt10_HashtableINSt7__cxx1112basic_stringIcSt11char_traitsIcESaIcEEESt4pairIKS5_St10unique_ptrI10MooseArrayIN11MetaPhysicL10DualNumberIdNSA_28SemiDynamicSparseNumberArrayIdmNSA_8NWrapperILm50EEEEELb1EEEESt14default_deleteISH_EEESaISL_ENSt8__detail10_Select1stESt8equal_toIS5_ESt4hashIS5_ENSN_18_Mod_range_hashingENSN_20_Default_ranged_hashENSN_20_Prime_rehash_policyENSN_17_Hashtable_traitsILb1ELb0ELb1EEEED2Ev
FN:1348,_ZNSt10_HashtableINSt7__cxx1112basic_stringIcSt11char_traitsIcESaIcEEESt4pairIKS5_St6vectorIP22MooseVariableFieldBaseSaISA_EEESaISD_ENSt8__detail10_Select1stESt8equal_toIS5_ESt4hashIS5_ENSF_18_Mod_range_hashingENSF_20_Default_ranged_hashENSF_20_Prime_rehash_policyENSF_17_Hashtable_traitsILb1ELb0ELb1EEEED2Ev
FNDA:0,_ZNSt10_HashtableINSt7__cxx1112basic_stringIcSt11char_traitsIcESaIcEEESt4pairIKS5_St6vectorIP22MooseVariableFieldBaseSaISA_EEESaISD_ENSt8__detail10_Select1stESt8equal_toIS5_ESt4hashIS5_ENSF_18_Mod_range_hashingENSF_20_Default_ranged_hashENSF_20_Prime_rehash_policyENSF_17_Hashtable_traitsILb1ELb0ELb1EEEED2Ev
FN:1348,_ZNSt10_HashtableINSt7__cxx1112basic_stringIcSt11char_traitsIcESaIcEEESt4pairIKS5_St6vectorISt10unique_ptrI10MooseArrayIdESt14default_deleteISB_EESaISE_EEESaISH_ENSt8__detail10_Select1stESt8equal_toIS5_ESt4hashIS5_ENSJ_18_Mod_range_hashingENSJ_20_Default_ranged_hashENSJ_20_Prime_rehash_policyENSJ_17_Hashtable_traitsILb1ELb0ELb1EEEED2Ev
FNDA:0,_ZNSt10_HashtableINSt7__cxx1112basic_stringIcSt11char_traitsIcESaIcEEESt4pairIKS5_St6vectorISt10unique_ptrI10MooseArrayIdESt14default_deleteISB_EESaISE_EEESaISH_ENSt8__detail10_Select1stESt8equal_toIS5_ESt4hashIS5_ENSJ_18_Mod_range_hashingENSJ_20_Default_ranged_hashENSJ_20_Prime_rehash_policyENSJ_17_Hashtable_traitsILb1ELb0ELb1EEEED2Ev
FN:1348,_ZNSt10_HashtableINSt7__cxx1112basic_stringIcSt11char_traitsIcESaIcEEESt4pairIKS5_St10unique_ptrI10MooseArrayIN7libMesh11VectorValueIdEEESt14default_deleteISD_EEESaISH_ENSt8__detail10_Select1stESt8equal_toIS5_ESt4hashIS5_ENSJ_18_Mod_range_hashingENSJ_20_Default_ranged_hashENSJ_20_Prime_rehash_policyENSJ_17_Hashtable_traitsILb1ELb0ELb1EEEED2Ev
FNDA:0,_ZNSt10_HashtableINSt7__cxx1112basic_stringIcSt11char_traitsIcESaIcEEESt4pairIKS5_St10unique_ptrI10MooseArrayIN7libMesh11VectorValueIdEEESt14default_deleteISD_EEESaISH_ENSt8__detail10_Select1stESt8equal_toIS5_ESt4hashIS5_ENSJ_18_Mod_range_hashingENSJ_20_Default_ranged_hashENSJ_20_Prime_rehash_policyENSJ_17_Hashtable_traitsILb1ELb0ELb1EEEED2Ev
FN:1348,_ZNSt10_HashtableINSt7__cxx1112basic_stringIcSt11char_traitsIcESaIcEEESt4pairIKS5_St10unique_ptrI10MooseArrayIN5Eigen6MatrixIdLin1ELi1ELi0ELin1ELi1EEEESt14default_deleteISD_EEESaISH_ENSt8__detail10_Select1stESt8equal_toIS5_ESt4hashIS5_ENSJ_18_Mod_range_hashingENSJ_20_Default_ranged_hashENSJ_20_Prime_rehash_policyENSJ_17_Hashtable_traitsILb1ELb0ELb1EEEED2Ev
FNDA:0,_ZNSt10_HashtableINSt7__cxx1112basic_stringIcSt11char_traitsIcESaIcEEESt4pairIKS5_St10unique_ptrI10MooseArrayIN5Eigen6MatrixIdLin1ELi1ELi0ELin1ELi1EEEESt14default_deleteISD_EEESaISH_ENSt8__detail10_Select1stESt8equal_toIS5_ESt4hashIS5_ENSJ_18_Mod_range_hashingENSJ_20_Default_ranged_hashENSJ_20_Prime_rehash_policyENSJ_17_Hashtable_traitsILb1ELb0ELb1EEEED2Ev
FN:1348,_ZNSt10_HashtableINSt7__cxx1112basic_stringIcSt11char_traitsIcESaIcEEESt4pairIKS5_St10unique_ptrI10MooseArrayIN7libMesh11VectorValueIN11MetaPhysicL10DualNumberIdNSC_28SemiDynamicSparseNumberArrayIdmNSC_8NWrapperILm50EEEEELb1EEEEEESt14default_deleteISK_EEESaISO_ENSt8__detail10_Select1stESt8equal_toIS5_ESt4hashIS5_ENSQ_18_Mod_range_hashingENSQ_20_Default_ranged_hashENSQ_20_Prime_rehash_policyENSQ_17_Hashtable_traitsILb1ELb0ELb1EEEED2Ev
FNDA:0,_ZNSt10_HashtableINSt7__cxx1112basic_stringIcSt11char_traitsIcESaIcEEESt4pairIKS5_St10unique_ptrI10MooseArrayIN7libMesh11VectorValueIN11MetaPhysicL10DualNumberIdNSC_28SemiDynamicSparseNumberArrayIdmNSC_8NWrapperILm50EEEEELb1EEEEEESt14default_deleteISK_EEESaISO_ENSt8__detail10_Select1stESt8equal_toIS5_ESt4hashIS5_ENSQ_18_Mod_range_hashingENSQ_20_Default_ranged_hashENSQ_20_Prime_rehash_policyENSQ_17_Hashtable_traitsILb1ELb0ELb1EEEED2Ev
FN:1348,_ZNSt10_HashtableINSt7__cxx1112basic_stringIcSt11char_traitsIcESaIcEEESt4pairIKS5_St6vectorIjSaIjEEESaISB_ENSt8__detail10_Select1stESt8equal_toIS5_ESt4hashIS5_ENSD_18_Mod_range_hashingENSD_20_Default_ranged_hashENSD_20_Prime_rehash_policyENSD_17_Hashtable_traitsILb1ELb0ELb1EEEED2Ev
FNDA:0,_ZNSt10_HashtableINSt7__cxx1112basic_stringIcSt11char_traitsIcESaIcEEESt4pairIKS5_St6vectorIjSaIjEEESaISB_ENSt8__detail10_Select1stESt8equal_toIS5_ESt4hashIS5_ENSD_18_Mod_range_hashingENSD_20_Default_ranged_hashENSD_20_Prime_rehash_policyENSD_17_Hashtable_traitsILb1ELb0ELb1EEEED2Ev
FN:2024,_ZNSt10_HashtableINSt7__cxx1112basic_stringIcSt11char_traitsIcESaIcEEESt4pairIKS5_St6vectorIP19MooseVariableScalarSaISA_EEESaISD_ENSt8__detail10_Select1stESt8equal_toIS5_ESt4hashIS5_ENSF_18_Mod_range_hashingENSF_20_Default_ranged_hashENSF_20_Prime_rehash_policyENSF_17_Hashtable_traitsILb1ELb0ELb1EEEE5clearEv
FNDA:0,_ZNSt10_HashtableINSt7__cxx1112basic_stringIcSt11char_traitsIcESaIcEEESt4pairIKS5_St6vectorIP19MooseVariableScalarSaISA_EEESaISD_ENSt8__detail10_Select1stESt8equal_toIS5_ESt4hashIS5_ENSF_18_Mod_range_hashingENSF_20_Default_ranged_hashENSF_20_Prime_rehash_policyENSF_17_Hashtable_traitsILb1ELb0ELb1EEEE5clearEv
FN:2024,_ZNSt10_HashtableINSt7__cxx1112basic_stringIcSt11char_traitsIcESaIcEEESt4pairIKS5_St10unique_ptrI10MooseArrayIdESt14default_deleteISA_EEESaISE_ENSt8__detail10_Select1stESt8equal_toIS5_ESt4hashIS5_ENSG_18_Mod_range_hashingENSG_20_Default_ranged_hashENSG_20_Prime_rehash_policyENSG_17_Hashtable_traitsILb1ELb0ELb1EEEE5clearEv
FNDA:0,_ZNSt10_HashtableINSt7__cxx1112basic_stringIcSt11char_traitsIcESaIcEEESt4pairIKS5_St10unique_ptrI10MooseArrayIdESt14default_deleteISA_EEESaISE_ENSt8__detail10_Select1stESt8equal_toIS5_ESt4hashIS5_ENSG_18_Mod_range_hashingENSG_20_Default_ranged_hashENSG_20_Prime_rehash_policyENSG_17_Hashtable_traitsILb1ELb0ELb1EEEE5clearEv
FN:2024,_ZNSt10_HashtableINSt7__cxx1112basic_stringIcSt11char_traitsIcESaIcEEESt4pairIKS5_St10unique_ptrI10MooseArrayIN11MetaPhysicL10DualNumberIdNSA_28SemiDynamicSparseNumberArrayIdmNSA_8NWrapperILm50EEEEELb1EEEESt14default_deleteISH_EEESaISL_ENSt8__detail10_Select1stESt8equal_toIS5_ESt4hashIS5_ENSN_18_Mod_range_hashingENSN_20_Default_ranged_hashENSN_20_Prime_rehash_policyENSN_17_Hashtable_traitsILb1ELb0ELb1EEEE5clearEv
FNDA:0,_ZNSt10_HashtableINSt7__cxx1112basic_stringIcSt11char_traitsIcESaIcEEESt4pairIKS5_St10unique_ptrI10MooseArrayIN11MetaPhysicL10DualNumberIdNSA_28SemiDynamicSparseNumberArrayIdmNSA_8NWrapperILm50EEEEELb1EEEESt14default_deleteISH_EEESaISL_ENSt8__detail10_Select1stESt8equal_toIS5_ESt4hashIS5_ENSN_18_Mod_range_hashingENSN_20_Default_ranged_hashENSN_20_Prime_rehash_policyENSN_17_Hashtable_traitsILb1ELb0ELb1EEEE5clearEv
FN:2024,_ZNSt10_HashtableINSt7__cxx1112basic_stringIcSt11char_traitsIcESaIcEEESt4pairIKS5_St6vectorIP22MooseVariableFieldBaseSaISA_EEESaISD_ENSt8__detail10_Select1stESt8equal_toIS5_ESt4hashIS5_ENSF_18_Mod_range_hashingENSF_20_Default_ranged_hashENSF_20_Prime_rehash_policyENSF_17_Hashtable_traitsILb1ELb0ELb1EEEE5clearEv
FNDA:0,_ZNSt10_HashtableINSt7__cxx1112basic_stringIcSt11char_traitsIcESaIcEEESt4pairIKS5_St6vectorIP22MooseVariableFieldBaseSaISA_EEESaISD_ENSt8__detail10_Select1stESt8equal_toIS5_ESt4hashIS5_ENSF_18_Mod_range_hashingENSF_20_Default_ranged_hashENSF_20_Prime_rehash_policyENSF_17_Hashtable_traitsILb1ELb0ELb1EEEE5clearEv
FN:2024,_ZNSt10_HashtableINSt7__cxx1112basic_stringIcSt11char_traitsIcESaIcEEESt4pairIKS5_St6vectorISt10unique_ptrI10MooseArrayIdESt14default_deleteISB_EESaISE_EEESaISH_ENSt8__detail10_Select1stESt8equal_toIS5_ESt4hashIS5_ENSJ_18_Mod_range_hashingENSJ_20_Default_ranged_hashENSJ_20_Prime_rehash_policyENSJ_17_Hashtable_traitsILb1ELb0ELb1EEEE5clearEv
FNDA:0,_ZNSt10_HashtableINSt7__cxx1112basic_stringIcSt11char_traitsIcESaIcEEESt4pairIKS5_St6vectorISt10unique_ptrI10MooseArrayIdESt14default_deleteISB_EESaISE_EEESaISH_ENSt8__detail10_Select1stESt8equal_toIS5_ESt4hashIS5_ENSJ_18_Mod_range_hashingENSJ_20_Default_ranged_hashENSJ_20_Prime_rehash_policyENSJ_17_Hashtable_traitsILb1ELb0ELb1EEEE5clearEv
FN:2024,_ZNSt10_HashtableINSt7__cxx1112basic_stringIcSt11char_traitsIcESaIcEEESt4pairIKS5_St10unique_ptrI10MooseArrayIN7libMesh11VectorValueIdEEESt14default_deleteISD_EEESaISH_ENSt8__detail10_Select1stESt8equal_toIS5_ESt4hashIS5_ENSJ_18_Mod_range_hashingENSJ_20_Default_ranged_hashENSJ_20_Prime_rehash_policyENSJ_17_Hashtable_traitsILb1ELb0ELb1EEEE5clearEv
FNDA:0,_ZNSt10_HashtableINSt7__cxx1112basic_stringIcSt11char_traitsIcESaIcEEESt4pairIKS5_St10unique_ptrI10MooseArrayIN7libMesh11VectorValueIdEEESt14default_deleteISD_EEESaISH_ENSt8__detail10_Select1stESt8equal_toIS5_ESt4hashIS5_ENSJ_18_Mod_range_hashingENSJ_20_Default_ranged_hashENSJ_20_Prime_rehash_policyENSJ_17_Hashtable_traitsILb1ELb0ELb1EEEE5clearEv
FN:2024,_ZNSt10_HashtableINSt7__cxx1112basic_stringIcSt11char_traitsIcESaIcEEESt4pairIKS5_St10unique_ptrI10MooseArrayIN5Eigen6MatrixIdLin1ELi1ELi0ELin1ELi1EEEESt14default_deleteISD_EEESaISH_ENSt8__detail10_Select1stESt8equal_toIS5_ESt4hashIS5_ENSJ_18_Mod_range_hashingENSJ_20_Default_ranged_hashENSJ_20_Prime_rehash_policyENSJ_17_Hashtable_traitsILb1ELb0ELb1EEEE5clearEv
FNDA:0,_ZNSt10_HashtableINSt7__cxx1112basic_stringIcSt11char_traitsIcESaIcEEESt4pairIKS5_St10unique_ptrI10MooseArrayIN5Eigen6MatrixIdLin1ELi1ELi0ELin1ELi1EEEESt14default_deleteISD_EEESaISH_ENSt8__detail10_Select1stESt8equal_toIS5_ESt4hashIS5_ENSJ_18_Mod_range_hashingENSJ_20_Default_ranged_hashENSJ_20_Prime_rehash_policyENSJ_17_Hashtable_traitsILb1ELb0ELb1EEEE5clearEv
FN:2024,_ZNSt10_HashtableINSt7__cxx1112basic_stringIcSt11char_traitsIcESaIcEEESt4pairIKS5_St10unique_ptrI10MooseArrayIN7libMesh11VectorValueIN11MetaPhysicL10DualNumberIdNSC_28SemiDynamicSparseNumberArrayIdmNSC_8NWrapperILm50EEEEELb1EEEEEESt14default_deleteISK_EEESaISO_ENSt8__detail10_Select1stESt8equal_toIS5_ESt4hashIS5_ENSQ_18_Mod_range_hashingENSQ_20_Default_ranged_hashENSQ_20_Prime_rehash_policyENSQ_17_Hashtable_traitsILb1ELb0ELb1EEEE5clearEv
FNDA:0,_ZNSt10_HashtableINSt7__cxx1112basic_stringIcSt11char_traitsIcESaIcEEESt4pairIKS5_St10unique_ptrI10MooseArrayIN7libMesh11VectorValueIN11MetaPhysicL10DualNumberIdNSC_28SemiDynamicSparseNumberArrayIdmNSC_8NWrapperILm50EEEEELb1EEEEEESt14default_deleteISK_EEESaISO_ENSt8__detail10_Select1stESt8equal_toIS5_ESt4hashIS5_ENSQ_18_Mod_range_hashingENSQ_20_Default_ranged_hashENSQ_20_Prime_rehash_policyENSQ_17_Hashtable_traitsILb1ELb0ELb1EEEE5clearEv
FN:2024,_ZNSt10_HashtableINSt7__cxx1112basic_stringIcSt11char_traitsIcESaIcEEESt4pairIKS5_St6vectorIjSaIjEEESaISB_ENSt8__detail10_Select1stESt8equal_toIS5_ESt4hashIS5_ENSD_18_Mod_range_hashingENSD_20_Default_ranged_hashENSD_20_Prime_rehash_policyENSD_17_Hashtable_traitsILb1ELb0ELb1EEEE5clearEv
FNDA:0,_ZNSt10_HashtableINSt7__cxx1112basic_stringIcSt11char_traitsIcESaIcEEESt4pairIKS5_St6vectorIjSaIjEEESaISB_ENSt8__detail10_Select1stESt8equal_toIS5_ESt4hashIS5_ENSD_18_Mod_range_hashingENSD_20_Default_ranged_hashENSD_20_Prime_rehash_policyENSD_17_Hashtable_traitsILb1ELb0ELb1EEEE5clearEv
FN:2024,_ZNSt10_HashtableINSt7__cxx1112basic_stringIcSt11char_traitsIcESaIcEEESt4pairIKS5_S5_ESaIS8_ENSt8__detail10_Select1stESt8equal_toIS5_ESt4hashIS5_ENSA_18_Mod_range_hashingENSA_20_Default_ranged_hashENSA_20_Prime_rehash_policyENSA_17_Hashtable_traitsILb1ELb0ELb1EEEE5clearEv
FNDA:0,_ZNSt10_HashtableINSt7__cxx1112basic_stringIcSt11char_traitsIcESaIcEEESt4pairIKS5_S5_ESaIS8_ENSt8__detail10_Select1stESt8equal_toIS5_ESt4hashIS5_ENSA_18_Mod_range_hashingENSA_20_Default_ranged_hashENSA_20_Prime_rehash_policyENSA_17_Hashtable_traitsILb1ELb0ELb1EEEE5clearEv
FNF:20
FNH:0
DA:343,0
DA:367,0
DA:375,0
DA:1348,0
DA:1352,0
DA:1354,0
DA:1348,0
DA:1352,0
DA:1354,0
DA:1348,0
DA:1352,0
DA:1354,0
DA:1348,0
DA:1352,0
DA:1354,0
DA:1348,0
DA:1352,0
DA:1354,0
DA:1348,0
DA:1352,0
DA:1354,0
DA:1348,0
DA:1352,0
DA:1354,0
DA:1348,0
DA:1352,0
DA:1354,0
DA:1348,0
DA:1352,0
DA:1354,0
DA:1348,0
DA:1352,0
DA:1354,0
DA:2024,0
DA:2028,0
DA:2029,0
DA:2030,0
DA:2031,0
DA:2032,0
DA:2024,0
DA:2028,0
DA:2029,0
DA:2030,0
DA:2031,0
DA:2032,0
DA:2024,0
DA:2028,0
DA:2029,0
DA:2030,0
DA:2031,0
DA:2032,0
DA:2024,0
DA:2028,0
DA:2029,0
DA:2030,0
DA:2031,0
DA:2032,0
DA:2024,0
DA:2028,0
DA:2029,0
DA:2030,0
DA:2031,0
DA:2032,0
DA:2024,0
DA:2028,0
DA:2029,0
DA:2030,0
DA:2031,0
DA:2032,0
DA:2024,0
DA:2028,0
DA:2029,0
DA:2030,0
DA:2031,0
DA:2032,0
DA:2024,0
DA:2028,0
DA:2029,0
DA:2030,0
DA:2031,0
DA:2032,0
DA:2024,0
DA:2028,0
DA:2029,0
DA:2030,0
DA:2031,0
DA:2032,0
DA:2024,0
DA:2028,0
DA:2029,0
DA:2030,0
DA:2031,0
DA:2032,0
LF:93
LH:0
end_of_record
SF:/home/runner/work/raccoon/raccoon/moose/framework/build/header_symlinks/MaterialPropertyInterface.h
FN:501,_ZN25MaterialPropertyInterface27getADMaterialPropertyByNameIdEERK18ADMaterialPropertyIT_ERK20MaterialPropertyName
FNDA:0,_ZN25MaterialPropertyInterface27getADMaterialPropertyByNameIdEERK18ADMaterialPropertyIT_ERK20MaterialPropertyName
FNF:1
FNH:0
DA:247,0
DA:501,0
DA:503,0
DA:506,0
DA:507,0
DA:510,0
DA:513,0
DA:515,0
DA:518,0
DA:520,0
LF:10
LH:0
end_of_record
SF:/usr/share/miniconda/envs/moose/x86_64-conda-linux-gnu/include/c++/9.3.0/bits/stl_tree.h
FN:609,_ZNSt8_Rb_treeINSt7__cxx1112basic_stringIcSt11char_traitsIcESaIcEEESt4pairIKS5_N15InputParameters8MetadataEESt10_Select1stISA_ESt4lessIS5_ESaISA_EE17_M_construct_nodeIJRKSt21piecewise_construct_tSt5tupleIJRS7_EESL_IJEEEEEvPSt13_Rb_tree_nodeISA_EDpOT_
FNDA:0,_ZNSt8_Rb_treeINSt7__cxx1112basic_stringIcSt11char_traitsIcESaIcEEESt4pairIKS5_N15InputParameters8MetadataEESt10_Select1stISA_ESt4lessIS5_ESaISA_EE17_M_construct_nodeIJRKSt21piecewise_construct_tSt5tupleIJRS7_EESL_IJEEEEEvPSt13_Rb_tree_nodeISA_EDpOT_
FN:609,_ZNSt8_Rb_treeINSt7__cxx1112basic_stringIcSt11char_traitsIcESaIcEEESt4pairIKS5_PN7libMesh10Parameters5ValueEESt10_Select1stISC_ESt4lessIS5_ESaISC_EE17_M_construct_nodeIJRKSt21piecewise_construct_tSt5tupleIJRS7_EESN_IJEEEEEvPSt13_Rb_tree_nodeISC_EDpOT_
FNDA:0,_ZNSt8_Rb_treeINSt7__cxx1112basic_stringIcSt11char_traitsIcESaIcEEESt4pairIKS5_PN7libMesh10Parameters5ValueEESt10_Select1stISC_ESt4lessIS5_ESaISC_EE17_M_construct_nodeIJRKSt21piecewise_construct_tSt5tupleIJRS7_EESN_IJEEEEEvPSt13_Rb_tree_nodeISC_EDpOT_
FN:1281,_ZNSt8_Rb_treeINSt7__cxx1112basic_stringIcSt11char_traitsIcESaIcEEESt4pairIKS5_N15InputParameters8MetadataEESt10_Select1stISA_ESt4lessIS5_ESaISA_EE11lower_boundERS7_
FNDA:0,_ZNSt8_Rb_treeINSt7__cxx1112basic_stringIcSt11char_traitsIcESaIcEEESt4pairIKS5_N15InputParameters8MetadataEESt10_Select1stISA_ESt4lessIS5_ESaISA_EE11lower_boundERS7_
FN:1281,_ZNSt8_Rb_treeINSt7__cxx1112basic_stringIcSt11char_traitsIcESaIcEEESt4pairIKS5_PN7libMesh10Parameters5ValueEESt10_Select1stISC_ESt4lessIS5_ESaISC_EE11lower_boundERS7_
FNDA:0,_ZNSt8_Rb_treeINSt7__cxx1112basic_stringIcSt11char_traitsIcESaIcEEESt4pairIKS5_PN7libMesh10Parameters5ValueEESt10_Select1stISC_ESt4lessIS5_ESaISC_EE11lower_boundERS7_
FN:1797,_ZNSt8_Rb_treeINSt7__cxx1112basic_stringIcSt11char_traitsIcESaIcEEES5_St9_IdentityIS5_ESt4lessIS5_ESaIS5_EE10_M_insert_IRKS5_NSB_11_Alloc_nodeEEESt17_Rb_tree_iteratorIS5_EPSt18_Rb_tree_node_baseSJ_OT_RT0_
FNDA:0,_ZNSt8_Rb_treeINSt7__cxx1112basic_stringIcSt11char_traitsIcESaIcEEES5_St9_IdentityIS5_ESt4lessIS5_ESaIS5_EE10_M_insert_IRKS5_NSB_11_Alloc_nodeEEESt17_Rb_tree_iteratorIS5_EPSt18_Rb_tree_node_baseSJ_OT_RT0_
FN:1907,_ZNSt8_Rb_treeI13MooseEnumItemS0_St9_IdentityIS0_ESt4lessIS0_ESaIS0_EE8_M_eraseEPSt13_Rb_tree_nodeIS0_E
FNDA:0,_ZNSt8_Rb_treeI13MooseEnumItemS0_St9_IdentityIS0_ESt4lessIS0_ESaIS0_EE8_M_eraseEPSt13_Rb_tree_nodeIS0_E
FN:1907,_ZNSt8_Rb_treeINSt7__cxx1112basic_stringIcSt11char_traitsIcESaIcEEESt4pairIKS5_PN7libMesh10Parameters5ValueEESt10_Select1stISC_ESt4lessIS5_ESaISC_EE8_M_eraseEPSt13_Rb_tree_nodeISC_E
FNDA:0,_ZNSt8_Rb_treeINSt7__cxx1112basic_stringIcSt11char_traitsIcESaIcEEESt4pairIKS5_PN7libMesh10Parameters5ValueEESt10_Select1stISC_ESt4lessIS5_ESaISC_EE8_M_eraseEPSt13_Rb_tree_nodeISC_E
FN:1907,_ZNSt8_Rb_treeIttSt9_IdentityItESt4lessItESaItEE8_M_eraseEPSt13_Rb_tree_nodeItE
FNDA:0,_ZNSt8_Rb_treeIttSt9_IdentityItESt4lessItESaItEE8_M_eraseEPSt13_Rb_tree_nodeItE
FN:1907,_ZNSt8_Rb_treeIssSt9_IdentityIsESt4lessIsESaIsEE8_M_eraseEPSt13_Rb_tree_nodeIsE
FNDA:0,_ZNSt8_Rb_treeIssSt9_IdentityIsESt4lessIsESaIsEE8_M_eraseEPSt13_Rb_tree_nodeIsE
FN:1907,_ZNSt8_Rb_treeIP22MooseVariableFieldBaseS1_St9_IdentityIS1_ESt4lessIS1_ESaIS1_EE8_M_eraseEPSt13_Rb_tree_nodeIS1_E
FNDA:0,_ZNSt8_Rb_treeIP22MooseVariableFieldBaseS1_St9_IdentityIS1_ESt4lessIS1_ESaIS1_EE8_M_eraseEPSt13_Rb_tree_nodeIS1_E
FN:1907,_ZNSt8_Rb_treeIjjSt9_IdentityIjESt4lessIjESaIjEE8_M_eraseEPSt13_Rb_tree_nodeIjE
FNDA:0,_ZNSt8_Rb_treeIjjSt9_IdentityIjESt4lessIjESaIjEE8_M_eraseEPSt13_Rb_tree_nodeIjE
FN:1907,_ZNSt8_Rb_treeI17PostprocessorNameSt4pairIKS0_St10unique_ptrIdSt14default_deleteIdEEESt10_Select1stIS7_ESt4lessIS0_ESaIS7_EE8_M_eraseEPSt13_Rb_tree_nodeIS7_E
FNDA:0,_ZNSt8_Rb_treeI17PostprocessorNameSt4pairIKS0_St10unique_ptrIdSt14default_deleteIdEEESt10_Select1stIS7_ESt4lessIS0_ESaIS7_EE8_M_eraseEPSt13_Rb_tree_nodeIS7_E
FN:1907,_ZNSt8_Rb_treeI10OutputNameS0_St9_IdentityIS0_ESt4lessIS0_ESaIS0_EE8_M_eraseEPSt13_Rb_tree_nodeIS0_E
FNDA:0,_ZNSt8_Rb_treeI10OutputNameS0_St9_IdentityIS0_ESt4lessIS0_ESaIS0_EE8_M_eraseEPSt13_Rb_tree_nodeIS0_E
FN:1907,_ZNSt8_Rb_treeINSt7__cxx1112basic_stringIcSt11char_traitsIcESaIcEEES5_St9_IdentityIS5_ESt4lessIS5_ESaIS5_EE8_M_eraseEPSt13_Rb_tree_nodeIS5_E
FNDA:0,_ZNSt8_Rb_treeINSt7__cxx1112basic_stringIcSt11char_traitsIcESaIcEEES5_St9_IdentityIS5_ESt4lessIS5_ESaIS5_EE8_M_eraseEPSt13_Rb_tree_nodeIS5_E
FN:1907,_ZNSt8_Rb_treeINSt7__cxx1112basic_stringIcSt11char_traitsIcESaIcEEESt4pairIKS5_iESt10_Select1stIS8_ESt4lessIS5_ESaIS8_EE8_M_eraseEPSt13_Rb_tree_nodeIS8_E
FNDA:0,_ZNSt8_Rb_treeINSt7__cxx1112basic_stringIcSt11char_traitsIcESaIcEEESt4pairIKS5_iESt10_Select1stIS8_ESt4lessIS5_ESaIS8_EE8_M_eraseEPSt13_Rb_tree_nodeIS8_E
FN:1907,_ZNSt8_Rb_treeINSt7__cxx1112basic_stringIcSt11char_traitsIcESaIcEEESt4pairIKS5_N15InputParameters8MetadataEESt10_Select1stISA_ESt4lessIS5_ESaISA_EE8_M_eraseEPSt13_Rb_tree_nodeISA_E
FNDA:0,_ZNSt8_Rb_treeINSt7__cxx1112basic_stringIcSt11char_traitsIcESaIcEEESt4pairIKS5_N15InputParameters8MetadataEESt10_Select1stISA_ESt4lessIS5_ESaISA_EE8_M_eraseEPSt13_Rb_tree_nodeISA_E
FN:2085,_ZNSt8_Rb_treeINSt7__cxx1112basic_stringIcSt11char_traitsIcESaIcEEES5_St9_IdentityIS5_ESt4lessIS5_ESaIS5_EE24_M_get_insert_unique_posERKS5_
FNDA:0,_ZNSt8_Rb_treeINSt7__cxx1112basic_stringIcSt11char_traitsIcESaIcEEES5_St9_IdentityIS5_ESt4lessIS5_ESaIS5_EE24_M_get_insert_unique_posERKS5_
FN:2085,_ZNSt8_Rb_treeIjjSt9_IdentityIjESt4lessIjESaIjEE24_M_get_insert_unique_posERKj
FNDA:0,_ZNSt8_Rb_treeIjjSt9_IdentityIjESt4lessIjESaIjEE24_M_get_insert_unique_posERKj
FN:2085,_ZNSt8_Rb_treeINSt7__cxx1112basic_stringIcSt11char_traitsIcESaIcEEESt4pairIKS5_PN7libMesh10Parameters5ValueEESt10_Select1stISC_ESt4lessIS5_ESaISC_EE24_M_get_insert_unique_posERS7_
FNDA:0,_ZNSt8_Rb_treeINSt7__cxx1112basic_stringIcSt11char_traitsIcESaIcEEESt4pairIKS5_PN7libMesh10Parameters5ValueEESt10_Select1stISC_ESt4lessIS5_ESaISC_EE24_M_get_insert_unique_posERS7_
FN:2085,_ZNSt8_Rb_treeINSt7__cxx1112basic_stringIcSt11char_traitsIcESaIcEEESt4pairIKS5_N15InputParameters8MetadataEESt10_Select1stISA_ESt4lessIS5_ESaISA_EE24_M_get_insert_unique_posERS7_
FNDA:0,_ZNSt8_Rb_treeINSt7__cxx1112basic_stringIcSt11char_traitsIcESaIcEEESt4pairIKS5_N15InputParameters8MetadataEESt10_Select1stISA_ESt4lessIS5_ESaISA_EE24_M_get_insert_unique_posERS7_
FN:2139,_ZNSt8_Rb_treeINSt7__cxx1112basic_stringIcSt11char_traitsIcESaIcEEES5_St9_IdentityIS5_ESt4lessIS5_ESaIS5_EE16_M_insert_uniqueIRKS5_EESt4pairISt17_Rb_tree_iteratorIS5_EbEOT_
FNDA:0,_ZNSt8_Rb_treeINSt7__cxx1112basic_stringIcSt11char_traitsIcESaIcEEES5_St9_IdentityIS5_ESt4lessIS5_ESaIS5_EE16_M_insert_uniqueIRKS5_EESt4pairISt17_Rb_tree_iteratorIS5_EbEOT_
FN:2139,_ZNSt8_Rb_treeIjjSt9_IdentityIjESt4lessIjESaIjEE16_M_insert_uniqueIjEESt4pairISt17_Rb_tree_iteratorIjEbEOT_
FNDA:0,_ZNSt8_Rb_treeIjjSt9_IdentityIjESt4lessIjESaIjEE16_M_insert_uniqueIjEESt4pairISt17_Rb_tree_iteratorIjEbEOT_
FN:2187,_ZNSt8_Rb_treeINSt7__cxx1112basic_stringIcSt11char_traitsIcESaIcEEESt4pairIKS5_PN7libMesh10Parameters5ValueEESt10_Select1stISC_ESt4lessIS5_ESaISC_EE29_M_get_insert_hint_unique_posESt23_Rb_tree_const_iteratorISC_ERS7_
FNDA:0,_ZNSt8_Rb_treeINSt7__cxx1112basic_stringIcSt11char_traitsIcESaIcEEESt4pairIKS5_PN7libMesh10Parameters5ValueEESt10_Select1stISC_ESt4lessIS5_ESaISC_EE29_M_get_insert_hint_unique_posESt23_Rb_tree_const_iteratorISC_ERS7_
FN:2187,_ZNSt8_Rb_treeINSt7__cxx1112basic_stringIcSt11char_traitsIcESaIcEEESt4pairIKS5_N15InputParameters8MetadataEESt10_Select1stISA_ESt4lessIS5_ESaISA_EE29_M_get_insert_hint_unique_posESt23_Rb_tree_const_iteratorISA_ERS7_
FNDA:0,_ZNSt8_Rb_treeINSt7__cxx1112basic_stringIcSt11char_traitsIcESaIcEEESt4pairIKS5_N15InputParameters8MetadataEESt10_Select1stISA_ESt4lessIS5_ESaISA_EE29_M_get_insert_hint_unique_posESt23_Rb_tree_const_iteratorISA_ERS7_
FN:2354,_ZNSt8_Rb_treeINSt7__cxx1112basic_stringIcSt11char_traitsIcESaIcEEESt4pairIKS5_PN7libMesh10Parameters5ValueEESt10_Select1stISC_ESt4lessIS5_ESaISC_EE14_M_insert_nodeEPSt18_Rb_tree_node_baseSK_PSt13_Rb_tree_nodeISC_E
FNDA:0,_ZNSt8_Rb_treeINSt7__cxx1112basic_stringIcSt11char_traitsIcESaIcEEESt4pairIKS5_PN7libMesh10Parameters5ValueEESt10_Select1stISC_ESt4lessIS5_ESaISC_EE14_M_insert_nodeEPSt18_Rb_tree_node_baseSK_PSt13_Rb_tree_nodeISC_E
FN:2354,_ZNSt8_Rb_treeINSt7__cxx1112basic_stringIcSt11char_traitsIcESaIcEEESt4pairIKS5_N15InputParameters8MetadataEESt10_Select1stISA_ESt4lessIS5_ESaISA_EE14_M_insert_nodeEPSt18_Rb_tree_node_baseSI_PSt13_Rb_tree_nodeISA_E
FNDA:0,_ZNSt8_Rb_treeINSt7__cxx1112basic_stringIcSt11char_traitsIcESaIcEEESt4pairIKS5_N15InputParameters8MetadataEESt10_Select1stISA_ESt4lessIS5_ESaISA_EE14_M_insert_nodeEPSt18_Rb_tree_node_baseSI_PSt13_Rb_tree_nodeISA_E
FN:2452,_ZNSt8_Rb_treeINSt7__cxx1112basic_stringIcSt11char_traitsIcESaIcEEESt4pairIKS5_N15InputParameters8MetadataEESt10_Select1stISA_ESt4lessIS5_ESaISA_EE22_M_emplace_hint_uniqueIJRKSt21piecewise_construct_tSt5tupleIJRS7_EESL_IJEEEEESt17_Rb_tree_iteratorISA_ESt23_Rb_tree_const_iteratorISA_EDpOT_
FNDA:0,_ZNSt8_Rb_treeINSt7__cxx1112basic_stringIcSt11char_traitsIcESaIcEEESt4pairIKS5_N15InputParameters8MetadataEESt10_Select1stISA_ESt4lessIS5_ESaISA_EE22_M_emplace_hint_uniqueIJRKSt21piecewise_construct_tSt5tupleIJRS7_EESL_IJEEEEESt17_Rb_tree_iteratorISA_ESt23_Rb_tree_const_iteratorISA_EDpOT_
FN:2452,_ZNSt8_Rb_treeINSt7__cxx1112basic_stringIcSt11char_traitsIcESaIcEEESt4pairIKS5_PN7libMesh10Parameters5ValueEESt10_Select1stISC_ESt4lessIS5_ESaISC_EE22_M_emplace_hint_uniqueIJRKSt21piecewise_construct_tSt5tupleIJRS7_EESN_IJEEEEESt17_Rb_tree_iteratorISC_ESt23_Rb_tree_const_iteratorISC_EDpOT_
FNDA:0,_ZNSt8_Rb_treeINSt7__cxx1112basic_stringIcSt11char_traitsIcESaIcEEESt4pairIKS5_PN7libMesh10Parameters5ValueEESt10_Select1stISC_ESt4lessIS5_ESaISC_EE22_M_emplace_hint_uniqueIJRKSt21piecewise_construct_tSt5tupleIJRS7_EESN_IJEEEEESt17_Rb_tree_iteratorISC_ESt23_Rb_tree_const_iteratorISC_EDpOT_
FN:2504,_ZNSt8_Rb_treeINSt7__cxx1112basic_stringIcSt11char_traitsIcESaIcEEESt4pairIKS5_PN7libMesh10Parameters5ValueEESt10_Select1stISC_ESt4lessIS5_ESaISC_EE12_M_erase_auxESt23_Rb_tree_const_iteratorISC_E
FNDA:0,_ZNSt8_Rb_treeINSt7__cxx1112basic_stringIcSt11char_traitsIcESaIcEEESt4pairIKS5_PN7libMesh10Parameters5ValueEESt10_Select1stISC_ESt4lessIS5_ESaISC_EE12_M_erase_auxESt23_Rb_tree_const_iteratorISC_E
FN:2554,_ZNSt8_Rb_treeINSt7__cxx1112basic_stringIcSt11char_traitsIcESaIcEEESt4pairIKS5_PN7libMesh10Parameters5ValueEESt10_Select1stISC_ESt4lessIS5_ESaISC_EE4findERS7_
FNDA:0,_ZNSt8_Rb_treeINSt7__cxx1112basic_stringIcSt11char_traitsIcESaIcEEESt4pairIKS5_PN7libMesh10Parameters5ValueEESt10_Select1stISC_ESt4lessIS5_ESaISC_EE4findERS7_
FN:2567,_ZNKSt8_Rb_treeINSt7__cxx1112basic_stringIcSt11char_traitsIcESaIcEEESt4pairIKS5_PN7libMesh10Parameters5ValueEESt10_Select1stISC_ESt4lessIS5_ESaISC_EE4findERS7_
FNDA:0,_ZNKSt8_Rb_treeINSt7__cxx1112basic_stringIcSt11char_traitsIcESaIcEEESt4pairIKS5_PN7libMesh10Parameters5ValueEESt10_Select1stISC_ESt4lessIS5_ESaISC_EE4findERS7_
FNF:31
FNH:0
DA:287,0
DA:302,0
DA:303,0
DA:348,0
DA:349,0
DA:366,0
DA:367,0
DA:538,0
DA:539,0
DA:609,0
DA:618,0
DA:620,0
DA:622,0
DA:624,0
DA:609,0
DA:618,0
DA:620,0
DA:622,0
DA:624,0
DA:631,0
DA:643,0
DA:756,0
DA:760,0
DA:995,0
DA:1015,0
DA:1019,0
DA:1220,0
DA:1281,0
DA:1282,0
DA:1281,0
DA:1282,0
DA:1797,0
DA:1806,0
DA:1807,0
DA:1812,0
DA:1813,0
DA:1814,0
DA:1815,0
DA:1907,0
DA:1911,0
DA:1913,0
DA:1914,0
DA:1918,0
DA:1907,0
DA:1911,0
DA:1913,0
DA:1914,0
DA:1918,0
DA:1907,0
DA:1911,0
DA:1913,0
DA:1914,0
DA:1915,0
DA:1918,0
DA:1907,0
DA:1911,0
DA:1913,0
DA:1914,0
DA:1915,0
DA:1918,0
DA:1907,0
DA:1911,0
DA:1913,0
DA:1914,0
DA:1915,0
DA:1918,0
DA:1907,0
DA:1911,0
DA:1913,0
DA:1914,0
DA:1918,0
DA:1907,0
DA:1911,0
DA:1913,0
DA:1914,0
DA:1918,0
DA:1907,0
DA:1911,0
DA:1913,0
DA:1914,0
DA:1918,0
DA:1907,0
DA:1911,0
DA:1913,0
DA:1914,0
DA:1918,0
DA:1907,0
DA:1911,0
DA:1913,0
DA:1914,0
DA:1918,0
DA:1907,0
DA:1911,0
DA:1913,0
DA:1914,0
DA:1915,0
DA:1918,0
DA:1928,0
DA:1929,0
DA:1930,0
DA:1932,0
DA:1944,0
DA:1945,0
DA:1946,0
DA:1948,0
DA:2085,0
DA:2089,0
DA:2092,0
DA:2096,0
DA:2099,0
DA:2101,0
DA:2102,0
DA:2106,0
DA:2107,0
DA:2108,0
DA:2085,0
DA:2089,0
DA:2092,0
DA:2096,0
DA:2099,0
DA:2101,0
DA:2102,0
DA:2106,0
DA:2107,0
DA:2108,0
DA:2085,0
DA:2089,0
DA:2092,0
DA:2095,0
DA:2096,0
DA:2099,0
DA:2101,0
DA:2102,0
DA:2106,0
DA:2107,0
DA:2108,0
DA:2085,0
DA:2089,0
DA:2092,0
DA:2096,0
DA:2099,0
DA:2101,0
DA:2102,0
DA:2106,0
DA:2107,0
DA:2108,0
DA:2139,0
DA:2147,0
DA:2150,0
DA:2153,0
DA:2155,0
DA:2158,0
DA:2139,0
DA:2147,0
DA:2150,0
DA:2153,0
DA:2155,0
DA:2158,0
DA:2187,0
DA:2191,0
DA:2195,0
DA:2197,0
DA:2198,0
DA:2199,0
DA:2201,0
DA:2203,0
DA:2207,0
DA:2208,0
DA:2209,0
DA:2211,0
DA:2212,0
DA:2214,0
DA:2217,0
DA:2219,0
DA:2223,0
DA:2224,0
DA:2225,0
DA:2227,0
DA:2228,0
DA:2230,0
DA:2233,0
DA:2237,0
DA:2187,0
DA:2191,0
DA:2195,0
DA:2197,0
DA:2198,0
DA:2199,0
DA:2201,0
DA:2203,0
DA:2207,0
DA:2208,0
DA:2209,0
DA:2211,0
DA:2212,0
DA:2214,0
DA:2217,0
DA:2219,0
DA:2223,0
DA:2224,0
DA:2225,0
DA:2227,0
DA:2228,0
DA:2230,0
DA:2233,0
DA:2237,0
DA:2354,0
DA:2357,0
DA:2358,0
DA:2361,0
DA:2362,0
DA:2363,0
DA:2364,0
DA:2354,0
DA:2357,0
DA:2358,0
DA:2361,0
DA:2362,0
DA:2363,0
DA:2364,0
DA:2452,0
DA:2459,0
DA:2461,0
DA:2462,0
DA:2465,0
DA:2452,0
DA:2459,0
DA:2461,0
DA:2462,0
DA:2464,0
DA:2465,0
DA:2504,0
DA:2509,0
DA:2510,0
DA:2511,0
DA:2512,0
DA:2513,0
DA:2554,0
DA:2557,0
DA:2559,0
DA:2560,0
DA:2567,0
DA:2570,0
DA:2572,0
DA:2573,0
LF:245
LH:0
end_of_record
SF:/usr/share/miniconda/envs/moose/libmesh/include/libmesh/parameters.h
FN:132,_ZN7libMesh10Parameters14set_attributesERKNSt7__cxx1112basic_stringIcSt11char_traitsIcESaIcEEEb
FNDA:0,_ZN7libMesh10Parameters14set_attributesERKNSt7__cxx1112basic_stringIcSt11char_traitsIcESaIcEEEb
FN:285,_ZNK7libMesh10Parameters9ParameterIP13FEProblemBaseE4typeB5cxx11Ev
FNDA:0,_ZNK7libMesh10Parameters9ParameterIP13FEProblemBaseE4typeB5cxx11Ev
FN:285,_ZNK7libMesh10Parameters9ParameterIdE4typeB5cxx11Ev
FNDA:0,_ZNK7libMesh10Parameters9ParameterIdE4typeB5cxx11Ev
FN:285,_ZNK7libMesh10Parameters9ParameterIbE4typeB5cxx11Ev
FNDA:0,_ZNK7libMesh10Parameters9ParameterIbE4typeB5cxx11Ev
FN:285,_ZNK7libMesh10Parameters9ParameterI20MaterialPropertyNameE4typeB5cxx11Ev
FNDA:0,_ZNK7libMesh10Parameters9ParameterI20MaterialPropertyNameE4typeB5cxx11Ev
FN:293,_ZNK7libMesh10Parameters9ParameterIP13FEProblemBaseE5printERSo
FNDA:0,_ZNK7libMesh10Parameters9ParameterIP13FEProblemBaseE5printERSo
FN:293,_ZNK7libMesh10Parameters9ParameterIdE5printERSo
FNDA:0,_ZNK7libMesh10Parameters9ParameterIdE5printERSo
FN:293,_ZNK7libMesh10Parameters9ParameterI20MaterialPropertyNameE5printERSo
FNDA:0,_ZNK7libMesh10Parameters9ParameterI20MaterialPropertyNameE5printERSo
FN:293,_ZNK7libMesh10Parameters9ParameterIbE5printERSo
FNDA:0,_ZNK7libMesh10Parameters9ParameterIbE5printERSo
FN:301,_ZNK7libMesh10Parameters9ParameterI20MaterialPropertyNameE5cloneEv
FNDA:0,_ZNK7libMesh10Parameters9ParameterI20MaterialPropertyNameE5cloneEv
FN:301,_ZNK7libMesh10Parameters9ParameterIP13FEProblemBaseE5cloneEv
FNDA:0,_ZNK7libMesh10Parameters9ParameterIP13FEProblemBaseE5cloneEv
FN:301,_ZNK7libMesh10Parameters9ParameterIbE5cloneEv
FNDA:0,_ZNK7libMesh10Parameters9ParameterIbE5cloneEv
FN:301,_ZNK7libMesh10Parameters9ParameterIdE5cloneEv
FNDA:0,_ZNK7libMesh10Parameters9ParameterIdE5cloneEv
FN:316,_ZN7libMesh10Parameters5clearEv
FNDA:0,_ZN7libMesh10Parameters5clearEv
FN:332,_ZN7libMesh10ParametersaSERKS0_
FNDA:0,_ZN7libMesh10ParametersaSERKS0_
FN:341,_ZN7libMesh10ParameterspLERKS0_
FNDA:0,_ZN7libMesh10ParameterspLERKS0_
FN:362,_ZN7libMesh10ParametersD0Ev
FNDA:0,_ZN7libMesh10ParametersD0Ev
FN:362,_ZN7libMesh10ParametersD2Ev
FNDA:0,_ZN7libMesh10ParametersD2Ev
FN:370,_ZNK7libMesh10Parameters5printERSo
FNDA:0,_ZNK7libMesh10Parameters5printERSo
FN:405,_ZNK7libMesh10Parameters14have_parameterIdEEbRKNSt7__cxx1112basic_stringIcSt11char_traitsIcESaIcEEE
FNDA:0,_ZNK7libMesh10Parameters14have_parameterIdEEbRKNSt7__cxx1112basic_stringIcSt11char_traitsIcESaIcEEE
FN:405,_ZNK7libMesh10Parameters14have_parameterIbEEbRKNSt7__cxx1112basic_stringIcSt11char_traitsIcESaIcEEE
FNDA:0,_ZNK7libMesh10Parameters14have_parameterIbEEbRKNSt7__cxx1112basic_stringIcSt11char_traitsIcESaIcEEE
FN:405,_ZNK7libMesh10Parameters14have_parameterI20MaterialPropertyNameEEbRKNSt7__cxx1112basic_stringIcSt11char_traitsIcESaIcEEE
FNDA:0,_ZNK7libMesh10Parameters14have_parameterI20MaterialPropertyNameEEbRKNSt7__cxx1112basic_stringIcSt11char_traitsIcESaIcEEE
FN:424,_ZNK7libMesh10Parameters3getIdEERKT_RKNSt7__cxx1112basic_stringIcSt11char_traitsIcESaIcEEE
FNDA:0,_ZNK7libMesh10Parameters3getIdEERKT_RKNSt7__cxx1112basic_stringIcSt11char_traitsIcESaIcEEE
FN:424,_ZNK7libMesh10Parameters3getI20MaterialPropertyNameEERKT_RKNSt7__cxx1112basic_stringIcSt11char_traitsIcESaIcEEE
FNDA:0,_ZNK7libMesh10Parameters3getI20MaterialPropertyNameEERKT_RKNSt7__cxx1112basic_stringIcSt11char_traitsIcESaIcEEE
FN:452,_ZN7libMesh10Parameters6insertIdEEvRKNSt7__cxx1112basic_stringIcSt11char_traitsIcESaIcEEE
FNDA:0,_ZN7libMesh10Parameters6insertIdEEvRKNSt7__cxx1112basic_stringIcSt11char_traitsIcESaIcEEE
FN:452,_ZN7libMesh10Parameters6insertI20MaterialPropertyNameEEvRKNSt7__cxx1112basic_stringIcSt11char_traitsIcESaIcEEE
FNDA:0,_ZN7libMesh10Parameters6insertI20MaterialPropertyNameEEvRKNSt7__cxx1112basic_stringIcSt11char_traitsIcESaIcEEE
FNF:26
FNH:0
DA:132,0
DA:200,0
DA:207,0
DA:212,0
DA:285,0
DA:287,0
DA:285,0
DA:287,0
DA:285,0
DA:287,0
DA:285,0
DA:287,0
DA:293,0
DA:296,0
DA:297,0
DA:293,0
DA:296,0
DA:297,0
DA:293,0
DA:297,0
DA:293,0
DA:296,0
DA:297,0
DA:301,0
DA:303,0
DA:307,0
DA:309,0
DA:301,0
DA:303,0
DA:307,0
DA:309,0
DA:301,0
DA:303,0
DA:309,0
DA:301,0
DA:303,0
DA:307,0
DA:309,0
DA:316,0
DA:318,0
DA:322,0
DA:323,0
DA:327,0
DA:332,0
DA:334,0
DA:335,0
DA:337,0
DA:341,0
DA:343,0
DA:345,0
DA:346,0
DA:347,0
DA:350,0
DA:362,0
DA:364,0
DA:365,0
DA:362,0
DA:364,0
DA:365,0
DA:362,0
DA:364,0
DA:370,0
DA:375,0
DA:376,0
DA:380,0
DA:382,0
DA:383,0
DA:387,0
DA:397,0
DA:405,0
DA:409,0
DA:411,0
DA:415,0
DA:405,0
DA:409,0
DA:411,0
DA:415,0
DA:405,0
DA:409,0
DA:411,0
DA:415,0
DA:424,0
DA:426,0
DA:428,0
DA:430,0
DA:432,0
DA:439,0
DA:447,0
DA:424,0
DA:426,0
DA:428,0
DA:430,0
DA:432,0
DA:439,0
DA:447,0
DA:452,0
DA:454,0
DA:455,0
DA:457,0
DA:458,0
DA:452,0
DA:454,0
DA:455,0
DA:457,0
DA:458,0
DA:535,0
LF:106
LH:0
end_of_record
SF:/home/runner/work/raccoon/raccoon/build/header_symlinks/ArrheniusLawHardening.h
LF:0
LH:0
end_of_record
SF:/usr/share/miniconda/envs/moose/x86_64-conda-linux-gnu/include/c++/9.3.0/bits/stl_pair.h
DA:342,0
LF:1
LH:0
end_of_record
SF:/usr/share/miniconda/envs/moose/libmesh/include/libmesh/elem.h
FN:564,_ZNK7libMesh4Elem9is_remoteEv
FNDA:0,_ZNK7libMesh4Elem9is_remoteEv
FN:622,_ZNK7libMesh4Elem16n_nodes_in_childEj
FNDA:0,_ZNK7libMesh4Elem16n_nodes_in_childEj
FN:703,_ZNK7libMesh4Elem18is_vertex_on_childEjj
FNDA:0,_ZNK7libMesh4Elem18is_vertex_on_childEjj
FN:972,_ZNK7libMesh4Elem11qual_boundsENS_11ElemQualityE
FNDA:0,_ZNK7libMesh4Elem11qual_boundsENS_11ElemQualityE
FN:1012,_ZNK7libMesh4Elem14has_affine_mapEv
FNDA:0,_ZNK7libMesh4Elem14has_affine_mapEv
FN:1028,_ZNK7libMesh4Elem9is_linearEv
FNDA:0,_ZNK7libMesh4Elem9is_linearEv
FN:1632,_ZNK7libMesh4Elem19local_singular_nodeERKNS_5PointEd
FNDA:0,_ZNK7libMesh4Elem19local_singular_nodeERKNS_5PointEd
FN:1639,_ZNK7libMesh4Elem16is_singular_nodeEj
FNDA:0,_ZNK7libMesh4Elem16is_singular_nodeEj
FN:1799,_ZNK7libMesh4Elem24embedding_matrix_versionEv
FNDA:0,_ZNK7libMesh4Elem24embedding_matrix_versionEv
FN:1915,_ZNK7libMesh4Elem26_get_bracketing_node_cacheEv
FNDA:0,_ZNK7libMesh4Elem26_get_bracketing_node_cacheEv
FN:1929,_ZNK7libMesh4Elem25_get_parent_indices_cacheEv
FNDA:0,_ZNK7libMesh4Elem25_get_parent_indices_cacheEv
FN:2267,_ZN7libMesh4Elem8set_nodeEj
FNDA:0,_ZN7libMesh4Elem8set_nodeEj
FNF:12
FNH:0
DA:564,0
DA:565,0
DA:622,0
DA:623,0
DA:703,0
DA:705,0
DA:972,0
DA:973,0
DA:1012,0
DA:1028,0
DA:1632,0
DA:1633,0
DA:1639,0
DA:1799,0
DA:1915,0
DA:1917,0
DA:1918,0
DA:1929,0
DA:1931,0
DA:1932,0
DA:2267,0
DA:2271,0
LF:22
LH:0
end_of_record
SF:/home/runner/work/raccoon/raccoon/moose/framework/build/header_symlinks/ScalarCoupleable.h
LF:0
LH:0
end_of_record
SF:/usr/share/miniconda/envs/moose/libmesh/include/Eigen/src/Core/PlainObjectBase.h
LF:0
LH:0
end_of_record
SF:/usr/share/miniconda/envs/moose/x86_64-conda-linux-gnu/include/c++/9.3.0/bits/locale_facets.h
FN:886,_ZNKSt5ctypeIcE5widenEc
FNDA:0,_ZNKSt5ctypeIcE5widenEc
FN:1098,_ZNKSt5ctypeIcE8do_widenEc
FNDA:0,_ZNKSt5ctypeIcE8do_widenEc
FNF:2
FNH:0
DA:886,0
DA:888,0
DA:889,0
DA:890,0
DA:891,0
DA:1098,0
DA:1099,0
LF:7
LH:0
end_of_record
SF:/usr/share/miniconda/envs/moose/libmesh/include/metaphysicl/dynamicsparsenumberbase.h
FN:280,_ZN11MetaPhysicL23DynamicSparseNumberBaseINS_22DynamicStdArrayWrapperIdNS_8NWrapperILm50EEEEENS1_ImS3_EENS_28SemiDynamicSparseNumberArrayEJdmS3_EE14sparsity_unionIS5_EEvRKT_
FNDA:0,_ZN11MetaPhysicL23DynamicSparseNumberBaseINS_22DynamicStdArrayWrapperIdNS_8NWrapperILm50EEEEENS1_ImS3_EENS_28SemiDynamicSparseNumberArrayEJdmS3_EE14sparsity_unionIS5_EEvRKT_
FN:550,_ZN11MetaPhysicL23DynamicSparseNumberBaseINS_22DynamicStdArrayWrapperIdNS_8NWrapperILm50EEEEENS1_ImS3_EENS_28SemiDynamicSparseNumberArrayEJdmS3_EEpLIJdmS3_EEERNS6_IdmS3_EERKNS6_IDpT_EE
FNDA:0,_ZN11MetaPhysicL23DynamicSparseNumberBaseINS_22DynamicStdArrayWrapperIdNS_8NWrapperILm50EEEEENS1_ImS3_EENS_28SemiDynamicSparseNumberArrayEJdmS3_EEpLIJdmS3_EEERNS6_IdmS3_EERKNS6_IDpT_EE
FN:585,_ZN11MetaPhysicL23DynamicSparseNumberBaseINS_22DynamicStdArrayWrapperIdNS_8NWrapperILm50EEEEENS1_ImS3_EENS_28SemiDynamicSparseNumberArrayEJdmS3_EEmIIJdmS3_EEERNS6_IdmS3_EERKNS6_IDpT_EE
FNDA:0,_ZN11MetaPhysicL23DynamicSparseNumberBaseINS_22DynamicStdArrayWrapperIdNS_8NWrapperILm50EEEEENS1_ImS3_EENS_28SemiDynamicSparseNumberArrayEJdmS3_EEmIIJdmS3_EEERNS6_IdmS3_EERKNS6_IDpT_EE
FN:725,_ZN11MetaPhysicL7if_elseINS_28SemiDynamicSparseNumberArrayENS_22DynamicStdArrayWrapperIdNS_8NWrapperILm50EEEEENS2_ImS4_EEJdmS4_ES5_S6_JdmS4_ES5_S6_JdmS4_EEENT_IJDpT5_EE6rebindINS_12CompareTypesINT3_10value_typeENT6_10value_typeELb0EvE9supertypeENSC_INT4_10value_typeENT7_10value_typeELb0EvE9supertypeEE5otherERKNS_23DynamicSparseNumberBaseIT0_T1_S7_JDpT2_EEERKNSR_ISD_SJ_S7_JS9_EEERKNSR_ISF_SL_S7_JDpT8_EEE
FNDA:0,_ZN11MetaPhysicL7if_elseINS_28SemiDynamicSparseNumberArrayENS_22DynamicStdArrayWrapperIdNS_8NWrapperILm50EEEEENS2_ImS4_EEJdmS4_ES5_S6_JdmS4_ES5_S6_JdmS4_EEENT_IJDpT5_EE6rebindINS_12CompareTypesINT3_10value_typeENT6_10value_typeELb0EvE9supertypeENSC_INT4_10value_typeENT7_10value_typeELb0EvE9supertypeEE5otherERKNS_23DynamicSparseNumberBaseIT0_T1_S7_JDpT2_EEERKNSR_ISD_SJ_S7_JS9_EEERKNSR_ISF_SL_S7_JDpT8_EEE
FNF:4
FNH:0
DA:41,309428
DA:53,801434
DA:95,10016
DA:125,0
DA:266,6504
DA:268,3392
DA:269,3392
DA:280,0
DA:302,0
DA:303,0
DA:304,0
DA:306,0
DA:307,0
DA:308,0
DA:311,0
DA:312,0
DA:313,0
DA:314,0
DA:315,0
DA:316,0
DA:319,0
DA:320,0
DA:321,0
DA:322,0
DA:324,0
DA:329,0
DA:334,0
DA:355,0
DA:356,0
DA:357,0
DA:358,0
DA:359,0
DA:360,0
DA:363,0
DA:364,0
DA:368,0
DA:369,0
DA:550,0
DA:553,0
DA:561,0
DA:563,0
DA:564,0
DA:566,0
DA:567,0
DA:568,0
DA:570,0
DA:574,0
DA:577,0
DA:585,0
DA:588,0
DA:596,0
DA:598,0
DA:599,0
DA:601,0
DA:602,0
DA:603,0
DA:605,0
DA:609,0
DA:612,0
DA:690,307316
DA:691,1664
DA:702,664
DA:703,0
DA:725,0
DA:765,0
DA:767,0
DA:768,0
DA:770,0
DA:771,0
DA:773,0
DA:774,0
DA:777,0
DA:779,0
DA:780,0
DA:782,0
DA:783,0
DA:785,0
DA:786,0
DA:789,0
DA:790,0
DA:791,0
DA:793,0
DA:795,0
DA:796,0
DA:801,0
DA:802,0
DA:805,0
DA:806,0
DA:807,0
DA:828,0
DA:830,0
DA:831,0
DA:833,0
DA:835,0
DA:836,0
DA:837,0
DA:838,0
DA:841,0
DA:842,0
DA:845,0
DA:847,0
DA:848,0
DA:850,0
DA:851,0
DA:853,0
DA:854,0
DA:857,0
DA:858,0
DA:859,0
DA:860,0
DA:861,0
DA:862,0
DA:864,0
DA:866,0
DA:867,0
DA:872,0
DA:873,0
DA:876,0
DA:877,0
DA:878,0
DA:879,0
DA:880,0
DA:881,0
DA:894,0
DA:949,598264
DA:955,608280
DA:956,10016
DA:957,10016
DA:971,299132
DA:977,299132
DA:978,0
DA:979,0
DA:992,0
DA:997,0
DA:998,0
DA:999,0
LF:136
LH:15
end_of_record
SF:/usr/share/miniconda/envs/moose/x86_64-conda-linux-gnu/include/c++/9.3.0/bits/shared_ptr.h
DA:359,30
DA:718,30
LF:2
LH:2
end_of_record
SF:/usr/share/miniconda/envs/moose/libmesh/include/Eigen/src/Core/util/Memory.h
LF:0
LH:0
end_of_record
SF:/usr/share/miniconda/envs/moose/x86_64-conda-linux-gnu/include/c++/9.3.0/bits/char_traits.h
DA:300,0
DA:335,6264
DA:363,0
DA:365,0
LF:4
LH:1
end_of_record
SF:/home/runner/work/raccoon/raccoon/moose/framework/build/header_symlinks/VectorPostprocessorInterface.h
FN:311,_ZNK28VectorPostprocessorInterface38addVectorPostprocessorDependencyHelperERK23VectorPostprocessorName
FNDA:0,_ZNK28VectorPostprocessorInterface38addVectorPostprocessorDependencyHelperERK23VectorPostprocessorName
FNF:1
FNH:0
DA:311,0
DA:313,0
LF:2
LH:0
end_of_record
SF:/usr/share/miniconda/envs/moose/libmesh/include/metaphysicl/dualnumber_decl.h
DA:173,499190
DA:327,0
LF:2
LH:1
end_of_record
SF:/home/runner/work/raccoon/raccoon/moose/framework/build/header_symlinks/DataIO.h
DA:727,0
DA:791,0
LF:2
LH:0
end_of_record
SF:/usr/share/miniconda/envs/moose/x86_64-conda-linux-gnu/include/c++/9.3.0/ext/atomicity.h
DA:49,0
DA:67,0
DA:68,0
DA:81,0
DA:82,0
DA:84,0
LF:6
LH:0
end_of_record
SF:/usr/share/miniconda/envs/moose/libmesh/include/libmesh/reference_counter.h
FN:150,_ZN7libMesh16ReferenceCounterC2Ev
FNDA:0,_ZN7libMesh16ReferenceCounterC2Ev
FN:171,_ZN7libMesh16ReferenceCounterD2Ev
FNDA:0,_ZN7libMesh16ReferenceCounterD2Ev
FNF:2
FNH:0
DA:150,0
DA:153,0
DA:171,0
DA:174,0
LF:4
LH:0
end_of_record
SF:/home/runner/work/raccoon/raccoon/moose/framework/build/header_symlinks/MooseObject.h
FN:68,_ZNK11MooseObject4nameB5cxx11Ev
FNDA:0,_ZNK11MooseObject4nameB5cxx11Ev
FN:121,_ZNK11MooseObject7enabledEv
FNDA:0,_ZNK11MooseObject7enabledEv
FN:155,_ZNK11MooseObject10mooseErrorIJRKNSt7__cxx1112basic_stringIcSt11char_traitsIcESaIcEEERA46_KcEEEvDpOT_
FNDA:0,_ZNK11MooseObject10mooseErrorIJRKNSt7__cxx1112basic_stringIcSt11char_traitsIcESaIcEEERA46_KcEEEvDpOT_
FN:155,_ZNK11MooseObject10mooseErrorIJRA117_KcEEEvDpOT_
FNDA:0,_ZNK11MooseObject10mooseErrorIJRA117_KcEEEvDpOT_
FN:155,_ZNK11MooseObject10mooseErrorIJRA105_KcEEEvDpOT_
FNDA:0,_ZNK11MooseObject10mooseErrorIJRA105_KcEEEvDpOT_
FNF:5
FNH:0
DA:68,0
DA:121,0
DA:155,0
DA:157,0
DA:158,0
DA:160,0
DA:155,0
DA:157,0
DA:158,0
DA:160,0
DA:155,0
DA:157,0
DA:158,0
DA:160,0
DA:262,18
LF:15
LH:1
end_of_record
SF:/usr/share/miniconda/envs/moose/libmesh/include/metaphysicl/dynamicsparsenumberbase_decl.h
FN:47,_ZN11MetaPhysicL23DynamicSparseNumberBaseINS_22DynamicStdArrayWrapperIdNS_8NWrapperILm50EEEEENS1_ImS3_EENS_28SemiDynamicSparseNumberArrayEJdmS3_EEaSEOS7_
FNDA:0,_ZN11MetaPhysicL23DynamicSparseNumberBaseINS_22DynamicStdArrayWrapperIdNS_8NWrapperILm50EEEEENS1_ImS3_EENS_28SemiDynamicSparseNumberArrayEJdmS3_EEaSEOS7_
FN:70,_ZN11MetaPhysicL23DynamicSparseNumberBaseINS_22DynamicStdArrayWrapperIdNS_8NWrapperILm50EEEEENS1_ImS3_EENS_28SemiDynamicSparseNumberArrayEJdmS3_EEC2EOS7_
FNDA:598264,_ZN11MetaPhysicL23DynamicSparseNumberBaseINS_22DynamicStdArrayWrapperIdNS_8NWrapperILm50EEEEENS1_ImS3_EENS_28SemiDynamicSparseNumberArrayEJdmS3_EEC2EOS7_
FNF:2
FNH:1
DA:47,0
DA:70,598264
DA:77,300868
LF:3
LH:2
end_of_record
SF:/home/runner/work/raccoon/raccoon/moose/framework/build/header_symlinks/MooseEnumItem.h
FN:23,_ZN13MooseEnumItemD2Ev
FNDA:0,_ZN13MooseEnumItemD2Ev
FNF:1
FNH:0
DA:23,0
LF:1
LH:0
end_of_record
SF:/usr/share/miniconda/envs/moose/x86_64-conda-linux-gnu/include/c++/9.3.0/bits/stl_uninitialized.h
FN:76,_ZNSt20__uninitialized_copyILb0EE13__uninit_copyIPKNSt7__cxx1112basic_stringIcSt11char_traitsIcESaIcEEEPS7_EET0_T_SC_SB_
FNDA:0,_ZNSt20__uninitialized_copyILb0EE13__uninit_copyIPKNSt7__cxx1112basic_stringIcSt11char_traitsIcESaIcEEEPS7_EET0_T_SC_SB_
FNF:1
FNH:0
DA:76,0
DA:82,0
DA:84,0
DA:86,0
DA:89,0
LF:5
LH:0
end_of_record
SF:/usr/share/miniconda/envs/moose/x86_64-conda-linux-gnu/include/c++/9.3.0/bits/stl_function.h
DA:386,0
DA:1156,0
LF:2
LH:0
end_of_record
SF:/usr/share/miniconda/envs/moose/x86_64-conda-linux-gnu/include/c++/9.3.0/bits/std_function.h
LF:0
LH:0
end_of_record
SF:/home/runner/work/raccoon/raccoon/moose/framework/build/header_symlinks/Coupleable.h
FN:114,_ZNK10Coupleable15coupledCallbackERKNSt7__cxx1112basic_stringIcSt11char_traitsIcESaIcEEEb
FNDA:0,_ZNK10Coupleable15coupledCallbackERKNSt7__cxx1112basic_stringIcSt11char_traitsIcESaIcEEEb
FNF:1
FNH:0
DA:114,0
LF:1
LH:0
end_of_record
SF:/usr/share/miniconda/envs/moose/x86_64-conda-linux-gnu/include/c++/9.3.0/bits/vector.tcc
FN:509,_ZNSt6vectorIP13PropertyValueSaIS1_EE14_M_fill_insertEN9__gnu_cxx17__normal_iteratorIPS1_S3_EEmRKS1_
FNDA:0,_ZNSt6vectorIP13PropertyValueSaIS1_EE14_M_fill_insertEN9__gnu_cxx17__normal_iteratorIPS1_S3_EEmRKS1_
FNF:1
FNH:0
DA:509,0
DA:512,0
DA:514,0
DA:515,0
DA:523,0
DA:525,0
DA:528,0
DA:532,0
DA:536,0
DA:542,0
DA:543,0
DA:551,0
DA:558,0
DA:561,0
DA:566,0
DA:573,0
DA:576,0
DA:580,0
DA:601,0
DA:602,0
DA:603,0
DA:606,0
LF:22
LH:0
end_of_record
SF:/home/runner/work/raccoon/raccoon/moose/framework/build/header_symlinks/MaterialBase.h
FN:78,_ZN12MaterialBase19isInterfaceMaterialEv
FNDA:0,_ZN12MaterialBase19isInterfaceMaterialEv
FN:175,_ZN12MaterialBase17getRequestedItemsB5cxx11Ev
FNDA:0,_ZN12MaterialBase17getRequestedItemsB5cxx11Ev
FN:181,_ZN12MaterialBase16getSuppliedItemsB5cxx11Ev
FNDA:0,_ZN12MaterialBase16getSuppliedItemsB5cxx11Ev
FN:261,_ZNK12MaterialBase9miProblemEv
FNDA:0,_ZNK12MaterialBase9miProblemEv
FN:262,_ZN12MaterialBase9miProblemEv
FNDA:0,_ZN12MaterialBase9miProblemEv
FN:444,_ZN12MaterialBase17declareADPropertyIdEER18ADMaterialPropertyIT_ERKNSt7__cxx1112basic_stringIcSt11char_traitsIcESaIcEEE
FNDA:0,_ZN12MaterialBase17declareADPropertyIdEER18ADMaterialPropertyIT_ERKNSt7__cxx1112basic_stringIcSt11char_traitsIcESaIcEEE
FN:456,_ZN12MaterialBase23declareADPropertyByNameIdEER18ADMaterialPropertyIT_ERKNSt7__cxx1112basic_stringIcSt11char_traitsIcESaIcEEE
FNDA:0,_ZN12MaterialBase23declareADPropertyByNameIdEER18ADMaterialPropertyIT_ERKNSt7__cxx1112basic_stringIcSt11char_traitsIcESaIcEEE
FNF:7
FNH:0
DA:78,0
DA:175,0
DA:181,0
DA:261,0
DA:262,0
DA:444,0
DA:448,0
DA:449,0
DA:451,0
DA:456,0
DA:458,0
DA:462,0
DA:463,0
LF:13
LH:0
end_of_record
SF:/usr/share/miniconda/envs/moose/libmesh/include/Eigen/src/Core/DenseStorage.h
LF:0
LH:0
end_of_record
SF:/usr/share/miniconda/envs/moose/x86_64-conda-linux-gnu/include/c++/9.3.0/initializer_list
DA:79,0
LF:1
LH:0
end_of_record
SF:/home/runner/work/raccoon/raccoon/moose/framework/build/header_symlinks/Material.h
FN:39,_ZNK8Material12getElementIDERKNSt7__cxx1112basic_stringIcSt11char_traitsIcESaIcEEEj
FNDA:0,_ZNK8Material12getElementIDERKNSt7__cxx1112basic_stringIcSt11char_traitsIcESaIcEEEj
FN:49,_ZNK8Material20getElementIDNeighborERKNSt7__cxx1112basic_stringIcSt11char_traitsIcESaIcEEEj
FNDA:0,_ZNK8Material20getElementIDNeighborERKNSt7__cxx1112basic_stringIcSt11char_traitsIcESaIcEEEj
FN:63,_ZNK8Material18getElementIDByNameERKNSt7__cxx1112basic_stringIcSt11char_traitsIcESaIcEEE
FNDA:0,_ZNK8Material18getElementIDByNameERKNSt7__cxx1112basic_stringIcSt11char_traitsIcESaIcEEE
FN:73,_ZNK8Material26getElementIDNeighborByNameERKNSt7__cxx1112basic_stringIcSt11char_traitsIcESaIcEEE
FNDA:0,_ZNK8Material26getElementIDNeighborByNameERKNSt7__cxx1112basic_stringIcSt11char_traitsIcESaIcEEE
FN:135,_ZNK8Material18isBoundaryMaterialEv
FNDA:0,_ZNK8Material18isBoundaryMaterialEv
FN:137,_ZNK8Material22getMatPropDependenciesEv
FNDA:0,_ZNK8Material22getMatPropDependenciesEv
FN:150,_ZNK8Material9ghostableEv
FNDA:0,_ZNK8Material9ghostableEv
FN:153,_ZNK8Material12materialDataEv
FNDA:0,_ZNK8Material12materialDataEv
FN:154,_ZN8Material12materialDataEv
FNDA:0,_ZN8Material12materialDataEv
FN:156,_ZNK8Material5qRuleEv
FNDA:0,_ZNK8Material5qRuleEv
FN:203,_ZN8Material21getADMaterialPropertyIdEERK18ADMaterialPropertyIT_ERKNSt7__cxx1112basic_stringIcSt11char_traitsIcESaIcEEE
FNDA:0,_ZN8Material21getADMaterialPropertyIdEERK18ADMaterialPropertyIT_ERKNSt7__cxx1112basic_stringIcSt11char_traitsIcESaIcEEE
FN:264,_ZN8Material27getADMaterialPropertyByNameIdEERK18ADMaterialPropertyIT_ERKNSt7__cxx1112basic_stringIcSt11char_traitsIcESaIcEEE
FNDA:0,_ZN8Material27getADMaterialPropertyByNameIdEERK18ADMaterialPropertyIT_ERKNSt7__cxx1112basic_stringIcSt11char_traitsIcESaIcEEE
FNF:12
FNH:0
DA:39,0
DA:42,0
DA:43,0
DA:49,0
DA:52,0
DA:63,0
DA:65,0
DA:66,0
DA:73,0
DA:75,0
DA:135,0
DA:137,0
DA:139,0
DA:150,0
DA:153,0
DA:154,0
DA:156,0
DA:203,0
DA:206,0
DA:209,0
DA:210,0
DA:213,0
DA:264,0
DA:266,0
DA:269,0
DA:274,0
DA:275,0
LF:27
LH:0
end_of_record
SF:/home/runner/work/raccoon/raccoon/build/header_symlinks/PlasticHardeningModel.h
FN:18,_ZN21PlasticHardeningModel5setQpEj
FNDA:0,_ZN21PlasticHardeningModel5setQpEj
FN:39,_ZN21PlasticHardeningModel18plasticDissipationERKN11MetaPhysicL10DualNumberIdNS0_28SemiDynamicSparseNumberArrayIdmNS0_8NWrapperILm50EEEEELb1EEES8_j
FNDA:0,_ZN21PlasticHardeningModel18plasticDissipationERKN11MetaPhysicL10DualNumberIdNS0_28SemiDynamicSparseNumberArrayIdmNS0_8NWrapperILm50EEEEELb1EEES8_j
FN:51,_ZN21PlasticHardeningModel16thermalConjugateERKN11MetaPhysicL10DualNumberIdNS0_28SemiDynamicSparseNumberArrayIdmNS0_8NWrapperILm50EEEEELb1EEE
FNDA:0,_ZN21PlasticHardeningModel16thermalConjugateERKN11MetaPhysicL10DualNumberIdNS0_28SemiDynamicSparseNumberArrayIdmNS0_8NWrapperILm50EEEEELb1EEE
FN:55,_ZN21PlasticHardeningModel17resetQpPropertiesEv
FNDA:0,_ZN21PlasticHardeningModel17resetQpPropertiesEv
FN:56,_ZN21PlasticHardeningModel15resetPropertiesEv
FNDA:62524,_ZN21PlasticHardeningModel15resetPropertiesEv
FNF:5
FNH:1
DA:18,0
DA:39,0
DA:43,0
DA:51,0
DA:55,0
DA:56,62524
LF:6
LH:1
end_of_record
SF:/home/runner/work/raccoon/raccoon/moose/framework/build/header_symlinks/MaterialProperty.h
FN:111,_ZN20MaterialPropertyBaseIdLb1EED2Ev
FNDA:0,_ZN20MaterialPropertyBaseIdLb1EED2Ev
FN:111,_ZN20MaterialPropertyBaseIdLb1EED0Ev
FNDA:0,_ZN20MaterialPropertyBaseIdLb1EED0Ev
FN:111,_ZN20MaterialPropertyBaseIdLb0EED2Ev
FNDA:0,_ZN20MaterialPropertyBaseIdLb0EED2Ev
FN:111,_ZN20MaterialPropertyBaseIdLb0EED0Ev
FNDA:0,_ZN20MaterialPropertyBaseIdLb0EED0Ev
FN:111,_ZN20MaterialPropertyBaseIN7libMesh11VectorValueIdEELb0EED2Ev
FNDA:0,_ZN20MaterialPropertyBaseIN7libMesh11VectorValueIdEELb0EED2Ev
FN:111,_ZN20MaterialPropertyBaseIN7libMesh11VectorValueIdEELb0EED0Ev
FNDA:0,_ZN20MaterialPropertyBaseIN7libMesh11VectorValueIdEELb0EED0Ev
FN:111,_ZN20MaterialPropertyBaseIN7libMesh11VectorValueIdEELb1EED2Ev
FNDA:0,_ZN20MaterialPropertyBaseIN7libMesh11VectorValueIdEELb1EED2Ev
FN:111,_ZN20MaterialPropertyBaseIN7libMesh11VectorValueIdEELb1EED0Ev
FNDA:0,_ZN20MaterialPropertyBaseIN7libMesh11VectorValueIdEELb1EED0Ev
FN:113,_ZN20MaterialPropertyBaseIN7libMesh11VectorValueIdEELb0EE4isADEv
FNDA:0,_ZN20MaterialPropertyBaseIN7libMesh11VectorValueIdEELb0EE4isADEv
FN:113,_ZN20MaterialPropertyBaseIN7libMesh11VectorValueIdEELb1EE4isADEv
FNDA:0,_ZN20MaterialPropertyBaseIN7libMesh11VectorValueIdEELb1EE4isADEv
FN:113,_ZN20MaterialPropertyBaseIdLb0EE4isADEv
FNDA:0,_ZN20MaterialPropertyBaseIdLb0EE4isADEv
FN:113,_ZN20MaterialPropertyBaseIdLb1EE4isADEv
FNDA:0,_ZN20MaterialPropertyBaseIdLb1EE4isADEv
FN:135,_ZNK20MaterialPropertyBaseIN7libMesh11VectorValueIdEELb1EE4sizeEv
FNDA:0,_ZNK20MaterialPropertyBaseIN7libMesh11VectorValueIdEELb1EE4sizeEv
FN:135,_ZNK20MaterialPropertyBaseIdLb0EE4sizeEv
FNDA:0,_ZNK20MaterialPropertyBaseIdLb0EE4sizeEv
FN:135,_ZNK20MaterialPropertyBaseIdLb1EE4sizeEv
FNDA:0,_ZNK20MaterialPropertyBaseIdLb1EE4sizeEv
FN:135,_ZNK20MaterialPropertyBaseIN7libMesh11VectorValueIdEELb0EE4sizeEv
FNDA:0,_ZNK20MaterialPropertyBaseIN7libMesh11VectorValueIdEELb0EE4sizeEv
FN:219,_ZN5moose8internal22rawValueEqualityHelperIN7libMesh11VectorValueIN11MetaPhysicL10DualNumberIdNS4_28SemiDynamicSparseNumberArrayIdmNS4_8NWrapperILm50EEEEELb1EEEEENS3_IdEEEEvRT_RKT0_
FNDA:0,_ZN5moose8internal22rawValueEqualityHelperIN7libMesh11VectorValueIN11MetaPhysicL10DualNumberIdNS4_28SemiDynamicSparseNumberArrayIdmNS4_8NWrapperILm50EEEEELb1EEEEENS3_IdEEEEvRT_RKT0_
FN:237,_ZN20MaterialPropertyBaseIdLb1EE4typeB5cxx11Ev
FNDA:0,_ZN20MaterialPropertyBaseIdLb1EE4typeB5cxx11Ev
FN:237,_ZN20MaterialPropertyBaseIN7libMesh11VectorValueIdEELb1EE4typeB5cxx11Ev
FNDA:0,_ZN20MaterialPropertyBaseIN7libMesh11VectorValueIdEELb1EE4typeB5cxx11Ev
FN:237,_ZN20MaterialPropertyBaseIN7libMesh11VectorValueIdEELb0EE4typeB5cxx11Ev
FNDA:0,_ZN20MaterialPropertyBaseIN7libMesh11VectorValueIdEELb0EE4typeB5cxx11Ev
FN:237,_ZN20MaterialPropertyBaseIdLb0EE4typeB5cxx11Ev
FNDA:0,_ZN20MaterialPropertyBaseIdLb0EE4typeB5cxx11Ev
FN:244,_ZN20MaterialPropertyBaseIN7libMesh11VectorValueIdEELb1EE6resizeEi
FNDA:0,_ZN20MaterialPropertyBaseIN7libMesh11VectorValueIdEELb1EE6resizeEi
FN:244,_ZN20MaterialPropertyBaseIN7libMesh11VectorValueIdEELb0EE6resizeEi
FNDA:0,_ZN20MaterialPropertyBaseIN7libMesh11VectorValueIdEELb0EE6resizeEi
FN:244,_ZN20MaterialPropertyBaseIdLb1EE6resizeEi
FNDA:0,_ZN20MaterialPropertyBaseIdLb1EE6resizeEi
FN:244,_ZN20MaterialPropertyBaseIdLb0EE6resizeEi
FNDA:0,_ZN20MaterialPropertyBaseIdLb0EE6resizeEi
FN:251,_ZN20MaterialPropertyBaseIN7libMesh11VectorValueIdEELb0EE6qpCopyEjP13PropertyValuej
FNDA:0,_ZN20MaterialPropertyBaseIN7libMesh11VectorValueIdEELb0EE6qpCopyEjP13PropertyValuej
FN:251,_ZN20MaterialPropertyBaseIdLb1EE6qpCopyEjP13PropertyValuej
FNDA:0,_ZN20MaterialPropertyBaseIdLb1EE6qpCopyEjP13PropertyValuej
FN:251,_ZN20MaterialPropertyBaseIN7libMesh11VectorValueIdEELb1EE6qpCopyEjP13PropertyValuej
FNDA:0,_ZN20MaterialPropertyBaseIN7libMesh11VectorValueIdEELb1EE6qpCopyEjP13PropertyValuej
FN:251,_ZN20MaterialPropertyBaseIdLb0EE6qpCopyEjP13PropertyValuej
FNDA:0,_ZN20MaterialPropertyBaseIdLb0EE6qpCopyEjP13PropertyValuej
FN:268,_ZN20MaterialPropertyBaseIN7libMesh11VectorValueIdEELb0EE5storeERSo
FNDA:0,_ZN20MaterialPropertyBaseIN7libMesh11VectorValueIdEELb0EE5storeERSo
FN:268,_ZN20MaterialPropertyBaseIdLb1EE5storeERSo
FNDA:0,_ZN20MaterialPropertyBaseIdLb1EE5storeERSo
FN:268,_ZN20MaterialPropertyBaseIN7libMesh11VectorValueIdEELb1EE5storeERSo
FNDA:0,_ZN20MaterialPropertyBaseIN7libMesh11VectorValueIdEELb1EE5storeERSo
FN:268,_ZN20MaterialPropertyBaseIdLb0EE5storeERSo
FNDA:0,_ZN20MaterialPropertyBaseIdLb0EE5storeERSo
FN:276,_ZN20MaterialPropertyBaseIdLb1EE4loadERSi
FNDA:0,_ZN20MaterialPropertyBaseIdLb1EE4loadERSi
FN:276,_ZN20MaterialPropertyBaseIN7libMesh11VectorValueIdEELb1EE4loadERSi
FNDA:0,_ZN20MaterialPropertyBaseIN7libMesh11VectorValueIdEELb1EE4loadERSi
FN:276,_ZN20MaterialPropertyBaseIN7libMesh11VectorValueIdEELb0EE4loadERSi
FNDA:0,_ZN20MaterialPropertyBaseIN7libMesh11VectorValueIdEELb0EE4loadERSi
FN:276,_ZN20MaterialPropertyBaseIdLb0EE4loadERSi
FNDA:0,_ZN20MaterialPropertyBaseIdLb0EE4loadERSi
FN:284,_ZN20MaterialPropertyBaseIN7libMesh11VectorValueIdEELb1EE4swapEP13PropertyValue
FNDA:0,_ZN20MaterialPropertyBaseIN7libMesh11VectorValueIdEELb1EE4swapEP13PropertyValue
FN:284,_ZN20MaterialPropertyBaseIN7libMesh11VectorValueIdEELb0EE4swapEP13PropertyValue
FNDA:0,_ZN20MaterialPropertyBaseIN7libMesh11VectorValueIdEELb0EE4swapEP13PropertyValue
FN:284,_ZN20MaterialPropertyBaseIdLb1EE4swapEP13PropertyValue
FNDA:0,_ZN20MaterialPropertyBaseIdLb1EE4swapEP13PropertyValue
FN:284,_ZN20MaterialPropertyBaseIdLb0EE4swapEP13PropertyValue
FNDA:0,_ZN20MaterialPropertyBaseIdLb0EE4swapEP13PropertyValue
FN:322,_ZN16MaterialPropertyIN7libMesh11VectorValueIdEEE4initEi
FNDA:0,_ZN16MaterialPropertyIN7libMesh11VectorValueIdEEE4initEi
FN:322,_ZN16MaterialPropertyIdE4initEi
FNDA:0,_ZN16MaterialPropertyIdE4initEi
FN:346,_ZN18ADMaterialPropertyIN7libMesh11VectorValueIdEEE4initEi
FNDA:0,_ZN18ADMaterialPropertyIN7libMesh11VectorValueIdEEE4initEi
FN:346,_ZN18ADMaterialPropertyIdE4initEi
FNDA:0,_ZN18ADMaterialPropertyIdE4initEi
FNF:45
FNH:0
DA:107,0
DA:111,0
DA:111,0
DA:111,0
DA:111,0
DA:111,0
DA:111,0
DA:111,0
DA:111,0
DA:113,0
DA:113,0
DA:113,0
DA:113,0
DA:135,0
DA:135,0
DA:135,0
DA:135,0
DA:140,708088
DA:145,1832690
DA:173,0
DA:219,0
DA:221,0
DA:222,0
DA:237,0
DA:239,0
DA:237,0
DA:239,0
DA:237,0
DA:239,0
DA:237,0
DA:239,0
DA:244,0
DA:246,0
DA:247,0
DA:244,0
DA:246,0
DA:247,0
DA:244,0
DA:246,0
DA:247,0
DA:244,0
DA:246,0
DA:247,0
DA:251,0
DA:258,0
DA:259,0
DA:262,0
DA:264,0
DA:251,0
DA:258,0
DA:259,0
DA:262,0
DA:264,0
DA:251,0
DA:258,0
DA:259,0
DA:262,0
DA:264,0
DA:251,0
DA:258,0
DA:259,0
DA:262,0
DA:264,0
DA:268,0
DA:270,0
DA:271,0
DA:272,0
DA:268,0
DA:270,0
DA:271,0
DA:272,0
DA:268,0
DA:270,0
DA:271,0
DA:272,0
DA:268,0
DA:270,0
DA:271,0
DA:272,0
DA:276,0
DA:278,0
DA:279,0
DA:280,0
DA:276,0
DA:278,0
DA:279,0
DA:280,0
DA:276,0
DA:278,0
DA:279,0
DA:280,0
DA:276,0
DA:278,0
DA:279,0
DA:280,0
DA:284,0
DA:289,0
DA:292,0
DA:307,0
DA:311,0
DA:312,0
DA:313,0
DA:284,0
DA:289,0
DA:292,0
DA:307,0
DA:311,0
DA:312,0
DA:313,0
DA:284,0
DA:289,0
DA:292,0
DA:307,0
DA:311,0
DA:312,0
DA:313,0
DA:284,0
DA:289,0
DA:292,0
DA:307,0
DA:311,0
DA:312,0
DA:313,0
DA:320,0
DA:322,0
DA:322,0
DA:342,0
DA:346,0
DA:346,0
LF:129
LH:2
end_of_record
SF:/usr/share/miniconda/envs/moose/x86_64-conda-linux-gnu/include/c++/9.3.0/ext/new_allocator.h
DA:114,30
DA:128,3926
DA:147,30
DA:153,30
LF:4
LH:4
end_of_record
SF:/home/runner/work/raccoon/raccoon/moose/framework/build/header_symlinks/ElementIDInterface.h
LF:0
LH:0
end_of_record
SF:/usr/share/miniconda/envs/moose/x86_64-conda-linux-gnu/include/c++/9.3.0/streambuf
LF:0
LH:0
end_of_record
SF:/home/runner/work/raccoon/raccoon/moose/framework/build/header_symlinks/UserObjectInterface.h
FN:93,_ZNK19UserObjectInterface29addUserObjectDependencyHelperERK10UserObject
FNDA:0,_ZNK19UserObjectInterface29addUserObjectDependencyHelperERK10UserObject
FNF:1
FNH:0
DA:93,0
LF:1
LH:0
end_of_record
SF:/home/runner/work/raccoon/raccoon/moose/framework/build/header_symlinks/MooseObjectName.h
FN:56,_ZN15MooseObjectNameD0Ev
FNDA:0,_ZN15MooseObjectNameD0Ev
FN:56,_ZN15MooseObjectNameD2Ev
FNDA:0,_ZN15MooseObjectNameD2Ev
FNF:2
FNH:0
DA:56,0
DA:56,0
LF:2
LH:0
end_of_record
SF:/usr/share/miniconda/envs/moose/libmesh/include/libmesh/libmesh_exceptions.h
DA:42,0
DA:54,0
LF:2
LH:0
end_of_record
TN:
SF:/usr/share/miniconda/envs/moose/x86_64-conda-linux-gnu/include/c++/9.3.0/sstream
DA:678,0
DA:832,0
LF:2
LH:0
end_of_record
SF:/usr/share/miniconda/envs/moose/x86_64-conda-linux-gnu/include/c++/9.3.0/bits/unordered_map.h
DA:102,3172
LF:1
LH:1
end_of_record
SF:/home/runner/work/raccoon/raccoon/moose/framework/build/header_symlinks/MeshChangedInterface.h
FN:39,_ZN20MeshChangedInterface11meshChangedEv
FNDA:307,_ZN20MeshChangedInterface11meshChangedEv
FNF:1
FNH:1
DA:39,307
LF:1
LH:1
end_of_record
SF:/usr/share/miniconda/envs/moose/x86_64-conda-linux-gnu/include/c++/9.3.0/bits/stl_iterator_base_funcs.h
DA:104,0
LF:1
LH:0
end_of_record
SF:/usr/share/miniconda/envs/moose/libmesh/include/Eigen/src/Core/Matrix.h
LF:0
LH:0
end_of_record
SF:/usr/share/miniconda/envs/moose/x86_64-conda-linux-gnu/include/c++/9.3.0/bits/hashtable_policy.h
DA:2149,1503
LF:1
LH:1
end_of_record
SF:/usr/share/miniconda/envs/moose/libmesh/include/libmesh/dense_matrix.h
FN:109,_ZN7libMesh11DenseMatrixIdED0Ev
FNDA:0,_ZN7libMesh11DenseMatrixIdED0Ev
FN:109,_ZN7libMesh11DenseMatrixIdED2Ev
FNDA:6461,_ZN7libMesh11DenseMatrixIdED2Ev
FN:136,_ZNK7libMesh11DenseMatrixIdE2elEjj
FNDA:0,_ZNK7libMesh11DenseMatrixIdE2elEjj
FN:140,_ZN7libMesh11DenseMatrixIdE2elEjj
FNDA:0,_ZN7libMesh11DenseMatrixIdE2elEjj
FN:907,_ZN7libMesh11DenseMatrixIdE4zeroEv
FNDA:1844280,_ZN7libMesh11DenseMatrixIdE4zeroEv
FNF:5
FNH:2
DA:109,0
DA:109,6461
DA:136,0
DA:138,0
DA:140,0
DA:142,0
DA:907,1844280
DA:909,1844280
DA:912,1844280
DA:958,0
DA:973,0
LF:11
LH:4
end_of_record
SF:/usr/share/miniconda/envs/moose/libmesh/include/libmesh/vector_value.h
DA:149,0
DA:150,0
DA:197,0
DA:198,0
DA:261,0
DA:262,0
LF:6
LH:0
end_of_record
SF:/usr/share/miniconda/envs/moose/x86_64-conda-linux-gnu/include/c++/9.3.0/bits/unique_ptr.h
FN:555,_ZNSt10unique_ptrIA_N11MetaPhysicL10DualNumberIdNS0_28SemiDynamicSparseNumberArrayIdmNS0_8NWrapperILm50EEEEELb1EEESt14default_deleteIS7_EED2Ev
FNDA:6,_ZNSt10unique_ptrIA_N11MetaPhysicL10DualNumberIdNS0_28SemiDynamicSparseNumberArrayIdmNS0_8NWrapperILm50EEEEELb1EEESt14default_deleteIS7_EED2Ev
FN:555,_ZNSt10unique_ptrIA_N7libMesh11TensorValueIdEESt14default_deleteIS3_EED2Ev
FNDA:1072,_ZNSt10unique_ptrIA_N7libMesh11TensorValueIdEESt14default_deleteIS3_EED2Ev
FN:555,_ZNSt10unique_ptrIA_N7libMesh11TensorValueIN11MetaPhysicL10DualNumberIdNS2_28SemiDynamicSparseNumberArrayIdmNS2_8NWrapperILm50EEEEELb1EEEEESt14default_deleteISA_EED2Ev
FNDA:1072,_ZNSt10unique_ptrIA_N7libMesh11TensorValueIN11MetaPhysicL10DualNumberIdNS2_28SemiDynamicSparseNumberArrayIdmNS2_8NWrapperILm50EEEEELb1EEEEESt14default_deleteISA_EED2Ev
FN:555,_ZNSt10unique_ptrIA_N7libMesh11VectorValueIN11MetaPhysicL10DualNumberIdNS2_28SemiDynamicSparseNumberArrayIdmNS2_8NWrapperILm50EEEEELb1EEEEESt14default_deleteISA_EED2Ev
FNDA:536,_ZNSt10unique_ptrIA_N7libMesh11VectorValueIN11MetaPhysicL10DualNumberIdNS2_28SemiDynamicSparseNumberArrayIdmNS2_8NWrapperILm50EEEEELb1EEEEESt14default_deleteISA_EED2Ev
FN:555,_ZNSt10unique_ptrIA_N7libMesh11VectorValueIdEESt14default_deleteIS3_EED2Ev
FNDA:1608,_ZNSt10unique_ptrIA_N7libMesh11VectorValueIdEESt14default_deleteIS3_EED2Ev
FNF:5
FNH:5
DA:81,57
DA:82,57
DA:115,6
DA:116,6
DA:154,0
DA:291,57
DA:292,0
DA:294,57
DA:555,6
DA:558,6
DA:561,6
DA:555,1072
DA:558,1072
DA:561,1072
DA:555,1072
DA:558,1072
DA:561,1072
DA:555,536
DA:558,536
DA:561,536
DA:555,1608
DA:558,1608
DA:561,1608
DA:558,0
DA:671,0
LF:25
LH:21
end_of_record
SF:/usr/share/miniconda/envs/moose/libmesh/include/timpi/message_tag.h
LF:0
LH:0
end_of_record
SF:/home/runner/work/raccoon/raccoon/moose/framework/build/header_symlinks/MooseVariableDependencyInterface.h
LF:0
LH:0
end_of_record
SF:/usr/share/miniconda/envs/moose/libmesh/include/metaphysicl/dualnumber.h
FN:97,_ZN11MetaPhysicL10DualNumberIdNS_28SemiDynamicSparseNumberArrayIdmNS_8NWrapperILm50EEEEELb1EEaSERKS5_
FNDA:0,_ZN11MetaPhysicL10DualNumberIdNS_28SemiDynamicSparseNumberArrayIdmNS_8NWrapperILm50EEEEELb1EEaSERKS5_
FNF:1
FNH:0
DA:97,0
DA:99,0
DA:101,0
DA:104,0
DA:112,0
DA:114,0
LF:6
LH:0
end_of_record
SF:/usr/share/miniconda/envs/moose/x86_64-conda-linux-gnu/include/c++/9.3.0/bits/basic_string.h
FN:525,_ZNSt7__cxx1112basic_stringIcSt11char_traitsIcESaIcEEC2IS3_EEPKcRKS3_
FNDA:1,_ZNSt7__cxx1112basic_stringIcSt11char_traitsIcESaIcEEC2IS3_EEPKcRKS3_
FNF:1
FNH:1
DA:156,1
DA:157,1
DA:159,5615400
DA:160,5615400
DA:179,0
DA:183,0
DA:193,5615400
DA:203,1565370
DA:211,0
DA:217,0
DA:222,1566170
DA:231,1410760
DA:237,360425
DA:247,1
DA:348,0
DA:349,0
DA:448,5615400
DA:451,5615400
DA:525,1
DA:527,1
DA:658,1410880
DA:1366,38980
DA:2313,2925
DA:6229,106090000
DA:6421,2925
LF:25
LH:19
end_of_record
SF:/usr/share/miniconda/envs/moose/x86_64-conda-linux-gnu/include/c++/9.3.0/tuple
FN:1670,_ZNSt4pairIKNSt7__cxx1112basic_stringIcSt11char_traitsIcESaIcEEEN15InputParameters8MetadataEEC2IJRS6_EJLm0EEJEJEEERSt5tupleIJDpT_EERSC_IJDpT1_EESt12_Index_tupleIJXspT0_EEESL_IJXspT2_EEE
FNDA:5615400,_ZNSt4pairIKNSt7__cxx1112basic_stringIcSt11char_traitsIcESaIcEEEN15InputParameters8MetadataEEC2IJRS6_EJLm0EEJEJEEERSt5tupleIJDpT_EERSC_IJDpT1_EESt12_Index_tupleIJXspT0_EEESL_IJXspT2_EEE
FNF:1
FNH:1
DA:125,13775900
DA:126,8160490
DA:334,11230800
DA:523,0
DA:1658,5615400
DA:1663,5615400
DA:1670,5615400
DA:1674,5615400
DA:1675,5615400
LF:9
LH:8
end_of_record
SF:/usr/share/miniconda/envs/moose/x86_64-conda-linux-gnu/include/c++/9.3.0/bits/alloc_traits.h
DA:470,673291
LF:1
LH:1
end_of_record
SF:/usr/share/miniconda/envs/moose/x86_64-conda-linux-gnu/include/c++/9.3.0/bits/shared_ptr_base.h
FN:131,_ZNSt16_Sp_counted_baseILN9__gnu_cxx12_Lock_policyE2EE10_M_destroyEv
FNDA:0,_ZNSt16_Sp_counted_baseILN9__gnu_cxx12_Lock_policyE2EE10_M_destroyEv
FN:148,_ZNSt16_Sp_counted_baseILN9__gnu_cxx12_Lock_policyE2EE10_M_releaseEv
FNDA:0,_ZNSt16_Sp_counted_baseILN9__gnu_cxx12_Lock_policyE2EE10_M_releaseEv
FN:404,_ZNSt15_Sp_counted_ptrIDnLN9__gnu_cxx12_Lock_policyE2EE10_M_disposeEv
FNDA:0,_ZNSt15_Sp_counted_ptrIDnLN9__gnu_cxx12_Lock_policyE2EE10_M_disposeEv
FN:552,_ZNSt23_Sp_counted_ptr_inplaceISt5mutexSaIS0_ELN9__gnu_cxx12_Lock_policyE2EED0Ev
FNDA:0,_ZNSt23_Sp_counted_ptr_inplaceISt5mutexSaIS0_ELN9__gnu_cxx12_Lock_policyE2EED0Ev
FN:552,_ZNSt23_Sp_counted_ptr_inplaceISt5mutexSaIS0_ELN9__gnu_cxx12_Lock_policyE2EED2Ev
FNDA:0,_ZNSt23_Sp_counted_ptr_inplaceISt5mutexSaIS0_ELN9__gnu_cxx12_Lock_policyE2EED2Ev
FN:552,_ZNSt23_Sp_counted_ptr_inplaceINSt13__future_base13_State_baseV2ESaIS1_ELN9__gnu_cxx12_Lock_policyE2EED0Ev
FNDA:0,_ZNSt23_Sp_counted_ptr_inplaceINSt13__future_base13_State_baseV2ESaIS1_ELN9__gnu_cxx12_Lock_policyE2EED0Ev
FN:552,_ZNSt23_Sp_counted_ptr_inplaceINSt13__future_base13_State_baseV2ESaIS1_ELN9__gnu_cxx12_Lock_policyE2EED2Ev
FNDA:0,_ZNSt23_Sp_counted_ptr_inplaceINSt13__future_base13_State_baseV2ESaIS1_ELN9__gnu_cxx12_Lock_policyE2EED2Ev
FN:552,_ZNSt23_Sp_counted_ptr_inplaceI20ConditionalBoundsAuxSaIS0_ELN9__gnu_cxx12_Lock_policyE2EED2Ev
FNDA:0,_ZNSt23_Sp_counted_ptr_inplaceI20ConditionalBoundsAuxSaIS0_ELN9__gnu_cxx12_Lock_policyE2EED2Ev
FN:552,_ZNSt23_Sp_counted_ptr_inplaceI20ConditionalBoundsAuxSaIS0_ELN9__gnu_cxx12_Lock_policyE2EED0Ev
FNDA:0,_ZNSt23_Sp_counted_ptr_inplaceI20ConditionalBoundsAuxSaIS0_ELN9__gnu_cxx12_Lock_policyE2EED0Ev
FN:555,_ZNSt23_Sp_counted_ptr_inplaceISt5mutexSaIS0_ELN9__gnu_cxx12_Lock_policyE2EE10_M_disposeEv
FNDA:0,_ZNSt23_Sp_counted_ptr_inplaceISt5mutexSaIS0_ELN9__gnu_cxx12_Lock_policyE2EE10_M_disposeEv
FN:555,_ZNSt23_Sp_counted_ptr_inplaceI20ConditionalBoundsAuxSaIS0_ELN9__gnu_cxx12_Lock_policyE2EE10_M_disposeEv
FNDA:1,_ZNSt23_Sp_counted_ptr_inplaceI20ConditionalBoundsAuxSaIS0_ELN9__gnu_cxx12_Lock_policyE2EE10_M_disposeEv
FN:555,_ZNSt23_Sp_counted_ptr_inplaceINSt13__future_base13_State_baseV2ESaIS1_ELN9__gnu_cxx12_Lock_policyE2EE10_M_disposeEv
FNDA:0,_ZNSt23_Sp_counted_ptr_inplaceINSt13__future_base13_State_baseV2ESaIS1_ELN9__gnu_cxx12_Lock_policyE2EE10_M_disposeEv
FN:562,_ZNSt23_Sp_counted_ptr_inplaceI20ConditionalBoundsAuxSaIS0_ELN9__gnu_cxx12_Lock_policyE2EE10_M_destroyEv
FNDA:1,_ZNSt23_Sp_counted_ptr_inplaceI20ConditionalBoundsAuxSaIS0_ELN9__gnu_cxx12_Lock_policyE2EE10_M_destroyEv
FN:562,_ZNSt23_Sp_counted_ptr_inplaceINSt13__future_base13_State_baseV2ESaIS1_ELN9__gnu_cxx12_Lock_policyE2EE10_M_destroyEv
FNDA:0,_ZNSt23_Sp_counted_ptr_inplaceINSt13__future_base13_State_baseV2ESaIS1_ELN9__gnu_cxx12_Lock_policyE2EE10_M_destroyEv
FN:562,_ZNSt23_Sp_counted_ptr_inplaceISt5mutexSaIS0_ELN9__gnu_cxx12_Lock_policyE2EE10_M_destroyEv
FNDA:0,_ZNSt23_Sp_counted_ptr_inplaceISt5mutexSaIS0_ELN9__gnu_cxx12_Lock_policyE2EE10_M_destroyEv
FN:575,_ZNSt23_Sp_counted_ptr_inplaceI20ConditionalBoundsAuxSaIS0_ELN9__gnu_cxx12_Lock_policyE2EE14_M_get_deleterERKSt9type_info
FNDA:0,_ZNSt23_Sp_counted_ptr_inplaceI20ConditionalBoundsAuxSaIS0_ELN9__gnu_cxx12_Lock_policyE2EE14_M_get_deleterERKSt9type_info
FN:672,_ZNSt14__shared_countILN9__gnu_cxx12_Lock_policyE2EEC2I20ConditionalBoundsAuxSaIS4_EJRK15InputParametersEEERPT_St20_Sp_alloc_shared_tagIT0_EDpOT1_
FNDA:1,_ZNSt14__shared_countILN9__gnu_cxx12_Lock_policyE2EEC2I20ConditionalBoundsAuxSaIS4_EJRK15InputParametersEEERPT_St20_Sp_alloc_shared_tagIT0_EDpOT1_
FNF:17
FNH:3
DA:117,1
DA:118,1
DA:131,0
DA:132,0
DA:148,0
DA:152,0
DA:155,0
DA:167,0
DA:171,0
DA:174,0
DA:404,0
DA:531,1
DA:543,1
DA:544,1
DA:550,1
DA:552,0
DA:552,0
DA:552,0
DA:552,0
DA:552,0
DA:552,0
DA:552,1
DA:555,0
DA:558,0
DA:555,0
DA:558,0
DA:555,1
DA:558,1
DA:562,0
DA:567,0
DA:562,0
DA:567,0
DA:562,1
DA:567,1
DA:575,0
DA:583,0
DA:585,0
DA:590,0
DA:672,1
DA:682,1
DA:683,1
DA:684,1
DA:729,1
DA:730,1
DA:758,1
DA:760,1
DA:1185,1
DA:1344,1
LF:48
LH:21
end_of_record
SF:/usr/share/miniconda/envs/moose/x86_64-conda-linux-gnu/include/c++/9.3.0/array
DA:135,0
DA:139,0
DA:235,0
DA:239,0
LF:4
LH:0
end_of_record
SF:/home/runner/work/raccoon/raccoon/moose/framework/build/header_symlinks/InputParameters.h
FN:59,_ZN15InputParametersD0Ev
FNDA:0,_ZN15InputParametersD0Ev
FN:59,_ZN15InputParametersD2Ev
FNDA:3172,_ZN15InputParametersD2Ev
FN:1024,_ZN15InputParameters3setI9MooseEnumEERT_RKNSt7__cxx1112basic_stringIcSt11char_traitsIcESaIcEEEb
FNDA:93826,_ZN15InputParameters3setI9MooseEnumEERT_RKNSt7__cxx1112basic_stringIcSt11char_traitsIcESaIcEEEb
FN:1223,_ZN15InputParameters16addRequiredParamIdEEvRKNSt7__cxx1112basic_stringIcSt11char_traitsIcESaIcEEES8_
FNDA:38980,_ZN15InputParameters16addRequiredParamIdEEvRKNSt7__cxx1112basic_stringIcSt11char_traitsIcESaIcEEES8_
FN:1398,_ZNK15InputParameters19checkConsistentTypeI9MooseEnumEEvRKNSt7__cxx1112basic_stringIcSt11char_traitsIcESaIcEEE
FNDA:176850,_ZNK15InputParameters19checkConsistentTypeI9MooseEnumEEvRKNSt7__cxx1112basic_stringIcSt11char_traitsIcESaIcEEE
FN:1398,_ZNK15InputParameters19checkConsistentTypeIdEEvRKNSt7__cxx1112basic_stringIcSt11char_traitsIcESaIcEEE
FNDA:280225,_ZNK15InputParameters19checkConsistentTypeIdEEvRKNSt7__cxx1112basic_stringIcSt11char_traitsIcESaIcEEE
FN:1414,_ZN15InputParameters17suppressParameterI9MooseEnumEEvRKNSt7__cxx1112basic_stringIcSt11char_traitsIcESaIcEEE
FNDA:492,_ZN15InputParameters17suppressParameterI9MooseEnumEEvRKNSt7__cxx1112basic_stringIcSt11char_traitsIcESaIcEEE
FNF:7
FNH:6
DA:59,0
DA:59,6344
DA:1024,93826
DA:1026,93826
DA:1027,93826
DA:1029,93826
DA:1030,89744
DA:1032,93826
DA:1034,93826
DA:1035,0
DA:1039,93826
DA:1223,38980
DA:1225,38980
DA:1226,38980
DA:1228,38980
DA:1229,38980
DA:1230,38980
DA:1231,38980
DA:1398,176850
DA:1402,176850
DA:1403,0
DA:1408,0
DA:1410,176850
DA:1398,280225
DA:1402,280225
DA:1403,0
DA:1408,0
DA:1410,280225
DA:1414,492
DA:1416,492
DA:1417,0
DA:1419,492
DA:1420,492
DA:1421,492
DA:1422,492
DA:1639,100
LF:36
LH:29
end_of_record
SF:/usr/share/miniconda/envs/moose/libmesh/include/libmesh/libmesh_common.h
DA:617,9864260
LF:1
LH:1
end_of_record
SF:/home/runner/work/raccoon/raccoon/moose/framework/contrib/hit/parse.h
LF:0
LH:0
end_of_record
SF:/home/runner/work/raccoon/raccoon/moose/framework/build/header_symlinks/Restartable.h
FN:64,_ZN11RestartableD0Ev
FNDA:0,_ZN11RestartableD0Ev
FN:64,_ZN11RestartableD2Ev
FNDA:1,_ZN11RestartableD2Ev
FNF:2
FNH:1
DA:64,0
DA:64,1
LF:2
LH:1
end_of_record
SF:/usr/share/miniconda/envs/moose/libmesh/include/libmesh/parallel_object.h
LF:0
LH:0
end_of_record
SF:/home/runner/work/raccoon/raccoon/moose/framework/build/header_symlinks/MooseEnum.h
FN:31,_ZN9MooseEnumaSERKS_
FNDA:29287,_ZN9MooseEnumaSERKS_
FNF:1
FNH:1
DA:31,58574
LF:1
LH:1
end_of_record
SF:/usr/share/miniconda/envs/moose/libmesh/include/libmesh/reference_counted_object.h
DA:75,66789
LF:1
LH:1
end_of_record
SF:/home/runner/work/raccoon/raccoon/moose/framework/build/header_symlinks/MooseError.h
FN:154,_ZN5moose8internal14mooseStreamAllINSt7__cxx1112basic_stringIcSt11char_traitsIcESaIcEEEJRA2_KcEEEvRNS2_19basic_ostringstreamIcS5_S6_EEOT_DpOT0_
FNDA:0,_ZN5moose8internal14mooseStreamAllINSt7__cxx1112basic_stringIcSt11char_traitsIcESaIcEEEJRA2_KcEEEvRNS2_19basic_ostringstreamIcS5_S6_EEOT_DpOT0_
FN:154,_ZN5moose8internal14mooseStreamAllINSt7__cxx1112basic_stringIcSt11char_traitsIcESaIcEEEJRA45_KcS7_RA2_S8_EEEvRNS2_19basic_ostringstreamIcS5_S6_EEOT_DpOT0_
FNDA:0,_ZN5moose8internal14mooseStreamAllINSt7__cxx1112basic_stringIcSt11char_traitsIcESaIcEEEJRA45_KcS7_RA2_S8_EEEvRNS2_19basic_ostringstreamIcS5_S6_EEOT_DpOT0_
FN:154,_ZN5moose8internal14mooseStreamAllIRKNSt7__cxx1112basic_stringIcSt11char_traitsIcESaIcEEEJRA40_KcEEEvRNS2_19basic_ostringstreamIcS5_S6_EEOT_DpOT0_
FNDA:0,_ZN5moose8internal14mooseStreamAllIRKNSt7__cxx1112basic_stringIcSt11char_traitsIcESaIcEEEJRA40_KcEEEvRNS2_19basic_ostringstreamIcS5_S6_EEOT_DpOT0_
FN:154,_ZN5moose8internal14mooseStreamAllIRKNSt7__cxx1112basic_stringIcSt11char_traitsIcESaIcEEEJRA14_KcS7_RA45_SA_S7_RA2_SA_EEEvRNS2_19basic_ostringstreamIcS5_S6_EEOT_DpOT0_
FNDA:0,_ZN5moose8internal14mooseStreamAllIRKNSt7__cxx1112basic_stringIcSt11char_traitsIcESaIcEEEJRA14_KcS7_RA45_SA_S7_RA2_SA_EEEvRNS2_19basic_ostringstreamIcS5_S6_EEOT_DpOT0_
FN:154,_ZN5moose8internal14mooseStreamAllIRA43_KcJRKNSt7__cxx1112basic_stringIcSt11char_traitsIcESaIcEEEEEEvRNS5_19basic_ostringstreamIcS8_S9_EEOT_DpOT0_
FNDA:0,_ZN5moose8internal14mooseStreamAllIRA43_KcJRKNSt7__cxx1112basic_stringIcSt11char_traitsIcESaIcEEEEEEvRNS5_19basic_ostringstreamIcS8_S9_EEOT_DpOT0_
FN:236,_Z10mooseErrorIJRA16_KcRKNSt7__cxx1112basic_stringIcSt11char_traitsIcESaIcEEERA40_S0_EEvDpOT_
FNDA:0,_Z10mooseErrorIJRA16_KcRKNSt7__cxx1112basic_stringIcSt11char_traitsIcESaIcEEERA40_S0_EEvDpOT_
FN:236,_Z10mooseErrorIJRA30_KcRKNSt7__cxx1112basic_stringIcSt11char_traitsIcESaIcEEERA14_S0_S8_RA45_S0_S8_RA2_S0_EEvDpOT_
FNDA:0,_Z10mooseErrorIJRA30_KcRKNSt7__cxx1112basic_stringIcSt11char_traitsIcESaIcEEERA14_S0_S8_RA45_S0_S8_RA2_S0_EEvDpOT_
FN:236,_Z10mooseErrorIJRA43_KcRKNSt7__cxx1112basic_stringIcSt11char_traitsIcESaIcEEEEEvDpOT_
FNDA:0,_Z10mooseErrorIJRA43_KcRKNSt7__cxx1112basic_stringIcSt11char_traitsIcESaIcEEEEEvDpOT_
FNF:8
FNH:0
DA:154,0
DA:156,0
DA:157,0
DA:158,0
DA:154,0
DA:156,0
DA:157,0
DA:158,0
DA:154,0
DA:156,0
DA:157,0
DA:158,0
DA:154,0
DA:156,0
DA:157,0
DA:158,0
DA:154,0
DA:156,0
DA:157,0
DA:158,0
DA:156,0
DA:157,0
DA:158,0
DA:236,0
DA:238,0
DA:240,0
DA:236,0
DA:238,0
DA:240,0
DA:236,0
DA:238,0
DA:239,0
DA:240,0
LF:33
LH:0
end_of_record
SF:/usr/share/miniconda/envs/moose/libmesh/include/libmesh/type_vector.h
FN:458,_ZN7libMesh10TypeVectorIN11MetaPhysicL10DualNumberIdNS1_28SemiDynamicSparseNumberArrayIdmNS1_8NWrapperILm50EEEEELb1EEEEC2Ev
FNDA:0,_ZN7libMesh10TypeVectorIN11MetaPhysicL10DualNumberIdNS1_28SemiDynamicSparseNumberArrayIdmNS1_8NWrapperILm50EEEEELb1EEEEC2Ev
FN:551,_ZN7libMesh10TypeVectorIN11MetaPhysicL10DualNumberIdNS1_28SemiDynamicSparseNumberArrayIdmNS1_8NWrapperILm50EEEEELb1EEEEC2IdEERKNS0_IT_EE
FNDA:0,_ZN7libMesh10TypeVectorIN11MetaPhysicL10DualNumberIdNS1_28SemiDynamicSparseNumberArrayIdmNS1_8NWrapperILm50EEEEELb1EEEEC2IdEERKNS0_IT_EE
FNF:2
FNH:0
DA:102,0
DA:458,0
DA:460,0
DA:463,0
DA:467,0
DA:469,0
DA:551,0
DA:554,0
DA:555,0
DA:556,0
DA:585,0
LF:11
LH:0
end_of_record
SF:/usr/share/miniconda/envs/moose/x86_64-conda-linux-gnu/include/c++/9.3.0/ostream
DA:113,0
DA:221,4046
DA:246,0
DA:518,0
DA:570,0
LF:5
LH:1
end_of_record
SF:/usr/share/miniconda/envs/moose/x86_64-conda-linux-gnu/include/c++/9.3.0/future
FN:328,_ZNSt13__future_base13_State_baseV2D0Ev
FNDA:0,_ZNSt13__future_base13_State_baseV2D0Ev
FN:328,_ZNSt13__future_base13_State_baseV2D2Ev
FNDA:0,_ZNSt13__future_base13_State_baseV2D2Ev
FN:570,_ZNSt13__future_base13_State_baseV217_M_complete_asyncEv
FNDA:0,_ZNSt13__future_base13_State_baseV217_M_complete_asyncEv
FN:573,_ZNKSt13__future_base13_State_baseV221_M_is_deferred_futureEv
FNDA:0,_ZNKSt13__future_base13_State_baseV221_M_is_deferred_futureEv
FN:652,_ZNSt13__future_base7_ResultIvE10_M_destroyEv
FNDA:0,_ZNSt13__future_base7_ResultIvE10_M_destroyEv
FNF:5
FNH:0
DA:213,0
DA:328,0
DA:328,0
DA:570,0
DA:573,0
DA:652,0
LF:6
LH:0
end_of_record
SF:/usr/share/miniconda/envs/moose/libmesh/include/metaphysicl/dynamic_std_array_wrapper.h
FN:71,_ZN11MetaPhysicL22DynamicStdArrayWrapperImNS_8NWrapperILm50EEEEaSERKS3_
FNDA:0,_ZN11MetaPhysicL22DynamicStdArrayWrapperImNS_8NWrapperILm50EEEEaSERKS3_
FN:71,_ZN11MetaPhysicL22DynamicStdArrayWrapperIdNS_8NWrapperILm50EEEEaSERKS3_
FNDA:0,_ZN11MetaPhysicL22DynamicStdArrayWrapperIdNS_8NWrapperILm50EEEEaSERKS3_
FNF:2
FNH:0
DA:71,0
DA:73,0
DA:76,0
DA:71,0
DA:73,0
DA:76,0
DA:82,0
DA:85,0
DA:86,0
DA:90,0
DA:99,0
DA:105,0
LF:12
LH:0
end_of_record
SF:/usr/share/miniconda/envs/moose/x86_64-conda-linux-gnu/include/c++/9.3.0/bits/move.h
DA:193,0
DA:194,0
DA:195,0
LF:3
LH:0
end_of_record
SF:/usr/share/miniconda/envs/moose/libmesh/include/libmesh/threads_pthread.h
DA:149,502615
DA:150,502615
DA:527,185820
DA:541,316795
LF:4
LH:4
end_of_record
SF:/usr/share/miniconda/envs/moose/x86_64-conda-linux-gnu/include/c++/9.3.0/bits/basic_string.tcc
FN:206,_ZNSt7__cxx1112basic_stringIcSt11char_traitsIcESaIcEE12_M_constructIPcEEvT_S7_St20forward_iterator_tag
FNDA:0,_ZNSt7__cxx1112basic_stringIcSt11char_traitsIcESaIcEE12_M_constructIPcEEvT_S7_St20forward_iterator_tag
FN:206,_ZNSt7__cxx1112basic_stringIcSt11char_traitsIcESaIcEE12_M_constructIPKcEEvT_S8_St20forward_iterator_tag
FNDA:0,_ZNSt7__cxx1112basic_stringIcSt11char_traitsIcESaIcEE12_M_constructIPKcEEvT_S8_St20forward_iterator_tag
FNF:2
FNH:0
DA:206,0
DA:211,0
DA:212,0
DA:215,0
DA:217,0
DA:219,0
DA:220,0
DA:225,0
DA:232,0
DA:233,0
DA:206,0
DA:211,0
DA:212,0
DA:215,0
DA:217,0
DA:219,0
DA:220,0
DA:225,0
DA:232,0
DA:233,0
LF:20
LH:0
end_of_record
SF:/home/runner/work/raccoon/raccoon/moose/framework/build/header_symlinks/AuxKernel.h
FN:134,_ZN14AuxKernelTemplIdE17precalculateValueEv
FNDA:4424,_ZN14AuxKernelTemplIdE17precalculateValueEv
FNF:1
FNH:1
DA:134,4424
LF:1
LH:1
end_of_record
SF:/usr/share/miniconda/envs/moose/x86_64-conda-linux-gnu/include/c++/9.3.0/bits/stl_construct.h
DA:98,42
DA:107,2196020
LF:2
LH:2
end_of_record
SF:/usr/share/miniconda/envs/moose/x86_64-conda-linux-gnu/include/c++/9.3.0/bits/stl_vector.h
FN:622,_ZNSt6vectorIdSaIdEEC2ESt16initializer_listIdERKS0_
FNDA:5615400,_ZNSt6vectorIdSaIdEEC2ESt16initializer_listIdERKS0_
FN:675,_ZNSt6vectorISt5tupleIJNSt7__cxx1112basic_stringIcSt11char_traitsIcESaIcEEEN5Moose23RelationshipManagerTypeESt8functionIFvRK15InputParametersRSA_EEEESaISG_EED2Ev
FNDA:3172,_ZNSt6vectorISt5tupleIJNSt7__cxx1112basic_stringIcSt11char_traitsIcESaIcEEEN5Moose23RelationshipManagerTypeESt8functionIFvRK15InputParametersRSA_EEEESaISG_EED2Ev
FN:675,_ZNSt6vectorIS_ISt4pairIhhESaIS1_EESaIS3_EED2Ev
FNDA:28,_ZNSt6vectorIS_ISt4pairIhhESaIS1_EESaIS3_EED2Ev
FN:675,_ZNSt6vectorISt10unique_ptrI10MooseArrayIdESt14default_deleteIS2_EESaIS5_EED2Ev
FNDA:0,_ZNSt6vectorISt10unique_ptrI10MooseArrayIdESt14default_deleteIS2_EESaIS5_EED2Ev
FN:675,_ZNSt6vectorIS_IaSaIaEESaIS1_EED2Ev
FNDA:7,_ZNSt6vectorIS_IaSaIaEESaIS1_EED2Ev
FN:675,_ZNSt6vectorIS_IS_ISt4pairIhhESaIS1_EESaIS3_EESaIS5_EED2Ev
FNDA:7,_ZNSt6vectorIS_IS_ISt4pairIhhESaIS1_EESaIS3_EESaIS5_EED2Ev
FN:675,_ZNSt6vectorISt10unique_ptrI18ADMaterialPropertyIN7libMesh11VectorValueIdEEESt14default_deleteIS5_EESaIS8_EED2Ev
FNDA:536,_ZNSt6vectorISt10unique_ptrI18ADMaterialPropertyIN7libMesh11VectorValueIdEEESt14default_deleteIS5_EESaIS8_EED2Ev
FN:675,_ZNSt6vectorISt10unique_ptrI16MaterialPropertyIN7libMesh11VectorValueIdEEESt14default_deleteIS5_EESaIS8_EED2Ev
FNDA:536,_ZNSt6vectorISt10unique_ptrI16MaterialPropertyIN7libMesh11VectorValueIdEEESt14default_deleteIS5_EESaIS8_EED2Ev
FN:675,_ZNSt6vectorISt10unique_ptrI18ADMaterialPropertyIdESt14default_deleteIS2_EESaIS5_EED2Ev
FNDA:536,_ZNSt6vectorISt10unique_ptrI18ADMaterialPropertyIdESt14default_deleteIS2_EESaIS5_EED2Ev
FN:675,_ZNSt6vectorISt10unique_ptrI16MaterialPropertyIdESt14default_deleteIS2_EESaIS5_EED2Ev
FNDA:536,_ZNSt6vectorISt10unique_ptrI16MaterialPropertyIdESt14default_deleteIS2_EESaIS5_EED2Ev
FN:675,_ZNSt6vectorI13SubdomainNameSaIS0_EED2Ev
FNDA:1,_ZNSt6vectorI13SubdomainNameSaIS0_EED2Ev
FN:675,_ZNSt6vectorIS_IS_IaSaIaEESaIS1_EESaIS3_EED2Ev
FNDA:7,_ZNSt6vectorIS_IS_IaSaIaEESaIS1_EESaIS3_EED2Ev
FN:675,_ZNSt6vectorIS_IS_IS_ISt4pairIhhESaIS1_EESaIS3_EESaIS5_EESaIS7_EED2Ev
FNDA:7,_ZNSt6vectorIS_IS_IS_ISt4pairIhhESaIS1_EESaIS3_EESaIS5_EESaIS7_EED2Ev
FN:675,_ZNSt6vectorINSt7__cxx1112basic_stringIcSt11char_traitsIcESaIcEEESaIS5_EED2Ev
FNDA:937574,_ZNSt6vectorINSt7__cxx1112basic_stringIcSt11char_traitsIcESaIcEEESaIS5_EED2Ev
FNF:14
FNH:13
DA:94,5615400
DA:95,0
DA:333,942947
DA:334,0
DA:350,942947
DA:622,5615400
DA:626,5615400
DA:628,5615400
DA:675,3172
DA:677,3172
DA:680,3172
DA:675,28
DA:677,136
DA:680,108
DA:675,0
DA:677,0
DA:680,0
DA:675,7
DA:677,35
DA:680,28
DA:675,7
DA:677,7
DA:680,7
DA:675,536
DA:677,536
DA:680,536
DA:675,536
DA:677,536
DA:680,536
DA:675,536
DA:677,536
DA:680,536
DA:675,536
DA:677,536
DA:680,536
DA:675,1
DA:677,1
DA:680,1
DA:675,7
DA:677,7
DA:680,7
DA:675,7
DA:677,7
DA:680,7
DA:675,937574
DA:677,937574
DA:680,937574
DA:677,11601
DA:680,6462
DA:916,9864260
DA:1005,0
DA:1043,0
DA:1061,0
LF:53
LH:45
end_of_record
SF:/usr/share/miniconda/envs/moose/libmesh/include/metaphysicl/semidynamicsparsenumberarray_decl.h
DA:34,0
LF:1
LH:0
end_of_record
SF:/home/runner/work/raccoon/raccoon/moose/framework/build/header_symlinks/Registry.h
FN:137,_ZN5moose8internal15callValidParamsI20ConditionalBoundsAuxEEDTcmcl20callValidParamsInnerIT_ELi0EEclL_Z20emptyInputParametersvEEEv
FNDA:100,_ZN5moose8internal15callValidParamsI20ConditionalBoundsAuxEEDTcmcl20callValidParamsInnerIT_ELi0EEclL_Z20emptyInputParametersvEEEv
FN:144,_ZN5moose8internal8buildObjI20ConditionalBoundsAuxEESt10shared_ptrI11MooseObjectERK15InputParameters
FNDA:1,_ZN5moose8internal8buildObjI20ConditionalBoundsAuxEESt10shared_ptrI11MooseObjectERK15InputParameters
FN:204,_ZN8Registry3addI20ConditionalBoundsAuxEEcRK13RegistryEntry
FNDA:32,_ZN8Registry3addI20ConditionalBoundsAuxEEcRK13RegistryEntry
FNF:3
FNH:3
DA:137,100
DA:139,100
DA:144,1
DA:146,1
DA:204,32
DA:206,64
DA:207,32
DA:208,32
DA:209,32
DA:210,32
LF:10
LH:10
end_of_record
SF:/usr/share/miniconda/envs/moose/x86_64-conda-linux-gnu/include/c++/9.3.0/typeinfo
DA:100,20774
DA:123,0
DA:124,0
LF:3
LH:1
end_of_record
SF:/usr/share/miniconda/envs/moose/x86_64-conda-linux-gnu/include/c++/9.3.0/bits/stl_algobase.h
DA:384,0
DA:385,0
DA:386,0
DA:713,83861200
DA:714,68592000
LF:5
LH:2
end_of_record
SF:/home/runner/work/raccoon/raccoon/moose/framework/build/header_symlinks/MooseArray.h
FN:212,_ZN10MooseArrayIdE6resizeILb1EEEvj
FNDA:0,_ZN10MooseArrayIdE6resizeILb1EEEvj
FN:212,_ZN10MooseArrayIN11MetaPhysicL10DualNumberIdNS0_28SemiDynamicSparseNumberArrayIdmNS0_8NWrapperILm50EEEEELb1EEEE6resizeILb1EEEvj
FNDA:0,_ZN10MooseArrayIN11MetaPhysicL10DualNumberIdNS0_28SemiDynamicSparseNumberArrayIdmNS0_8NWrapperILm50EEEEELb1EEEE6resizeILb1EEEvj
FN:212,_ZN10MooseArrayIN7libMesh11VectorValueIdEEE6resizeILb1EEEvj
FNDA:0,_ZN10MooseArrayIN7libMesh11VectorValueIdEEE6resizeILb1EEEvj
FN:212,_ZN10MooseArrayIN7libMesh11VectorValueIN11MetaPhysicL10DualNumberIdNS2_28SemiDynamicSparseNumberArrayIdmNS2_8NWrapperILm50EEEEELb1EEEEEE6resizeILb1EEEvj
FNDA:0,_ZN10MooseArrayIN7libMesh11VectorValueIN11MetaPhysicL10DualNumberIdNS2_28SemiDynamicSparseNumberArrayIdmNS2_8NWrapperILm50EEEEELb1EEEEEE6resizeILb1EEEvj
FNF:4
FNH:0
DA:54,0
DA:212,0
DA:214,0
DA:215,0
DA:219,0
DA:224,0
DA:225,0
DA:226,0
DA:228,0
DA:212,0
DA:214,0
DA:215,0
DA:219,0
DA:224,0
DA:225,0
DA:226,0
DA:228,0
DA:212,0
DA:214,0
DA:215,0
DA:219,0
DA:224,0
DA:225,0
DA:226,0
DA:228,0
DA:212,0
DA:214,0
DA:215,0
DA:219,0
DA:224,0
DA:225,0
DA:226,0
DA:228,0
DA:268,0
DA:278,0
LF:35
LH:0
end_of_record
SF:/usr/share/miniconda/envs/moose/x86_64-conda-linux-gnu/include/c++/9.3.0/ext/aligned_buffer.h
DA:65,5646420
DA:69,2306450
DA:104,2
LF:3
LH:3
end_of_record
SF:/usr/share/miniconda/envs/moose/x86_64-conda-linux-gnu/include/c++/9.3.0/iostream
LF:0
LH:0
end_of_record
SF:/home/runner/work/raccoon/raccoon/moose/framework/build/header_symlinks/BoundsAuxBase.h
LF:0
LH:0
end_of_record
SF:/usr/share/miniconda/envs/moose/x86_64-conda-linux-gnu/include/c++/9.3.0/bits/stl_map.h
FN:490,_ZNSt3mapINSt7__cxx1112basic_stringIcSt11char_traitsIcESaIcEEEN15InputParameters8MetadataESt4lessIS5_ESaISt4pairIKS5_S7_EEEixERSB_
FNDA:13759800,_ZNSt3mapINSt7__cxx1112basic_stringIcSt11char_traitsIcESaIcEEEN15InputParameters8MetadataESt4lessIS5_ESaISt4pairIKS5_S7_EEEixERSB_
FN:490,_ZNSt3mapINSt7__cxx1112basic_stringIcSt11char_traitsIcESaIcEEEPN7libMesh10Parameters5ValueESt4lessIS5_ESaISt4pairIKS5_S9_EEEixERSD_
FNDA:6903560,_ZNSt3mapINSt7__cxx1112basic_stringIcSt11char_traitsIcESaIcEEEPN7libMesh10Parameters5ValueESt4lessIS5_ESaISt4pairIKS5_S9_EEEixERSD_
FNF:2
FNH:2
DA:100,29287
DA:300,125375
DA:355,4508
DA:364,0
DA:464,7680
DA:490,13759800
DA:497,13759800
DA:499,3951070
DA:505,13759800
DA:490,6903560
DA:497,6903560
DA:499,4209420
DA:505,6903560
DA:1037,4508
DA:1169,0
DA:1194,590701
DA:1258,20663400
LF:17
LH:15
end_of_record
SF:/home/runner/work/raccoon/raccoon/moose/framework/build/header_symlinks/PostprocessorInterface.h
LF:0
LH:0
end_of_record
SF:/usr/share/miniconda/envs/moose/libmesh/include/libmesh/ostream_proxy.h
DA:116,0
DA:123,0
LF:2
LH:0
end_of_record
SF:/home/runner/work/raccoon/raccoon/moose/framework/build/header_symlinks/BlockRestrictable.h
FN:91,_ZN17BlockRestrictableD0Ev
FNDA:0,_ZN17BlockRestrictableD0Ev
FN:91,_ZN17BlockRestrictableD2Ev
FNDA:1,_ZN17BlockRestrictableD2Ev
FNF:2
FNH:1
DA:91,0
DA:91,1
LF:2
LH:1
end_of_record
SF:/usr/share/miniconda/envs/moose/x86_64-conda-linux-gnu/include/c++/9.3.0/bits/stl_set.h
FN:281,_ZNSt3setIsSt4lessIsESaIsEED2Ev
FNDA:0,_ZNSt3setIsSt4lessIsESaIsEED2Ev
FN:281,_ZNSt3setItSt4lessItESaItEED2Ev
FNDA:0,_ZNSt3setItSt4lessItESaItEED2Ev
FNF:2
FNH:0
DA:94,29287
DA:281,0
DA:281,0
DA:281,122205
LF:4
LH:2
end_of_record
SF:/usr/share/miniconda/envs/moose/libmesh/include/libmesh/int_range.h
DA:63,0
DA:64,0
LF:2
LH:0
end_of_record
SF:/usr/share/miniconda/envs/moose/x86_64-conda-linux-gnu/include/c++/9.3.0/bits/stl_iterator.h
DA:807,15269200
DA:896,0
LF:2
LH:1
end_of_record
SF:/usr/share/miniconda/envs/moose/libmesh/include/libmesh/dense_vector.h
FN:101,_ZN7libMesh11DenseVectorIdED0Ev
FNDA:0,_ZN7libMesh11DenseVectorIdED0Ev
FN:101,_ZN7libMesh11DenseVectorIdED2Ev
FNDA:5139,_ZN7libMesh11DenseVectorIdED2Ev
FN:103,_ZNK7libMesh11DenseVectorIdE4sizeEv
FNDA:9864260,_ZNK7libMesh11DenseVectorIdE4sizeEv
FN:108,_ZNK7libMesh11DenseVectorIdE5emptyEv
FNDA:0,_ZNK7libMesh11DenseVectorIdE5emptyEv
FN:123,_ZNK7libMesh11DenseVectorIdE2elEj
FNDA:0,_ZNK7libMesh11DenseVectorIdE2elEj
FN:126,_ZN7libMesh11DenseVectorIdE2elEj
FNDA:0,_ZN7libMesh11DenseVectorIdE2elEj
FN:397,_ZN7libMesh11DenseVectorIdE4zeroEv
FNDA:13424900,_ZN7libMesh11DenseVectorIdE4zeroEv
FNF:7
FNH:3
DA:101,0
DA:101,5139
DA:103,9864260
DA:105,9864260
DA:108,0
DA:109,0
DA:123,0
DA:124,0
DA:126,0
DA:127,0
DA:397,13424900
DA:402,13424900
DA:412,0
DA:423,0
LF:14
LH:5
end_of_record
SF:/home/runner/work/raccoon/raccoon/moose/framework/build/header_symlinks/MooseTypes.h
DA:886,1
LF:1
LH:1
end_of_record
SF:/home/runner/work/raccoon/raccoon/src/auxkernels/ConditionalBoundsAux.C
FN:6,_ZN20ConditionalBoundsAux11validParamsEv
FNDA:100,_ZN20ConditionalBoundsAux11validParamsEv
FN:21,_ZN20ConditionalBoundsAuxC2ERK15InputParameters
FNDA:1,_ZN20ConditionalBoundsAuxC2ERK15InputParameters
FN:29,_ZN20ConditionalBoundsAux8getBoundEv
FNDA:4424,_ZN20ConditionalBoundsAux8getBoundEv
FNF:3
FNH:3
DA:6,100
DA:8,100
DA:9,100
DA:13,200
DA:14,200
DA:16,200
DA:17,100
DA:18,100
DA:21,1
DA:23,1
DA:24,3
DA:26,1
DA:29,4424
DA:31,4424
DA:32,4424
DA:35,4336
LF:16
LH:16
end_of_record
SF:/usr/share/miniconda/envs/moose/x86_64-conda-linux-gnu/include/c++/9.3.0/bits/hashtable.h
FN:1348,_ZNSt10_HashtableINSt7__cxx1112basic_stringIcSt11char_traitsIcESaIcEEESt4pairIKS5_S5_ESaIS8_ENSt8__detail10_Select1stESt8equal_toIS5_ESt4hashIS5_ENSA_18_Mod_range_hashingENSA_20_Default_ranged_hashENSA_20_Prime_rehash_policyENSA_17_Hashtable_traitsILb1ELb0ELb1EEEED2Ev
FNDA:0,_ZNSt10_HashtableINSt7__cxx1112basic_stringIcSt11char_traitsIcESaIcEEESt4pairIKS5_S5_ESaIS8_ENSt8__detail10_Select1stESt8equal_toIS5_ESt4hashIS5_ENSA_18_Mod_range_hashingENSA_20_Default_ranged_hashENSA_20_Prime_rehash_policyENSA_17_Hashtable_traitsILb1ELb0ELb1EEEED2Ev
FN:1348,_ZNSt10_HashtableINSt7__cxx1112basic_stringIcSt11char_traitsIcESaIcEEESt4pairIKS5_St6vectorIP22MooseVariableFieldBaseSaISA_EEESaISD_ENSt8__detail10_Select1stESt8equal_toIS5_ESt4hashIS5_ENSF_18_Mod_range_hashingENSF_20_Default_ranged_hashENSF_20_Prime_rehash_policyENSF_17_Hashtable_traitsILb1ELb0ELb1EEEED2Ev
FNDA:2589,_ZNSt10_HashtableINSt7__cxx1112basic_stringIcSt11char_traitsIcESaIcEEESt4pairIKS5_St6vectorIP22MooseVariableFieldBaseSaISA_EEESaISD_ENSt8__detail10_Select1stESt8equal_toIS5_ESt4hashIS5_ENSF_18_Mod_range_hashingENSF_20_Default_ranged_hashENSF_20_Prime_rehash_policyENSF_17_Hashtable_traitsILb1ELb0ELb1EEEED2Ev
FN:1348,_ZNSt10_HashtableINSt7__cxx1112basic_stringIcSt11char_traitsIcESaIcEEESt4pairIKS5_St6vectorISt10unique_ptrI10MooseArrayIdESt14default_deleteISB_EESaISE_EEESaISH_ENSt8__detail10_Select1stESt8equal_toIS5_ESt4hashIS5_ENSJ_18_Mod_range_hashingENSJ_20_Default_ranged_hashENSJ_20_Prime_rehash_policyENSJ_17_Hashtable_traitsILb1ELb0ELb1EEEED2Ev
FNDA:1259,_ZNSt10_HashtableINSt7__cxx1112basic_stringIcSt11char_traitsIcESaIcEEESt4pairIKS5_St6vectorISt10unique_ptrI10MooseArrayIdESt14default_deleteISB_EESaISE_EEESaISH_ENSt8__detail10_Select1stESt8equal_toIS5_ESt4hashIS5_ENSJ_18_Mod_range_hashingENSJ_20_Default_ranged_hashENSJ_20_Prime_rehash_policyENSJ_17_Hashtable_traitsILb1ELb0ELb1EEEED2Ev
FN:1348,_ZNSt10_HashtableINSt7__cxx1112basic_stringIcSt11char_traitsIcESaIcEEESt4pairIKS5_St10unique_ptrI10MooseArrayIN11MetaPhysicL10DualNumberIdNSA_28SemiDynamicSparseNumberArrayIdmNSA_8NWrapperILm50EEEEELb1EEEESt14default_deleteISH_EEESaISL_ENSt8__detail10_Select1stESt8equal_toIS5_ESt4hashIS5_ENSN_18_Mod_range_hashingENSN_20_Default_ranged_hashENSN_20_Prime_rehash_policyENSN_17_Hashtable_traitsILb1ELb0ELb1EEEED2Ev
FNDA:2589,_ZNSt10_HashtableINSt7__cxx1112basic_stringIcSt11char_traitsIcESaIcEEESt4pairIKS5_St10unique_ptrI10MooseArrayIN11MetaPhysicL10DualNumberIdNSA_28SemiDynamicSparseNumberArrayIdmNSA_8NWrapperILm50EEEEELb1EEEESt14default_deleteISH_EEESaISL_ENSt8__detail10_Select1stESt8equal_toIS5_ESt4hashIS5_ENSN_18_Mod_range_hashingENSN_20_Default_ranged_hashENSN_20_Prime_rehash_policyENSN_17_Hashtable_traitsILb1ELb0ELb1EEEED2Ev
FN:1348,_ZNSt10_HashtableINSt7__cxx1112basic_stringIcSt11char_traitsIcESaIcEEESt4pairIKS5_St10unique_ptrI10MooseArrayIN7libMesh11VectorValueIdEEESt14default_deleteISD_EEESaISH_ENSt8__detail10_Select1stESt8equal_toIS5_ESt4hashIS5_ENSJ_18_Mod_range_hashingENSJ_20_Default_ranged_hashENSJ_20_Prime_rehash_policyENSJ_17_Hashtable_traitsILb1ELb0ELb1EEEED2Ev
FNDA:1259,_ZNSt10_HashtableINSt7__cxx1112basic_stringIcSt11char_traitsIcESaIcEEESt4pairIKS5_St10unique_ptrI10MooseArrayIN7libMesh11VectorValueIdEEESt14default_deleteISD_EEESaISH_ENSt8__detail10_Select1stESt8equal_toIS5_ESt4hashIS5_ENSJ_18_Mod_range_hashingENSJ_20_Default_ranged_hashENSJ_20_Prime_rehash_policyENSJ_17_Hashtable_traitsILb1ELb0ELb1EEEED2Ev
FN:1348,_ZNSt10_HashtableINSt7__cxx1112basic_stringIcSt11char_traitsIcESaIcEEESt4pairIKS5_St10unique_ptrI10MooseArrayIN5Eigen6MatrixIdLin1ELi1ELi0ELin1ELi1EEEESt14default_deleteISD_EEESaISH_ENSt8__detail10_Select1stESt8equal_toIS5_ESt4hashIS5_ENSJ_18_Mod_range_hashingENSJ_20_Default_ranged_hashENSJ_20_Prime_rehash_policyENSJ_17_Hashtable_traitsILb1ELb0ELb1EEEED2Ev
FNDA:1259,_ZNSt10_HashtableINSt7__cxx1112basic_stringIcSt11char_traitsIcESaIcEEESt4pairIKS5_St10unique_ptrI10MooseArrayIN5Eigen6MatrixIdLin1ELi1ELi0ELin1ELi1EEEESt14default_deleteISD_EEESaISH_ENSt8__detail10_Select1stESt8equal_toIS5_ESt4hashIS5_ENSJ_18_Mod_range_hashingENSJ_20_Default_ranged_hashENSJ_20_Prime_rehash_policyENSJ_17_Hashtable_traitsILb1ELb0ELb1EEEED2Ev
FN:1348,_ZNSt10_HashtableINSt7__cxx1112basic_stringIcSt11char_traitsIcESaIcEEESt4pairIKS5_St10unique_ptrI10MooseArrayIN7libMesh11VectorValueIN11MetaPhysicL10DualNumberIdNSC_28SemiDynamicSparseNumberArrayIdmNSC_8NWrapperILm50EEEEELb1EEEEEESt14default_deleteISK_EEESaISO_ENSt8__detail10_Select1stESt8equal_toIS5_ESt4hashIS5_ENSQ_18_Mod_range_hashingENSQ_20_Default_ranged_hashENSQ_20_Prime_rehash_policyENSQ_17_Hashtable_traitsILb1ELb0ELb1EEEED2Ev
FNDA:1259,_ZNSt10_HashtableINSt7__cxx1112basic_stringIcSt11char_traitsIcESaIcEEESt4pairIKS5_St10unique_ptrI10MooseArrayIN7libMesh11VectorValueIN11MetaPhysicL10DualNumberIdNSC_28SemiDynamicSparseNumberArrayIdmNSC_8NWrapperILm50EEEEELb1EEEEEESt14default_deleteISK_EEESaISO_ENSt8__detail10_Select1stESt8equal_toIS5_ESt4hashIS5_ENSQ_18_Mod_range_hashingENSQ_20_Default_ranged_hashENSQ_20_Prime_rehash_policyENSQ_17_Hashtable_traitsILb1ELb0ELb1EEEED2Ev
FN:1348,_ZNSt10_HashtableINSt7__cxx1112basic_stringIcSt11char_traitsIcESaIcEEESt4pairIKS5_St6vectorIjSaIjEEESaISB_ENSt8__detail10_Select1stESt8equal_toIS5_ESt4hashIS5_ENSD_18_Mod_range_hashingENSD_20_Default_ranged_hashENSD_20_Prime_rehash_policyENSD_17_Hashtable_traitsILb1ELb0ELb1EEEED2Ev
FNDA:1259,_ZNSt10_HashtableINSt7__cxx1112basic_stringIcSt11char_traitsIcESaIcEEESt4pairIKS5_St6vectorIjSaIjEEESaISB_ENSt8__detail10_Select1stESt8equal_toIS5_ESt4hashIS5_ENSD_18_Mod_range_hashingENSD_20_Default_ranged_hashENSD_20_Prime_rehash_policyENSD_17_Hashtable_traitsILb1ELb0ELb1EEEED2Ev
FN:1348,_ZNSt10_HashtableINSt7__cxx1112basic_stringIcSt11char_traitsIcESaIcEEESt4pairIKS5_St6vectorIP19MooseVariableScalarSaISA_EEESaISD_ENSt8__detail10_Select1stESt8equal_toIS5_ESt4hashIS5_ENSF_18_Mod_range_hashingENSF_20_Default_ranged_hashENSF_20_Prime_rehash_policyENSF_17_Hashtable_traitsILb1ELb0ELb1EEEED2Ev
FNDA:2589,_ZNSt10_HashtableINSt7__cxx1112basic_stringIcSt11char_traitsIcESaIcEEESt4pairIKS5_St6vectorIP19MooseVariableScalarSaISA_EEESaISD_ENSt8__detail10_Select1stESt8equal_toIS5_ESt4hashIS5_ENSF_18_Mod_range_hashingENSF_20_Default_ranged_hashENSF_20_Prime_rehash_policyENSF_17_Hashtable_traitsILb1ELb0ELb1EEEED2Ev
FN:1348,_ZNSt10_HashtableINSt7__cxx1112basic_stringIcSt11char_traitsIcESaIcEEESt4pairIKS5_St10unique_ptrI10MooseArrayIdESt14default_deleteISA_EEESaISE_ENSt8__detail10_Select1stESt8equal_toIS5_ESt4hashIS5_ENSG_18_Mod_range_hashingENSG_20_Default_ranged_hashENSG_20_Prime_rehash_policyENSG_17_Hashtable_traitsILb1ELb0ELb1EEEED2Ev
FNDA:1330,_ZNSt10_HashtableINSt7__cxx1112basic_stringIcSt11char_traitsIcESaIcEEESt4pairIKS5_St10unique_ptrI10MooseArrayIdESt14default_deleteISA_EEESaISE_ENSt8__detail10_Select1stESt8equal_toIS5_ESt4hashIS5_ENSG_18_Mod_range_hashingENSG_20_Default_ranged_hashENSG_20_Prime_rehash_policyENSG_17_Hashtable_traitsILb1ELb0ELb1EEEED2Ev
FN:2024,_ZNSt10_HashtableINSt7__cxx1112basic_stringIcSt11char_traitsIcESaIcEEESt4pairIKS5_St6vectorIP22MooseVariableFieldBaseSaISA_EEESaISD_ENSt8__detail10_Select1stESt8equal_toIS5_ESt4hashIS5_ENSF_18_Mod_range_hashingENSF_20_Default_ranged_hashENSF_20_Prime_rehash_policyENSF_17_Hashtable_traitsILb1ELb0ELb1EEEE5clearEv
FNDA:2589,_ZNSt10_HashtableINSt7__cxx1112basic_stringIcSt11char_traitsIcESaIcEEESt4pairIKS5_St6vectorIP22MooseVariableFieldBaseSaISA_EEESaISD_ENSt8__detail10_Select1stESt8equal_toIS5_ESt4hashIS5_ENSF_18_Mod_range_hashingENSF_20_Default_ranged_hashENSF_20_Prime_rehash_policyENSF_17_Hashtable_traitsILb1ELb0ELb1EEEE5clearEv
FN:2024,_ZNSt10_HashtableINSt7__cxx1112basic_stringIcSt11char_traitsIcESaIcEEESt4pairIKS5_St6vectorISt10unique_ptrI10MooseArrayIdESt14default_deleteISB_EESaISE_EEESaISH_ENSt8__detail10_Select1stESt8equal_toIS5_ESt4hashIS5_ENSJ_18_Mod_range_hashingENSJ_20_Default_ranged_hashENSJ_20_Prime_rehash_policyENSJ_17_Hashtable_traitsILb1ELb0ELb1EEEE5clearEv
FNDA:1259,_ZNSt10_HashtableINSt7__cxx1112basic_stringIcSt11char_traitsIcESaIcEEESt4pairIKS5_St6vectorISt10unique_ptrI10MooseArrayIdESt14default_deleteISB_EESaISE_EEESaISH_ENSt8__detail10_Select1stESt8equal_toIS5_ESt4hashIS5_ENSJ_18_Mod_range_hashingENSJ_20_Default_ranged_hashENSJ_20_Prime_rehash_policyENSJ_17_Hashtable_traitsILb1ELb0ELb1EEEE5clearEv
FN:2024,_ZNSt10_HashtableINSt7__cxx1112basic_stringIcSt11char_traitsIcESaIcEEESt4pairIKS5_St10unique_ptrI10MooseArrayIN11MetaPhysicL10DualNumberIdNSA_28SemiDynamicSparseNumberArrayIdmNSA_8NWrapperILm50EEEEELb1EEEESt14default_deleteISH_EEESaISL_ENSt8__detail10_Select1stESt8equal_toIS5_ESt4hashIS5_ENSN_18_Mod_range_hashingENSN_20_Default_ranged_hashENSN_20_Prime_rehash_policyENSN_17_Hashtable_traitsILb1ELb0ELb1EEEE5clearEv
FNDA:2589,_ZNSt10_HashtableINSt7__cxx1112basic_stringIcSt11char_traitsIcESaIcEEESt4pairIKS5_St10unique_ptrI10MooseArrayIN11MetaPhysicL10DualNumberIdNSA_28SemiDynamicSparseNumberArrayIdmNSA_8NWrapperILm50EEEEELb1EEEESt14default_deleteISH_EEESaISL_ENSt8__detail10_Select1stESt8equal_toIS5_ESt4hashIS5_ENSN_18_Mod_range_hashingENSN_20_Default_ranged_hashENSN_20_Prime_rehash_policyENSN_17_Hashtable_traitsILb1ELb0ELb1EEEE5clearEv
FN:2024,_ZNSt10_HashtableINSt7__cxx1112basic_stringIcSt11char_traitsIcESaIcEEESt4pairIKS5_St10unique_ptrI10MooseArrayIN7libMesh11VectorValueIdEEESt14default_deleteISD_EEESaISH_ENSt8__detail10_Select1stESt8equal_toIS5_ESt4hashIS5_ENSJ_18_Mod_range_hashingENSJ_20_Default_ranged_hashENSJ_20_Prime_rehash_policyENSJ_17_Hashtable_traitsILb1ELb0ELb1EEEE5clearEv
FNDA:1259,_ZNSt10_HashtableINSt7__cxx1112basic_stringIcSt11char_traitsIcESaIcEEESt4pairIKS5_St10unique_ptrI10MooseArrayIN7libMesh11VectorValueIdEEESt14default_deleteISD_EEESaISH_ENSt8__detail10_Select1stESt8equal_toIS5_ESt4hashIS5_ENSJ_18_Mod_range_hashingENSJ_20_Default_ranged_hashENSJ_20_Prime_rehash_policyENSJ_17_Hashtable_traitsILb1ELb0ELb1EEEE5clearEv
FN:2024,_ZNSt10_HashtableINSt7__cxx1112basic_stringIcSt11char_traitsIcESaIcEEESt4pairIKS5_St10unique_ptrI10MooseArrayIN5Eigen6MatrixIdLin1ELi1ELi0ELin1ELi1EEEESt14default_deleteISD_EEESaISH_ENSt8__detail10_Select1stESt8equal_toIS5_ESt4hashIS5_ENSJ_18_Mod_range_hashingENSJ_20_Default_ranged_hashENSJ_20_Prime_rehash_policyENSJ_17_Hashtable_traitsILb1ELb0ELb1EEEE5clearEv
FNDA:1259,_ZNSt10_HashtableINSt7__cxx1112basic_stringIcSt11char_traitsIcESaIcEEESt4pairIKS5_St10unique_ptrI10MooseArrayIN5Eigen6MatrixIdLin1ELi1ELi0ELin1ELi1EEEESt14default_deleteISD_EEESaISH_ENSt8__detail10_Select1stESt8equal_toIS5_ESt4hashIS5_ENSJ_18_Mod_range_hashingENSJ_20_Default_ranged_hashENSJ_20_Prime_rehash_policyENSJ_17_Hashtable_traitsILb1ELb0ELb1EEEE5clearEv
FN:2024,_ZNSt10_HashtableINSt7__cxx1112basic_stringIcSt11char_traitsIcESaIcEEESt4pairIKS5_St10unique_ptrI10MooseArrayIN7libMesh11VectorValueIN11MetaPhysicL10DualNumberIdNSC_28SemiDynamicSparseNumberArrayIdmNSC_8NWrapperILm50EEEEELb1EEEEEESt14default_deleteISK_EEESaISO_ENSt8__detail10_Select1stESt8equal_toIS5_ESt4hashIS5_ENSQ_18_Mod_range_hashingENSQ_20_Default_ranged_hashENSQ_20_Prime_rehash_policyENSQ_17_Hashtable_traitsILb1ELb0ELb1EEEE5clearEv
FNDA:1259,_ZNSt10_HashtableINSt7__cxx1112basic_stringIcSt11char_traitsIcESaIcEEESt4pairIKS5_St10unique_ptrI10MooseArrayIN7libMesh11VectorValueIN11MetaPhysicL10DualNumberIdNSC_28SemiDynamicSparseNumberArrayIdmNSC_8NWrapperILm50EEEEELb1EEEEEESt14default_deleteISK_EEESaISO_ENSt8__detail10_Select1stESt8equal_toIS5_ESt4hashIS5_ENSQ_18_Mod_range_hashingENSQ_20_Default_ranged_hashENSQ_20_Prime_rehash_policyENSQ_17_Hashtable_traitsILb1ELb0ELb1EEEE5clearEv
FN:2024,_ZNSt10_HashtableINSt7__cxx1112basic_stringIcSt11char_traitsIcESaIcEEESt4pairIKS5_St6vectorIjSaIjEEESaISB_ENSt8__detail10_Select1stESt8equal_toIS5_ESt4hashIS5_ENSD_18_Mod_range_hashingENSD_20_Default_ranged_hashENSD_20_Prime_rehash_policyENSD_17_Hashtable_traitsILb1ELb0ELb1EEEE5clearEv
FNDA:1259,_ZNSt10_HashtableINSt7__cxx1112basic_stringIcSt11char_traitsIcESaIcEEESt4pairIKS5_St6vectorIjSaIjEEESaISB_ENSt8__detail10_Select1stESt8equal_toIS5_ESt4hashIS5_ENSD_18_Mod_range_hashingENSD_20_Default_ranged_hashENSD_20_Prime_rehash_policyENSD_17_Hashtable_traitsILb1ELb0ELb1EEEE5clearEv
FN:2024,_ZNSt10_HashtableINSt7__cxx1112basic_stringIcSt11char_traitsIcESaIcEEESt4pairIKS5_St6vectorIP19MooseVariableScalarSaISA_EEESaISD_ENSt8__detail10_Select1stESt8equal_toIS5_ESt4hashIS5_ENSF_18_Mod_range_hashingENSF_20_Default_ranged_hashENSF_20_Prime_rehash_policyENSF_17_Hashtable_traitsILb1ELb0ELb1EEEE5clearEv
FNDA:2589,_ZNSt10_HashtableINSt7__cxx1112basic_stringIcSt11char_traitsIcESaIcEEESt4pairIKS5_St6vectorIP19MooseVariableScalarSaISA_EEESaISD_ENSt8__detail10_Select1stESt8equal_toIS5_ESt4hashIS5_ENSF_18_Mod_range_hashingENSF_20_Default_ranged_hashENSF_20_Prime_rehash_policyENSF_17_Hashtable_traitsILb1ELb0ELb1EEEE5clearEv
FN:2024,_ZNSt10_HashtableINSt7__cxx1112basic_stringIcSt11char_traitsIcESaIcEEESt4pairIKS5_St10unique_ptrI10MooseArrayIdESt14default_deleteISA_EEESaISE_ENSt8__detail10_Select1stESt8equal_toIS5_ESt4hashIS5_ENSG_18_Mod_range_hashingENSG_20_Default_ranged_hashENSG_20_Prime_rehash_policyENSG_17_Hashtable_traitsILb1ELb0ELb1EEEE5clearEv
FNDA:1330,_ZNSt10_HashtableINSt7__cxx1112basic_stringIcSt11char_traitsIcESaIcEEESt4pairIKS5_St10unique_ptrI10MooseArrayIdESt14default_deleteISA_EEESaISE_ENSt8__detail10_Select1stESt8equal_toIS5_ESt4hashIS5_ENSG_18_Mod_range_hashingENSG_20_Default_ranged_hashENSG_20_Prime_rehash_policyENSG_17_Hashtable_traitsILb1ELb0ELb1EEEE5clearEv
FN:2024,_ZNSt10_HashtableINSt7__cxx1112basic_stringIcSt11char_traitsIcESaIcEEESt4pairIKS5_S5_ESaIS8_ENSt8__detail10_Select1stESt8equal_toIS5_ESt4hashIS5_ENSA_18_Mod_range_hashingENSA_20_Default_ranged_hashENSA_20_Prime_rehash_policyENSA_17_Hashtable_traitsILb1ELb0ELb1EEEE5clearEv
FNDA:0,_ZNSt10_HashtableINSt7__cxx1112basic_stringIcSt11char_traitsIcESaIcEEESt4pairIKS5_S5_ESaIS8_ENSt8__detail10_Select1stESt8equal_toIS5_ESt4hashIS5_ENSA_18_Mod_range_hashingENSA_20_Default_ranged_hashENSA_20_Prime_rehash_policyENSA_17_Hashtable_traitsILb1ELb0ELb1EEEE5clearEv
FNF:20
FNH:18
DA:343,15392
DA:367,15392
DA:375,15392
DA:1348,0
DA:1352,0
DA:1354,0
DA:1348,1330
DA:1352,1330
DA:1354,1330
DA:1348,2589
DA:1352,2589
DA:1354,2589
DA:1348,1259
DA:1352,1259
DA:1354,1259
DA:1348,1259
DA:1352,1259
DA:1354,1259
DA:1348,1259
DA:1352,1259
DA:1354,1259
DA:1348,1259
DA:1352,1259
DA:1354,1259
DA:1348,2589
DA:1352,2589
DA:1354,2589
DA:1348,1259
DA:1352,1259
DA:1354,1259
DA:1348,2589
DA:1352,2589
DA:1354,2589
DA:2024,0
DA:2028,0
DA:2029,0
DA:2030,0
DA:2031,0
DA:2032,0
DA:2024,1330
DA:2028,1330
DA:2029,1330
DA:2030,1330
DA:2031,1330
DA:2032,1330
DA:2024,2589
DA:2028,2589
DA:2029,2589
DA:2030,2589
DA:2031,2589
DA:2032,2589
DA:2024,1259
DA:2028,1259
DA:2029,1259
DA:2030,1259
DA:2031,1259
DA:2032,1259
DA:2024,1259
DA:2028,1259
DA:2029,1259
DA:2030,1259
DA:2031,1259
DA:2032,1259
DA:2024,1259
DA:2028,1259
DA:2029,1259
DA:2030,1259
DA:2031,1259
DA:2032,1259
DA:2024,1259
DA:2028,1259
DA:2029,1259
DA:2030,1259
DA:2031,1259
DA:2032,1259
DA:2024,2589
DA:2028,2589
DA:2029,2589
DA:2030,2589
DA:2031,2589
DA:2032,2589
DA:2024,1259
DA:2028,1259
DA:2029,1259
DA:2030,1259
DA:2031,1259
DA:2032,1259
DA:2024,2589
DA:2028,2589
DA:2029,2589
DA:2030,2589
DA:2031,2589
DA:2032,2589
LF:93
LH:84
end_of_record
SF:/home/runner/work/raccoon/raccoon/moose/framework/build/header_symlinks/MaterialPropertyInterface.h
LF:0
LH:0
end_of_record
SF:/usr/share/miniconda/envs/moose/libmesh/include/libmesh/parameters.h
FN:132,_ZN7libMesh10Parameters14set_attributesERKNSt7__cxx1112basic_stringIcSt11char_traitsIcESaIcEEEb
FNDA:0,_ZN7libMesh10Parameters14set_attributesERKNSt7__cxx1112basic_stringIcSt11char_traitsIcESaIcEEEb
FN:285,_ZNK7libMesh10Parameters9ParameterIP13FEProblemBaseE4typeB5cxx11Ev
FNDA:0,_ZNK7libMesh10Parameters9ParameterIP13FEProblemBaseE4typeB5cxx11Ev
FN:285,_ZNK7libMesh10Parameters9ParameterIdE4typeB5cxx11Ev
FNDA:4999,_ZNK7libMesh10Parameters9ParameterIdE4typeB5cxx11Ev
FN:285,_ZNK7libMesh10Parameters9ParameterI9MooseEnumE4typeB5cxx11Ev
FNDA:15775,_ZNK7libMesh10Parameters9ParameterI9MooseEnumE4typeB5cxx11Ev
FN:293,_ZNK7libMesh10Parameters9ParameterIP13FEProblemBaseE5printERSo
FNDA:0,_ZNK7libMesh10Parameters9ParameterIP13FEProblemBaseE5printERSo
FN:293,_ZNK7libMesh10Parameters9ParameterIdE5printERSo
FNDA:4046,_ZNK7libMesh10Parameters9ParameterIdE5printERSo
FN:293,_ZNK7libMesh10Parameters9ParameterI9MooseEnumE5printERSo
FNDA:2925,_ZNK7libMesh10Parameters9ParameterI9MooseEnumE5printERSo
FN:301,_ZNK7libMesh10Parameters9ParameterIdE5cloneEv
FNDA:27809,_ZNK7libMesh10Parameters9ParameterIdE5cloneEv
FN:301,_ZNK7libMesh10Parameters9ParameterI9MooseEnumE5cloneEv
FNDA:29287,_ZNK7libMesh10Parameters9ParameterI9MooseEnumE5cloneEv
FN:301,_ZNK7libMesh10Parameters9ParameterIP13FEProblemBaseE5cloneEv
FNDA:0,_ZNK7libMesh10Parameters9ParameterIP13FEProblemBaseE5cloneEv
FN:316,_ZN7libMesh10Parameters5clearEv
FNDA:3172,_ZN7libMesh10Parameters5clearEv
FN:332,_ZN7libMesh10ParametersaSERKS0_
FNDA:0,_ZN7libMesh10ParametersaSERKS0_
FN:341,_ZN7libMesh10ParameterspLERKS0_
FNDA:0,_ZN7libMesh10ParameterspLERKS0_
FN:362,_ZN7libMesh10ParametersD0Ev
FNDA:0,_ZN7libMesh10ParametersD0Ev
FN:362,_ZN7libMesh10ParametersD2Ev
FNDA:0,_ZN7libMesh10ParametersD2Ev
FN:370,_ZNK7libMesh10Parameters5printERSo
FNDA:0,_ZNK7libMesh10Parameters5printERSo
FN:405,_ZNK7libMesh10Parameters14have_parameterIdEEbRKNSt7__cxx1112basic_stringIcSt11char_traitsIcESaIcEEE
FNDA:39144,_ZNK7libMesh10Parameters14have_parameterIdEEbRKNSt7__cxx1112basic_stringIcSt11char_traitsIcESaIcEEE
FN:405,_ZNK7libMesh10Parameters14have_parameterI9MooseEnumEEbRKNSt7__cxx1112basic_stringIcSt11char_traitsIcESaIcEEE
FNDA:94318,_ZNK7libMesh10Parameters14have_parameterI9MooseEnumEEbRKNSt7__cxx1112basic_stringIcSt11char_traitsIcESaIcEEE
FN:424,_ZNK7libMesh10Parameters3getIdEERKT_RKNSt7__cxx1112basic_stringIcSt11char_traitsIcESaIcEEE
FNDA:164,_ZNK7libMesh10Parameters3getIdEERKT_RKNSt7__cxx1112basic_stringIcSt11char_traitsIcESaIcEEE
FN:452,_ZN7libMesh10Parameters6insertIdEEvRKNSt7__cxx1112basic_stringIcSt11char_traitsIcESaIcEEE
FNDA:38980,_ZN7libMesh10Parameters6insertIdEEvRKNSt7__cxx1112basic_stringIcSt11char_traitsIcESaIcEEE
FNF:20
FNH:11
DA:132,0
DA:200,66789
DA:207,164
DA:212,93826
DA:285,0
DA:287,0
DA:285,15775
DA:287,15775
DA:285,4999
DA:287,4999
DA:293,0
DA:296,0
DA:297,0
DA:293,2925
DA:297,2925
DA:293,4046
DA:296,4046
DA:297,4046
DA:301,0
DA:303,0
DA:307,0
DA:309,0
DA:301,29287
DA:303,29287
DA:307,29287
DA:309,29287
DA:301,27809
DA:303,27809
DA:307,27809
DA:309,27809
DA:316,3172
DA:318,7680
DA:322,4508
DA:323,4508
DA:327,3172
DA:332,0
DA:334,0
DA:335,0
DA:337,0
DA:341,0
DA:343,0
DA:345,0
DA:346,0
DA:347,0
DA:350,0
DA:362,0
DA:364,0
DA:365,0
DA:362,0
DA:364,0
DA:365,0
DA:362,3172
DA:364,3172
DA:370,0
DA:375,0
DA:376,0
DA:380,0
DA:382,0
DA:383,0
DA:387,0
DA:397,0
DA:405,39144
DA:409,39144
DA:411,164
DA:415,164
DA:405,94318
DA:409,94318
DA:411,4574
DA:415,4574
DA:424,164
DA:426,164
DA:428,0
DA:430,0
DA:432,0
DA:439,0
DA:447,164
DA:452,38980
DA:454,38980
DA:455,77960
DA:457,38980
DA:458,38980
LF:81
LH:43
end_of_record
SF:/usr/share/miniconda/envs/moose/x86_64-conda-linux-gnu/include/c++/9.3.0/bits/stl_tree.h
FN:480,_ZNSt8_Rb_treeI13MooseEnumItemSt4pairIKS0_S0_ESt10_Select1stIS3_ESt4lessIS0_ESaIS3_EE20_Reuse_or_alloc_nodeclIRKS3_EEPSt13_Rb_tree_nodeIS3_EOT_
FNDA:0,_ZNSt8_Rb_treeI13MooseEnumItemSt4pairIKS0_S0_ESt10_Select1stIS3_ESt4lessIS0_ESaIS3_EE20_Reuse_or_alloc_nodeclIRKS3_EEPSt13_Rb_tree_nodeIS3_EOT_
FN:480,_ZNSt8_Rb_treeI13MooseEnumItemS0_St9_IdentityIS0_ESt4lessIS0_ESaIS0_EE20_Reuse_or_alloc_nodeclIRKS0_EEPSt13_Rb_tree_nodeIS0_EOT_
FNDA:2306450,_ZNSt8_Rb_treeI13MooseEnumItemS0_St9_IdentityIS0_ESt4lessIS0_ESaIS0_EE20_Reuse_or_alloc_nodeclIRKS0_EEPSt13_Rb_tree_nodeIS0_EOT_
FN:496,_ZNSt8_Rb_treeI13MooseEnumItemS0_St9_IdentityIS0_ESt4lessIS0_ESaIS0_EE20_Reuse_or_alloc_node10_M_extractEv
FNDA:2306450,_ZNSt8_Rb_treeI13MooseEnumItemS0_St9_IdentityIS0_ESt4lessIS0_ESaIS0_EE20_Reuse_or_alloc_node10_M_extractEv
FN:496,_ZNSt8_Rb_treeI13MooseEnumItemSt4pairIKS0_S0_ESt10_Select1stIS3_ESt4lessIS0_ESaIS3_EE20_Reuse_or_alloc_node10_M_extractEv
FNDA:0,_ZNSt8_Rb_treeI13MooseEnumItemSt4pairIKS0_S0_ESt10_Select1stIS3_ESt4lessIS0_ESaIS3_EE20_Reuse_or_alloc_node10_M_extractEv
FN:609,_ZNSt8_Rb_treeINSt7__cxx1112basic_stringIcSt11char_traitsIcESaIcEEESt4pairIKS5_PN7libMesh10Parameters5ValueEESt10_Select1stISC_ESt4lessIS5_ESaISC_EE17_M_construct_nodeIJRKSt21piecewise_construct_tSt5tupleIJRS7_EESN_IJEEEEEvPSt13_Rb_tree_nodeISC_EDpOT_
FNDA:0,_ZNSt8_Rb_treeINSt7__cxx1112basic_stringIcSt11char_traitsIcESaIcEEESt4pairIKS5_PN7libMesh10Parameters5ValueEESt10_Select1stISC_ESt4lessIS5_ESaISC_EE17_M_construct_nodeIJRKSt21piecewise_construct_tSt5tupleIJRS7_EESN_IJEEEEEvPSt13_Rb_tree_nodeISC_EDpOT_
FN:609,_ZNSt8_Rb_treeINSt7__cxx1112basic_stringIcSt11char_traitsIcESaIcEEESt4pairIKS5_N15InputParameters8MetadataEESt10_Select1stISA_ESt4lessIS5_ESaISA_EE17_M_construct_nodeIJRKSt21piecewise_construct_tSt5tupleIJRS7_EESL_IJEEEEEvPSt13_Rb_tree_nodeISA_EDpOT_
FNDA:5615400,_ZNSt8_Rb_treeINSt7__cxx1112basic_stringIcSt11char_traitsIcESaIcEEESt4pairIKS5_N15InputParameters8MetadataEESt10_Select1stISA_ESt4lessIS5_ESaISA_EE17_M_construct_nodeIJRKSt21piecewise_construct_tSt5tupleIJRS7_EESL_IJEEEEEvPSt13_Rb_tree_nodeISA_EDpOT_
FN:899,_ZNSt8_Rb_treeI13MooseEnumItemSt4pairIKS0_S0_ESt10_Select1stIS3_ESt4lessIS0_ESaIS3_EE7_M_copyINS9_20_Reuse_or_alloc_nodeEEEPSt13_Rb_tree_nodeIS3_ERKS9_RT_
FNDA:0,_ZNSt8_Rb_treeI13MooseEnumItemSt4pairIKS0_S0_ESt10_Select1stIS3_ESt4lessIS0_ESaIS3_EE7_M_copyINS9_20_Reuse_or_alloc_nodeEEEPSt13_Rb_tree_nodeIS3_ERKS9_RT_
FN:899,_ZNSt8_Rb_treeI13MooseEnumItemS0_St9_IdentityIS0_ESt4lessIS0_ESaIS0_EE7_M_copyINS6_20_Reuse_or_alloc_nodeEEEPSt13_Rb_tree_nodeIS0_ERKS6_RT_
FNDA:420794,_ZNSt8_Rb_treeI13MooseEnumItemS0_St9_IdentityIS0_ESt4lessIS0_ESaIS0_EE7_M_copyINS6_20_Reuse_or_alloc_nodeEEEPSt13_Rb_tree_nodeIS0_ERKS6_RT_
FN:1281,_ZNSt8_Rb_treeINSt7__cxx1112basic_stringIcSt11char_traitsIcESaIcEEESt4pairIKS5_PN7libMesh10Parameters5ValueEESt10_Select1stISC_ESt4lessIS5_ESaISC_EE11lower_boundERS7_
FNDA:6903560,_ZNSt8_Rb_treeINSt7__cxx1112basic_stringIcSt11char_traitsIcESaIcEEESt4pairIKS5_PN7libMesh10Parameters5ValueEESt10_Select1stISC_ESt4lessIS5_ESaISC_EE11lower_boundERS7_
FN:1281,_ZNSt8_Rb_treeINSt7__cxx1112basic_stringIcSt11char_traitsIcESaIcEEESt4pairIKS5_N15InputParameters8MetadataEESt10_Select1stISA_ESt4lessIS5_ESaISA_EE11lower_boundERS7_
FNDA:13759800,_ZNSt8_Rb_treeINSt7__cxx1112basic_stringIcSt11char_traitsIcESaIcEEESt4pairIKS5_N15InputParameters8MetadataEESt10_Select1stISA_ESt4lessIS5_ESaISA_EE11lower_boundERS7_
FN:1757,_ZNSt8_Rb_treeI13MooseEnumItemS0_St9_IdentityIS0_ESt4lessIS0_ESaIS0_EEaSERKS6_
FNDA:1951030,_ZNSt8_Rb_treeI13MooseEnumItemS0_St9_IdentityIS0_ESt4lessIS0_ESaIS0_EEaSERKS6_
FN:1757,_ZNSt8_Rb_treeI13MooseEnumItemSt4pairIKS0_S0_ESt10_Select1stIS3_ESt4lessIS0_ESaIS3_EEaSERKS9_
FNDA:420466,_ZNSt8_Rb_treeI13MooseEnumItemSt4pairIKS0_S0_ESt10_Select1stIS3_ESt4lessIS0_ESaIS3_EEaSERKS9_
FN:1871,_ZNSt8_Rb_treeI13MooseEnumItemS0_St9_IdentityIS0_ESt4lessIS0_ESaIS0_EE7_M_copyINS6_20_Reuse_or_alloc_nodeEEEPSt13_Rb_tree_nodeIS0_EPKSA_PSt18_Rb_tree_node_baseRT_
FNDA:1524260,_ZNSt8_Rb_treeI13MooseEnumItemS0_St9_IdentityIS0_ESt4lessIS0_ESaIS0_EE7_M_copyINS6_20_Reuse_or_alloc_nodeEEEPSt13_Rb_tree_nodeIS0_EPKSA_PSt18_Rb_tree_node_baseRT_
FN:1871,_ZNSt8_Rb_treeI13MooseEnumItemSt4pairIKS0_S0_ESt10_Select1stIS3_ESt4lessIS0_ESaIS3_EE7_M_copyINS9_20_Reuse_or_alloc_nodeEEEPSt13_Rb_tree_nodeIS3_EPKSD_PSt18_Rb_tree_node_baseRT_
FNDA:0,_ZNSt8_Rb_treeI13MooseEnumItemSt4pairIKS0_S0_ESt10_Select1stIS3_ESt4lessIS0_ESaIS3_EE7_M_copyINS9_20_Reuse_or_alloc_nodeEEEPSt13_Rb_tree_nodeIS3_EPKSD_PSt18_Rb_tree_node_baseRT_
FN:1907,_ZNSt8_Rb_treeIttSt9_IdentityItESt4lessItESaItEE8_M_eraseEPSt13_Rb_tree_nodeItE
FNDA:0,_ZNSt8_Rb_treeIttSt9_IdentityItESt4lessItESaItEE8_M_eraseEPSt13_Rb_tree_nodeItE
FN:1907,_ZNSt8_Rb_treeIssSt9_IdentityIsESt4lessIsESaIsEE8_M_eraseEPSt13_Rb_tree_nodeIsE
FNDA:0,_ZNSt8_Rb_treeIssSt9_IdentityIsESt4lessIsESaIsEE8_M_eraseEPSt13_Rb_tree_nodeIsE
FN:1907,_ZNSt8_Rb_treeIP22MooseVariableFieldBaseS1_St9_IdentityIS1_ESt4lessIS1_ESaIS1_EE8_M_eraseEPSt13_Rb_tree_nodeIS1_E
FNDA:65638,_ZNSt8_Rb_treeIP22MooseVariableFieldBaseS1_St9_IdentityIS1_ESt4lessIS1_ESaIS1_EE8_M_eraseEPSt13_Rb_tree_nodeIS1_E
FN:1907,_ZNSt8_Rb_treeIjjSt9_IdentityIjESt4lessIjESaIjEE8_M_eraseEPSt13_Rb_tree_nodeIjE
FNDA:15343700,_ZNSt8_Rb_treeIjjSt9_IdentityIjESt4lessIjESaIjEE8_M_eraseEPSt13_Rb_tree_nodeIjE
FN:1907,_ZNSt8_Rb_treeI17PostprocessorNameSt4pairIKS0_St10unique_ptrIdSt14default_deleteIdEEESt10_Select1stIS7_ESt4lessIS0_ESaIS7_EE8_M_eraseEPSt13_Rb_tree_nodeIS7_E
FNDA:1534,_ZNSt8_Rb_treeI17PostprocessorNameSt4pairIKS0_St10unique_ptrIdSt14default_deleteIdEEESt10_Select1stIS7_ESt4lessIS0_ESaIS7_EE8_M_eraseEPSt13_Rb_tree_nodeIS7_E
FN:1907,_ZNSt8_Rb_treeINSt7__cxx1112basic_stringIcSt11char_traitsIcESaIcEEES5_St9_IdentityIS5_ESt4lessIS5_ESaIS5_EE8_M_eraseEPSt13_Rb_tree_nodeIS5_E
FNDA:0,_ZNSt8_Rb_treeINSt7__cxx1112basic_stringIcSt11char_traitsIcESaIcEEES5_St9_IdentityIS5_ESt4lessIS5_ESaIS5_EE8_M_eraseEPSt13_Rb_tree_nodeIS5_E
FN:1907,_ZNSt8_Rb_treeI14UserObjectNameS0_St9_IdentityIS0_ESt4lessIS0_ESaIS0_EE8_M_eraseEPSt13_Rb_tree_nodeIS0_E
FNDA:328,_ZNSt8_Rb_treeI14UserObjectNameS0_St9_IdentityIS0_ESt4lessIS0_ESaIS0_EE8_M_eraseEPSt13_Rb_tree_nodeIS0_E
FN:1907,_ZNSt8_Rb_treeINSt7__cxx1112basic_stringIcSt11char_traitsIcESaIcEEESt4pairIKS5_PN7libMesh10Parameters5ValueEESt10_Select1stISC_ESt4lessIS5_ESaISC_EE8_M_eraseEPSt13_Rb_tree_nodeISC_E
FNDA:0,_ZNSt8_Rb_treeINSt7__cxx1112basic_stringIcSt11char_traitsIcESaIcEEESt4pairIKS5_PN7libMesh10Parameters5ValueEESt10_Select1stISC_ESt4lessIS5_ESaISC_EE8_M_eraseEPSt13_Rb_tree_nodeISC_E
FN:1907,_ZNSt8_Rb_treeI13MooseEnumItemS0_St9_IdentityIS0_ESt4lessIS0_ESaIS0_EE8_M_eraseEPSt13_Rb_tree_nodeIS0_E
FNDA:0,_ZNSt8_Rb_treeI13MooseEnumItemS0_St9_IdentityIS0_ESt4lessIS0_ESaIS0_EE8_M_eraseEPSt13_Rb_tree_nodeIS0_E
FN:1907,_ZNSt8_Rb_treeI13MooseEnumItemSt4pairIKS0_S0_ESt10_Select1stIS3_ESt4lessIS0_ESaIS3_EE8_M_eraseEPSt13_Rb_tree_nodeIS3_E
FNDA:1071960,_ZNSt8_Rb_treeI13MooseEnumItemSt4pairIKS0_S0_ESt10_Select1stIS3_ESt4lessIS0_ESaIS3_EE8_M_eraseEPSt13_Rb_tree_nodeIS3_E
FN:1907,_ZNSt8_Rb_treeINSt7__cxx1112basic_stringIcSt11char_traitsIcESaIcEEESt4pairIKS5_N15InputParameters8MetadataEESt10_Select1stISA_ESt4lessIS5_ESaISA_EE8_M_eraseEPSt13_Rb_tree_nodeISA_E
FNDA:0,_ZNSt8_Rb_treeINSt7__cxx1112basic_stringIcSt11char_traitsIcESaIcEEESt4pairIKS5_N15InputParameters8MetadataEESt10_Select1stISA_ESt4lessIS5_ESaISA_EE8_M_eraseEPSt13_Rb_tree_nodeISA_E
FN:2085,_ZNSt8_Rb_treeINSt7__cxx1112basic_stringIcSt11char_traitsIcESaIcEEESt4pairIKS5_PN7libMesh10Parameters5ValueEESt10_Select1stISC_ESt4lessIS5_ESaISC_EE24_M_get_insert_unique_posERS7_
FNDA:0,_ZNSt8_Rb_treeINSt7__cxx1112basic_stringIcSt11char_traitsIcESaIcEEESt4pairIKS5_PN7libMesh10Parameters5ValueEESt10_Select1stISC_ESt4lessIS5_ESaISC_EE24_M_get_insert_unique_posERS7_
FN:2085,_ZNSt8_Rb_treeINSt7__cxx1112basic_stringIcSt11char_traitsIcESaIcEEESt4pairIKS5_N15InputParameters8MetadataEESt10_Select1stISA_ESt4lessIS5_ESaISA_EE24_M_get_insert_unique_posERS7_
FNDA:696767,_ZNSt8_Rb_treeINSt7__cxx1112basic_stringIcSt11char_traitsIcESaIcEEESt4pairIKS5_N15InputParameters8MetadataEESt10_Select1stISA_ESt4lessIS5_ESaISA_EE24_M_get_insert_unique_posERS7_
FN:2187,_ZNSt8_Rb_treeINSt7__cxx1112basic_stringIcSt11char_traitsIcESaIcEEESt4pairIKS5_PN7libMesh10Parameters5ValueEESt10_Select1stISC_ESt4lessIS5_ESaISC_EE29_M_get_insert_hint_unique_posESt23_Rb_tree_const_iteratorISC_ERS7_
FNDA:0,_ZNSt8_Rb_treeINSt7__cxx1112basic_stringIcSt11char_traitsIcESaIcEEESt4pairIKS5_PN7libMesh10Parameters5ValueEESt10_Select1stISC_ESt4lessIS5_ESaISC_EE29_M_get_insert_hint_unique_posESt23_Rb_tree_const_iteratorISC_ERS7_
FN:2187,_ZNSt8_Rb_treeINSt7__cxx1112basic_stringIcSt11char_traitsIcESaIcEEESt4pairIKS5_N15InputParameters8MetadataEESt10_Select1stISA_ESt4lessIS5_ESaISA_EE29_M_get_insert_hint_unique_posESt23_Rb_tree_const_iteratorISA_ERS7_
FNDA:5615400,_ZNSt8_Rb_treeINSt7__cxx1112basic_stringIcSt11char_traitsIcESaIcEEESt4pairIKS5_N15InputParameters8MetadataEESt10_Select1stISA_ESt4lessIS5_ESaISA_EE29_M_get_insert_hint_unique_posESt23_Rb_tree_const_iteratorISA_ERS7_
FN:2354,_ZNSt8_Rb_treeINSt7__cxx1112basic_stringIcSt11char_traitsIcESaIcEEESt4pairIKS5_PN7libMesh10Parameters5ValueEESt10_Select1stISC_ESt4lessIS5_ESaISC_EE14_M_insert_nodeEPSt18_Rb_tree_node_baseSK_PSt13_Rb_tree_nodeISC_E
FNDA:0,_ZNSt8_Rb_treeINSt7__cxx1112basic_stringIcSt11char_traitsIcESaIcEEESt4pairIKS5_PN7libMesh10Parameters5ValueEESt10_Select1stISC_ESt4lessIS5_ESaISC_EE14_M_insert_nodeEPSt18_Rb_tree_node_baseSK_PSt13_Rb_tree_nodeISC_E
FN:2354,_ZNSt8_Rb_treeINSt7__cxx1112basic_stringIcSt11char_traitsIcESaIcEEESt4pairIKS5_N15InputParameters8MetadataEESt10_Select1stISA_ESt4lessIS5_ESaISA_EE14_M_insert_nodeEPSt18_Rb_tree_node_baseSI_PSt13_Rb_tree_nodeISA_E
FNDA:5615400,_ZNSt8_Rb_treeINSt7__cxx1112basic_stringIcSt11char_traitsIcESaIcEEESt4pairIKS5_N15InputParameters8MetadataEESt10_Select1stISA_ESt4lessIS5_ESaISA_EE14_M_insert_nodeEPSt18_Rb_tree_node_baseSI_PSt13_Rb_tree_nodeISA_E
FN:2452,_ZNSt8_Rb_treeINSt7__cxx1112basic_stringIcSt11char_traitsIcESaIcEEESt4pairIKS5_N15InputParameters8MetadataEESt10_Select1stISA_ESt4lessIS5_ESaISA_EE22_M_emplace_hint_uniqueIJRKSt21piecewise_construct_tSt5tupleIJRS7_EESL_IJEEEEESt17_Rb_tree_iteratorISA_ESt23_Rb_tree_const_iteratorISA_EDpOT_
FNDA:5615400,_ZNSt8_Rb_treeINSt7__cxx1112basic_stringIcSt11char_traitsIcESaIcEEESt4pairIKS5_N15InputParameters8MetadataEESt10_Select1stISA_ESt4lessIS5_ESaISA_EE22_M_emplace_hint_uniqueIJRKSt21piecewise_construct_tSt5tupleIJRS7_EESL_IJEEEEESt17_Rb_tree_iteratorISA_ESt23_Rb_tree_const_iteratorISA_EDpOT_
FN:2452,_ZNSt8_Rb_treeINSt7__cxx1112basic_stringIcSt11char_traitsIcESaIcEEESt4pairIKS5_PN7libMesh10Parameters5ValueEESt10_Select1stISC_ESt4lessIS5_ESaISC_EE22_M_emplace_hint_uniqueIJRKSt21piecewise_construct_tSt5tupleIJRS7_EESN_IJEEEEESt17_Rb_tree_iteratorISC_ESt23_Rb_tree_const_iteratorISC_EDpOT_
FNDA:0,_ZNSt8_Rb_treeINSt7__cxx1112basic_stringIcSt11char_traitsIcESaIcEEESt4pairIKS5_PN7libMesh10Parameters5ValueEESt10_Select1stISC_ESt4lessIS5_ESaISC_EE22_M_emplace_hint_uniqueIJRKSt21piecewise_construct_tSt5tupleIJRS7_EESN_IJEEEEESt17_Rb_tree_iteratorISC_ESt23_Rb_tree_const_iteratorISC_EDpOT_
FN:2504,_ZNSt8_Rb_treeINSt7__cxx1112basic_stringIcSt11char_traitsIcESaIcEEESt4pairIKS5_PN7libMesh10Parameters5ValueEESt10_Select1stISC_ESt4lessIS5_ESaISC_EE12_M_erase_auxESt23_Rb_tree_const_iteratorISC_E
FNDA:4508,_ZNSt8_Rb_treeINSt7__cxx1112basic_stringIcSt11char_traitsIcESaIcEEESt4pairIKS5_PN7libMesh10Parameters5ValueEESt10_Select1stISC_ESt4lessIS5_ESaISC_EE12_M_erase_auxESt23_Rb_tree_const_iteratorISC_E
FN:2554,_ZNSt8_Rb_treeINSt7__cxx1112basic_stringIcSt11char_traitsIcESaIcEEESt4pairIKS5_PN7libMesh10Parameters5ValueEESt10_Select1stISC_ESt4lessIS5_ESaISC_EE4findERS7_
FNDA:0,_ZNSt8_Rb_treeINSt7__cxx1112basic_stringIcSt11char_traitsIcESaIcEEESt4pairIKS5_PN7libMesh10Parameters5ValueEESt10_Select1stISC_ESt4lessIS5_ESaISC_EE4findERS7_
FN:2567,_ZNKSt8_Rb_treeINSt7__cxx1112basic_stringIcSt11char_traitsIcESaIcEEESt4pairIKS5_PN7libMesh10Parameters5ValueEESt10_Select1stISC_ESt4lessIS5_ESaISC_EE4findERS7_
FNDA:0,_ZNKSt8_Rb_treeINSt7__cxx1112basic_stringIcSt11char_traitsIcESaIcEEESt4pairIKS5_PN7libMesh10Parameters5ValueEESt10_Select1stISC_ESt4lessIS5_ESaISC_EE4findERS7_
FNF:36
FNH:19
DA:114,874034
DA:128,1274300
DA:208,2371500
DA:209,2371500
DA:210,2371500
DA:211,2371500
DA:287,0
DA:302,3215080
DA:303,0
DA:348,8165000
DA:349,8160490
DA:366,0
DA:367,0
DA:454,2371500
DA:455,2371500
DA:457,2371500
DA:459,4456
DA:461,4456
DA:462,0
DA:465,2367040
DA:473,2371500
DA:480,0
DA:483,0
DA:484,0
DA:487,0
DA:488,0
DA:491,0
DA:480,2306450
DA:483,2306450
DA:484,2306450
DA:487,31015
DA:488,31015
DA:491,2275440
DA:496,0
DA:498,0
DA:502,0
DA:503,0
DA:505,0
DA:507,0
DA:509,0
DA:511,0
DA:513,0
DA:514,0
DA:516,0
DA:517,0
DA:521,0
DA:524,0
DA:496,2306450
DA:498,2306450
DA:502,31015
DA:503,31015
DA:505,27087
DA:507,14946
DA:509,14946
DA:511,12141
DA:513,15605
DA:514,3464
DA:516,12141
DA:517,0
DA:521,12141
DA:524,3928
DA:609,5615400
DA:618,0
DA:620,0
DA:622,0
DA:624,5615400
DA:609,0
DA:618,0
DA:620,0
DA:622,0
DA:624,0
DA:631,7890840
DA:643,31015
DA:658,2306450
DA:659,2306450
DA:660,2306450
DA:661,2306450
DA:756,30567900
DA:760,0
DA:899,0
DA:901,0
DA:902,0
DA:903,0
DA:904,0
DA:905,0
DA:899,420794
DA:901,420794
DA:902,420794
DA:903,420794
DA:904,420794
DA:905,420794
DA:995,125377
DA:1015,20663400
DA:1019,590537
DA:1220,4508
DA:1281,13759800
DA:1282,13759800
DA:1281,6903560
DA:1282,6903560
DA:1757,420466
DA:1760,420466
DA:1782,420466
DA:1783,0
DA:1786,420466
DA:1757,1951030
DA:1760,1951030
DA:1782,1951030
DA:1783,420794
DA:1786,1951030
DA:1871,0
DA:1876,0
DA:1880,0
DA:1881,0
DA:1883,0
DA:1885,0
DA:1888,0
DA:1889,0
DA:1890,0
DA:1891,0
DA:1893,0
DA:1896,0
DA:1898,0
DA:1899,0
DA:1901,0
DA:1871,1524260
DA:1876,1524260
DA:1880,1524260
DA:1881,873149
DA:1883,1524260
DA:1885,2306450
DA:1888,782190
DA:1889,782190
DA:1890,782190
DA:1891,230321
DA:1893,782190
DA:1896,0
DA:1898,0
DA:1899,0
DA:1901,1524260
DA:1907,0
DA:1911,0
DA:1913,0
DA:1914,0
DA:1918,0
DA:1907,1071960
DA:1911,1071960
DA:1913,0
DA:1914,0
DA:1915,0
DA:1918,1071960
DA:1907,0
DA:1911,0
DA:1913,0
DA:1914,0
DA:1918,0
DA:1907,328
DA:1911,328
DA:1913,0
DA:1914,0
DA:1915,0
DA:1918,328
DA:1907,0
DA:1911,0
DA:1913,0
DA:1914,0
DA:1915,0
DA:1918,0
DA:1907,1534
DA:1911,1534
DA:1913,0
DA:1914,0
DA:1918,1534
DA:1907,15343700
DA:1911,19814200
DA:1913,4470520
DA:1914,4470520
DA:1918,15343700
DA:1907,65638
DA:1911,111428
DA:1913,45790
DA:1914,45790
DA:1918,65638
DA:1907,0
DA:1911,0
DA:1913,0
DA:1914,0
DA:1918,0
DA:1907,0
DA:1911,0
DA:1913,0
DA:1914,0
DA:1918,0
DA:1907,0
DA:1911,0
DA:1913,0
DA:1914,0
DA:1915,0
DA:1918,0
DA:1928,97104600
DA:1929,76441200
DA:1930,44480800
DA:1932,31960500
DA:1944,0
DA:1945,0
DA:1946,0
DA:1948,0
DA:2085,696767
DA:2089,696767
DA:2092,696767
DA:2096,0
DA:2099,696767
DA:2101,696767
DA:2102,696767
DA:2106,0
DA:2107,0
DA:2108,0
DA:2085,0
DA:2089,0
DA:2092,0
DA:2096,0
DA:2099,0
DA:2101,0
DA:2102,0
DA:2106,0
DA:2107,0
DA:2108,0
DA:2187,5615400
DA:2191,5615400
DA:2195,5615400
DA:2197,1241510
DA:2198,1241510
DA:2199,544744
DA:2201,696767
DA:2203,4373890
DA:2207,4373890
DA:2208,1158810
DA:2209,3215080
DA:2211,3215080
DA:2212,1930000
DA:2214,1285080
DA:2217,0
DA:2219,0
DA:2223,0
DA:2224,0
DA:2225,0
DA:2227,0
DA:2228,0
DA:2230,0
DA:2233,0
DA:2237,0
DA:2187,0
DA:2191,0
DA:2195,0
DA:2197,0
DA:2198,0
DA:2199,0
DA:2201,0
DA:2203,0
DA:2207,0
DA:2208,0
DA:2209,0
DA:2211,0
DA:2212,0
DA:2214,0
DA:2217,0
DA:2219,0
DA:2223,0
DA:2224,0
DA:2225,0
DA:2227,0
DA:2228,0
DA:2230,0
DA:2233,0
DA:2237,0
DA:2354,5615400
DA:2357,3171520
DA:2358,8090150
DA:2361,5615400
DA:2362,5615400
DA:2363,5615400
DA:2364,5615400
DA:2354,0
DA:2357,0
DA:2358,0
DA:2361,0
DA:2362,0
DA:2363,0
DA:2364,0
DA:2452,5615400
DA:2459,5615400
DA:2461,5615400
DA:2462,5615400
DA:2465,0
DA:2452,0
DA:2459,0
DA:2461,0
DA:2462,0
DA:2464,0
DA:2465,0
DA:2504,4508
DA:2509,4508
DA:2510,4508
DA:2511,4508
DA:2512,4508
DA:2513,4508
DA:2554,0
DA:2557,0
DA:2559,0
DA:2560,0
DA:2567,0
DA:2570,0
DA:2572,0
DA:2573,0
LF:313
LH:139
end_of_record
SF:/usr/share/miniconda/envs/moose/x86_64-conda-linux-gnu/include/c++/9.3.0/bits/stl_pair.h
FN:303,_ZNSt4pairIK13MooseEnumItemS0_EC2ERKS2_
FNDA:0,_ZNSt4pairIK13MooseEnumItemS0_EC2ERKS2_
FNF:1
FNH:0
DA:208,0
DA:303,0
LF:2
LH:0
end_of_record
SF:/home/runner/work/raccoon/raccoon/moose/framework/build/header_symlinks/MooseEnumBase.h
FN:51,_ZN13MooseEnumBaseD0Ev
FNDA:0,_ZN13MooseEnumBaseD0Ev
FN:51,_ZN13MooseEnumBaseD2Ev
FNDA:119031,_ZN13MooseEnumBaseD2Ev
FNF:2
FNH:1
DA:24,29287
DA:51,0
DA:51,119031
LF:3
LH:2
end_of_record
SF:/usr/share/miniconda/envs/moose/libmesh/include/libmesh/elem.h
FN:564,_ZNK7libMesh4Elem9is_remoteEv
FNDA:0,_ZNK7libMesh4Elem9is_remoteEv
FN:622,_ZNK7libMesh4Elem16n_nodes_in_childEj
FNDA:0,_ZNK7libMesh4Elem16n_nodes_in_childEj
FN:703,_ZNK7libMesh4Elem18is_vertex_on_childEjj
FNDA:0,_ZNK7libMesh4Elem18is_vertex_on_childEjj
FN:972,_ZNK7libMesh4Elem11qual_boundsENS_11ElemQualityE
FNDA:0,_ZNK7libMesh4Elem11qual_boundsENS_11ElemQualityE
FN:1012,_ZNK7libMesh4Elem14has_affine_mapEv
FNDA:0,_ZNK7libMesh4Elem14has_affine_mapEv
FN:1028,_ZNK7libMesh4Elem9is_linearEv
FNDA:0,_ZNK7libMesh4Elem9is_linearEv
FN:1632,_ZNK7libMesh4Elem19local_singular_nodeERKNS_5PointEd
FNDA:0,_ZNK7libMesh4Elem19local_singular_nodeERKNS_5PointEd
FN:1639,_ZNK7libMesh4Elem16is_singular_nodeEj
FNDA:0,_ZNK7libMesh4Elem16is_singular_nodeEj
FN:1799,_ZNK7libMesh4Elem24embedding_matrix_versionEv
FNDA:0,_ZNK7libMesh4Elem24embedding_matrix_versionEv
FN:1915,_ZNK7libMesh4Elem26_get_bracketing_node_cacheEv
FNDA:0,_ZNK7libMesh4Elem26_get_bracketing_node_cacheEv
FN:1929,_ZNK7libMesh4Elem25_get_parent_indices_cacheEv
FNDA:0,_ZNK7libMesh4Elem25_get_parent_indices_cacheEv
FN:2267,_ZN7libMesh4Elem8set_nodeEj
FNDA:0,_ZN7libMesh4Elem8set_nodeEj
FNF:12
FNH:0
DA:564,0
DA:565,0
DA:622,0
DA:623,0
DA:703,0
DA:705,0
DA:972,0
DA:973,0
DA:1012,0
DA:1028,0
DA:1632,0
DA:1633,0
DA:1639,0
DA:1799,0
DA:1915,0
DA:1917,0
DA:1918,0
DA:1929,0
DA:1931,0
DA:1932,0
DA:2267,0
DA:2271,0
LF:22
LH:0
end_of_record
SF:/home/runner/work/raccoon/raccoon/moose/framework/build/header_symlinks/CoupleableMooseVariableDependencyIntermediateInterface.h
LF:0
LH:0
end_of_record
SF:/home/runner/work/raccoon/raccoon/moose/framework/build/header_symlinks/ScalarCoupleable.h
LF:0
LH:0
end_of_record
SF:/home/runner/work/raccoon/raccoon/build/header_symlinks/ConditionalBoundsAux.h
LF:0
LH:0
end_of_record
SF:/usr/share/miniconda/envs/moose/libmesh/include/Eigen/src/Core/PlainObjectBase.h
LF:0
LH:0
end_of_record
SF:/usr/share/miniconda/envs/moose/x86_64-conda-linux-gnu/include/c++/9.3.0/bits/locale_facets.h
FN:886,_ZNKSt5ctypeIcE5widenEc
FNDA:0,_ZNKSt5ctypeIcE5widenEc
FN:1098,_ZNKSt5ctypeIcE8do_widenEc
FNDA:0,_ZNKSt5ctypeIcE8do_widenEc
FNF:2
FNH:0
DA:886,0
DA:888,0
DA:889,0
DA:890,0
DA:891,0
DA:1098,0
DA:1099,0
LF:7
LH:0
end_of_record
SF:/usr/share/miniconda/envs/moose/x86_64-conda-linux-gnu/include/c++/9.3.0/bits/shared_ptr.h
DA:359,1
DA:718,1
LF:2
LH:2
end_of_record
SF:/usr/share/miniconda/envs/moose/libmesh/include/metaphysicl/dynamicsparsenumberbase.h
DA:53,0
LF:1
LH:0
end_of_record
SF:/usr/share/miniconda/envs/moose/libmesh/include/Eigen/src/Core/util/Memory.h
LF:0
LH:0
end_of_record
SF:/usr/share/miniconda/envs/moose/x86_64-conda-linux-gnu/include/c++/9.3.0/bits/char_traits.h
DA:300,0
DA:335,1
DA:363,0
DA:365,0
LF:4
LH:1
end_of_record
SF:/home/runner/work/raccoon/raccoon/moose/framework/build/header_symlinks/VectorPostprocessorInterface.h
LF:0
LH:0
end_of_record
SF:/usr/share/miniconda/envs/moose/libmesh/include/metaphysicl/dualnumber_decl.h
DA:327,0
LF:1
LH:0
end_of_record
SF:/home/runner/work/raccoon/raccoon/moose/framework/build/header_symlinks/DataIO.h
DA:727,0
DA:791,0
LF:2
LH:0
end_of_record
SF:/usr/share/miniconda/envs/moose/x86_64-conda-linux-gnu/include/c++/9.3.0/ext/atomicity.h
DA:49,0
DA:67,0
DA:68,0
DA:81,0
DA:82,0
DA:84,0
LF:6
LH:0
end_of_record
SF:/usr/share/miniconda/envs/moose/libmesh/include/libmesh/reference_counter.h
FN:150,_ZN7libMesh16ReferenceCounterC2Ev
FNDA:185820,_ZN7libMesh16ReferenceCounterC2Ev
FN:171,_ZN7libMesh16ReferenceCounterD2Ev
FNDA:316795,_ZN7libMesh16ReferenceCounterD2Ev
FNF:2
FNH:2
DA:150,185820
DA:153,185820
DA:171,316795
DA:174,316795
LF:4
LH:4
end_of_record
SF:/usr/share/miniconda/envs/moose/libmesh/include/metaphysicl/dynamicsparsenumberbase_decl.h
FN:47,_ZN11MetaPhysicL23DynamicSparseNumberBaseINS_22DynamicStdArrayWrapperIdNS_8NWrapperILm50EEEEENS1_ImS3_EENS_28SemiDynamicSparseNumberArrayEJdmS3_EEaSEOS7_
FNDA:0,_ZN11MetaPhysicL23DynamicSparseNumberBaseINS_22DynamicStdArrayWrapperIdNS_8NWrapperILm50EEEEENS1_ImS3_EENS_28SemiDynamicSparseNumberArrayEJdmS3_EEaSEOS7_
FNF:1
FNH:0
DA:47,0
LF:1
LH:0
end_of_record
SF:/home/runner/work/raccoon/raccoon/moose/framework/build/header_symlinks/MooseObject.h
FN:68,_ZNK11MooseObject4nameB5cxx11Ev
FNDA:14839,_ZNK11MooseObject4nameB5cxx11Ev
FN:121,_ZNK11MooseObject7enabledEv
FNDA:21194,_ZNK11MooseObject7enabledEv
FNF:2
FNH:2
DA:68,14839
DA:121,21194
DA:262,2
LF:3
LH:3
end_of_record
SF:/home/runner/work/raccoon/raccoon/moose/framework/build/header_symlinks/MooseEnumItem.h
FN:23,_ZN13MooseEnumItemD2Ev
FNDA:150432,_ZN13MooseEnumItemD2Ev
FNF:1
FNH:1
DA:23,150432
LF:1
LH:1
end_of_record
SF:/usr/share/miniconda/envs/moose/x86_64-conda-linux-gnu/include/c++/9.3.0/bits/stl_function.h
DA:1156,92665100
LF:1
LH:1
end_of_record
SF:/usr/share/miniconda/envs/moose/x86_64-conda-linux-gnu/include/c++/9.3.0/bits/std_function.h
LF:0
LH:0
end_of_record
SF:/home/runner/work/raccoon/raccoon/moose/framework/build/header_symlinks/Coupleable.h
FN:114,_ZNK10Coupleable15coupledCallbackERKNSt7__cxx1112basic_stringIcSt11char_traitsIcESaIcEEEb
FNDA:1252,_ZNK10Coupleable15coupledCallbackERKNSt7__cxx1112basic_stringIcSt11char_traitsIcESaIcEEEb
FNF:1
FNH:1
DA:114,1252
LF:1
LH:1
end_of_record
SF:/usr/share/miniconda/envs/moose/libmesh/include/Eigen/src/Core/DenseStorage.h
LF:0
LH:0
end_of_record
SF:/usr/share/miniconda/envs/moose/x86_64-conda-linux-gnu/include/c++/9.3.0/initializer_list
DA:79,5615400
LF:1
LH:1
end_of_record
SF:/home/runner/work/raccoon/raccoon/moose/framework/build/header_symlinks/MaterialProperty.h
FN:111,_ZN20MaterialPropertyBaseIdLb0EED2Ev
FNDA:0,_ZN20MaterialPropertyBaseIdLb0EED2Ev
FN:111,_ZN20MaterialPropertyBaseIdLb0EED0Ev
FNDA:0,_ZN20MaterialPropertyBaseIdLb0EED0Ev
FN:111,_ZN20MaterialPropertyBaseIdLb1EED2Ev
FNDA:0,_ZN20MaterialPropertyBaseIdLb1EED2Ev
FN:111,_ZN20MaterialPropertyBaseIdLb1EED0Ev
FNDA:0,_ZN20MaterialPropertyBaseIdLb1EED0Ev
FN:111,_ZN20MaterialPropertyBaseIN7libMesh11VectorValueIdEELb0EED2Ev
FNDA:0,_ZN20MaterialPropertyBaseIN7libMesh11VectorValueIdEELb0EED2Ev
FN:111,_ZN20MaterialPropertyBaseIN7libMesh11VectorValueIdEELb0EED0Ev
FNDA:0,_ZN20MaterialPropertyBaseIN7libMesh11VectorValueIdEELb0EED0Ev
FN:111,_ZN20MaterialPropertyBaseIN7libMesh11VectorValueIdEELb1EED2Ev
FNDA:0,_ZN20MaterialPropertyBaseIN7libMesh11VectorValueIdEELb1EED2Ev
FN:111,_ZN20MaterialPropertyBaseIN7libMesh11VectorValueIdEELb1EED0Ev
FNDA:0,_ZN20MaterialPropertyBaseIN7libMesh11VectorValueIdEELb1EED0Ev
FN:113,_ZN20MaterialPropertyBaseIN7libMesh11VectorValueIdEELb0EE4isADEv
FNDA:0,_ZN20MaterialPropertyBaseIN7libMesh11VectorValueIdEELb0EE4isADEv
FN:113,_ZN20MaterialPropertyBaseIN7libMesh11VectorValueIdEELb1EE4isADEv
FNDA:0,_ZN20MaterialPropertyBaseIN7libMesh11VectorValueIdEELb1EE4isADEv
FN:113,_ZN20MaterialPropertyBaseIdLb1EE4isADEv
FNDA:0,_ZN20MaterialPropertyBaseIdLb1EE4isADEv
FN:113,_ZN20MaterialPropertyBaseIdLb0EE4isADEv
FNDA:0,_ZN20MaterialPropertyBaseIdLb0EE4isADEv
FN:135,_ZNK20MaterialPropertyBaseIN7libMesh11VectorValueIdEELb1EE4sizeEv
FNDA:0,_ZNK20MaterialPropertyBaseIN7libMesh11VectorValueIdEELb1EE4sizeEv
FN:135,_ZNK20MaterialPropertyBaseIdLb1EE4sizeEv
FNDA:0,_ZNK20MaterialPropertyBaseIdLb1EE4sizeEv
FN:135,_ZNK20MaterialPropertyBaseIdLb0EE4sizeEv
FNDA:0,_ZNK20MaterialPropertyBaseIdLb0EE4sizeEv
FN:135,_ZNK20MaterialPropertyBaseIN7libMesh11VectorValueIdEELb0EE4sizeEv
FNDA:0,_ZNK20MaterialPropertyBaseIN7libMesh11VectorValueIdEELb0EE4sizeEv
FN:219,_ZN5moose8internal22rawValueEqualityHelperIN7libMesh11VectorValueIN11MetaPhysicL10DualNumberIdNS4_28SemiDynamicSparseNumberArrayIdmNS4_8NWrapperILm50EEEEELb1EEEEENS3_IdEEEEvRT_RKT0_
FNDA:0,_ZN5moose8internal22rawValueEqualityHelperIN7libMesh11VectorValueIN11MetaPhysicL10DualNumberIdNS4_28SemiDynamicSparseNumberArrayIdmNS4_8NWrapperILm50EEEEELb1EEEEENS3_IdEEEEvRT_RKT0_
FN:237,_ZN20MaterialPropertyBaseIdLb0EE4typeB5cxx11Ev
FNDA:0,_ZN20MaterialPropertyBaseIdLb0EE4typeB5cxx11Ev
FN:237,_ZN20MaterialPropertyBaseIN7libMesh11VectorValueIdEELb1EE4typeB5cxx11Ev
FNDA:0,_ZN20MaterialPropertyBaseIN7libMesh11VectorValueIdEELb1EE4typeB5cxx11Ev
FN:237,_ZN20MaterialPropertyBaseIN7libMesh11VectorValueIdEELb0EE4typeB5cxx11Ev
FNDA:0,_ZN20MaterialPropertyBaseIN7libMesh11VectorValueIdEELb0EE4typeB5cxx11Ev
FN:237,_ZN20MaterialPropertyBaseIdLb1EE4typeB5cxx11Ev
FNDA:0,_ZN20MaterialPropertyBaseIdLb1EE4typeB5cxx11Ev
FN:244,_ZN20MaterialPropertyBaseIN7libMesh11VectorValueIdEELb1EE6resizeEi
FNDA:0,_ZN20MaterialPropertyBaseIN7libMesh11VectorValueIdEELb1EE6resizeEi
FN:244,_ZN20MaterialPropertyBaseIN7libMesh11VectorValueIdEELb0EE6resizeEi
FNDA:0,_ZN20MaterialPropertyBaseIN7libMesh11VectorValueIdEELb0EE6resizeEi
FN:244,_ZN20MaterialPropertyBaseIdLb0EE6resizeEi
FNDA:0,_ZN20MaterialPropertyBaseIdLb0EE6resizeEi
FN:244,_ZN20MaterialPropertyBaseIdLb1EE6resizeEi
FNDA:0,_ZN20MaterialPropertyBaseIdLb1EE6resizeEi
FN:251,_ZN20MaterialPropertyBaseIN7libMesh11VectorValueIdEELb0EE6qpCopyEjP13PropertyValuej
FNDA:0,_ZN20MaterialPropertyBaseIN7libMesh11VectorValueIdEELb0EE6qpCopyEjP13PropertyValuej
FN:251,_ZN20MaterialPropertyBaseIdLb0EE6qpCopyEjP13PropertyValuej
FNDA:0,_ZN20MaterialPropertyBaseIdLb0EE6qpCopyEjP13PropertyValuej
FN:251,_ZN20MaterialPropertyBaseIN7libMesh11VectorValueIdEELb1EE6qpCopyEjP13PropertyValuej
FNDA:0,_ZN20MaterialPropertyBaseIN7libMesh11VectorValueIdEELb1EE6qpCopyEjP13PropertyValuej
FN:251,_ZN20MaterialPropertyBaseIdLb1EE6qpCopyEjP13PropertyValuej
FNDA:0,_ZN20MaterialPropertyBaseIdLb1EE6qpCopyEjP13PropertyValuej
FN:268,_ZN20MaterialPropertyBaseIN7libMesh11VectorValueIdEELb0EE5storeERSo
FNDA:0,_ZN20MaterialPropertyBaseIN7libMesh11VectorValueIdEELb0EE5storeERSo
FN:268,_ZN20MaterialPropertyBaseIdLb0EE5storeERSo
FNDA:0,_ZN20MaterialPropertyBaseIdLb0EE5storeERSo
FN:268,_ZN20MaterialPropertyBaseIN7libMesh11VectorValueIdEELb1EE5storeERSo
FNDA:0,_ZN20MaterialPropertyBaseIN7libMesh11VectorValueIdEELb1EE5storeERSo
FN:268,_ZN20MaterialPropertyBaseIdLb1EE5storeERSo
FNDA:0,_ZN20MaterialPropertyBaseIdLb1EE5storeERSo
FN:276,_ZN20MaterialPropertyBaseIdLb0EE4loadERSi
FNDA:0,_ZN20MaterialPropertyBaseIdLb0EE4loadERSi
FN:276,_ZN20MaterialPropertyBaseIN7libMesh11VectorValueIdEELb1EE4loadERSi
FNDA:0,_ZN20MaterialPropertyBaseIN7libMesh11VectorValueIdEELb1EE4loadERSi
FN:276,_ZN20MaterialPropertyBaseIN7libMesh11VectorValueIdEELb0EE4loadERSi
FNDA:0,_ZN20MaterialPropertyBaseIN7libMesh11VectorValueIdEELb0EE4loadERSi
FN:276,_ZN20MaterialPropertyBaseIdLb1EE4loadERSi
FNDA:0,_ZN20MaterialPropertyBaseIdLb1EE4loadERSi
FN:284,_ZN20MaterialPropertyBaseIN7libMesh11VectorValueIdEELb1EE4swapEP13PropertyValue
FNDA:0,_ZN20MaterialPropertyBaseIN7libMesh11VectorValueIdEELb1EE4swapEP13PropertyValue
FN:284,_ZN20MaterialPropertyBaseIN7libMesh11VectorValueIdEELb0EE4swapEP13PropertyValue
FNDA:0,_ZN20MaterialPropertyBaseIN7libMesh11VectorValueIdEELb0EE4swapEP13PropertyValue
FN:284,_ZN20MaterialPropertyBaseIdLb0EE4swapEP13PropertyValue
FNDA:0,_ZN20MaterialPropertyBaseIdLb0EE4swapEP13PropertyValue
FN:284,_ZN20MaterialPropertyBaseIdLb1EE4swapEP13PropertyValue
FNDA:0,_ZN20MaterialPropertyBaseIdLb1EE4swapEP13PropertyValue
FN:322,_ZN16MaterialPropertyIdE4initEi
FNDA:0,_ZN16MaterialPropertyIdE4initEi
FN:322,_ZN16MaterialPropertyIN7libMesh11VectorValueIdEEE4initEi
FNDA:0,_ZN16MaterialPropertyIN7libMesh11VectorValueIdEEE4initEi
FN:346,_ZN18ADMaterialPropertyIN7libMesh11VectorValueIdEEE4initEi
FNDA:0,_ZN18ADMaterialPropertyIN7libMesh11VectorValueIdEEE4initEi
FN:346,_ZN18ADMaterialPropertyIdE4initEi
FNDA:0,_ZN18ADMaterialPropertyIdE4initEi
FNF:45
FNH:0
DA:111,0
DA:111,0
DA:111,0
DA:111,0
DA:111,0
DA:111,0
DA:111,0
DA:111,0
DA:113,0
DA:113,0
DA:113,0
DA:113,0
DA:135,0
DA:135,0
DA:135,0
DA:135,0
DA:140,0
DA:145,0
DA:219,0
DA:221,0
DA:222,0
DA:237,0
DA:239,0
DA:237,0
DA:239,0
DA:237,0
DA:239,0
DA:237,0
DA:239,0
DA:244,0
DA:246,0
DA:247,0
DA:244,0
DA:246,0
DA:247,0
DA:244,0
DA:246,0
DA:247,0
DA:244,0
DA:246,0
DA:247,0
DA:251,0
DA:258,0
DA:259,0
DA:262,0
DA:264,0
DA:251,0
DA:258,0
DA:259,0
DA:262,0
DA:264,0
DA:251,0
DA:258,0
DA:259,0
DA:262,0
DA:264,0
DA:251,0
DA:258,0
DA:259,0
DA:262,0
DA:264,0
DA:268,0
DA:270,0
DA:271,0
DA:272,0
DA:268,0
DA:270,0
DA:271,0
DA:272,0
DA:268,0
DA:270,0
DA:271,0
DA:272,0
DA:268,0
DA:270,0
DA:271,0
DA:272,0
DA:276,0
DA:278,0
DA:279,0
DA:280,0
DA:276,0
DA:278,0
DA:279,0
DA:280,0
DA:276,0
DA:278,0
DA:279,0
DA:280,0
DA:276,0
DA:278,0
DA:279,0
DA:280,0
DA:284,0
DA:289,0
DA:292,0
DA:307,0
DA:311,0
DA:312,0
DA:313,0
DA:284,0
DA:289,0
DA:292,0
DA:307,0
DA:311,0
DA:312,0
DA:313,0
DA:284,0
DA:289,0
DA:292,0
DA:307,0
DA:311,0
DA:312,0
DA:313,0
DA:284,0
DA:289,0
DA:292,0
DA:307,0
DA:311,0
DA:312,0
DA:313,0
DA:322,0
DA:322,0
DA:346,0
DA:346,0
LF:125
LH:0
end_of_record
SF:/home/runner/work/raccoon/raccoon/moose/framework/build/header_symlinks/ElementIDInterface.h
LF:0
LH:0
end_of_record
SF:/usr/share/miniconda/envs/moose/x86_64-conda-linux-gnu/include/c++/9.3.0/streambuf
LF:0
LH:0
end_of_record
SF:/usr/share/miniconda/envs/moose/x86_64-conda-linux-gnu/include/c++/9.3.0/ext/new_allocator.h
DA:114,7890840
DA:128,5551530
DA:147,5615400
DA:153,31016
LF:4
LH:4
end_of_record
SF:/home/runner/work/raccoon/raccoon/moose/framework/build/header_symlinks/MooseObjectName.h
FN:56,_ZN15MooseObjectNameD0Ev
FNDA:0,_ZN15MooseObjectNameD0Ev
FN:56,_ZN15MooseObjectNameD2Ev
FNDA:536,_ZN15MooseObjectNameD2Ev
FNF:2
FNH:1
DA:56,0
DA:56,536
LF:2
LH:1
end_of_record
SF:/usr/share/miniconda/envs/moose/libmesh/include/libmesh/libmesh_exceptions.h
DA:42,0
DA:54,0
LF:2
LH:0
end_of_record
TN:
SF:/usr/share/miniconda/envs/moose/x86_64-conda-linux-gnu/include/c++/9.3.0/typeinfo
DA:100,0
DA:123,0
DA:124,0
LF:3
LH:0
end_of_record
SF:/usr/share/miniconda/envs/moose/libmesh/include/metaphysicl/semidynamicsparsenumberarray_decl.h
DA:34,2052500000
DA:56,14912
LF:2
LH:2
end_of_record
SF:/usr/share/miniconda/envs/moose/x86_64-conda-linux-gnu/include/c++/9.3.0/bits/stl_construct.h
DA:75,0
DA:98,0
DA:107,27
LF:3
LH:1
end_of_record
SF:/usr/share/miniconda/envs/moose/x86_64-conda-linux-gnu/include/c++/9.3.0/bits/stl_vector.h
FN:507,_ZNSt6vectorIPK18ADMaterialPropertyI18RankTwoTensorTemplIdEESaIS5_EEC2EmRKS6_
FNDA:27,_ZNSt6vectorIPK18ADMaterialPropertyI18RankTwoTensorTemplIdEESaIS5_EEC2EmRKS6_
FN:622,_ZNSt6vectorIdSaIdEEC2ESt16initializer_listIdERKS0_
FNDA:0,_ZNSt6vectorIdSaIdEEC2ESt16initializer_listIdERKS0_
FN:622,_ZNSt6vectorINSt7__cxx1112basic_stringIcSt11char_traitsIcESaIcEEESaIS5_EEC2ESt16initializer_listIS5_ERKS6_
FNDA:0,_ZNSt6vectorINSt7__cxx1112basic_stringIcSt11char_traitsIcESaIcEEESaIS5_EEC2ESt16initializer_listIS5_ERKS6_
FN:675,_ZNSt6vectorI20MaterialPropertyNameSaIS0_EED2Ev
FNDA:27,_ZNSt6vectorI20MaterialPropertyNameSaIS0_EED2Ev
FN:675,_ZNSt6vectorINSt7__cxx1112basic_stringIcSt11char_traitsIcESaIcEEESaIS5_EED2Ev
FNDA:0,_ZNSt6vectorINSt7__cxx1112basic_stringIcSt11char_traitsIcESaIcEEESaIS5_EED2Ev
FN:675,_ZNSt6vectorIS_IS_IS_ISt4pairIhhESaIS1_EESaIS3_EESaIS5_EESaIS7_EED2Ev
FNDA:0,_ZNSt6vectorIS_IS_IS_ISt4pairIhhESaIS1_EESaIS3_EESaIS5_EESaIS7_EED2Ev
FN:675,_ZNSt6vectorIS_IS_IaSaIaEESaIS1_EESaIS3_EED2Ev
FNDA:0,_ZNSt6vectorIS_IS_IaSaIaEESaIS1_EESaIS3_EED2Ev
FN:675,_ZNSt6vectorI13SubdomainNameSaIS0_EED2Ev
FNDA:0,_ZNSt6vectorI13SubdomainNameSaIS0_EED2Ev
FN:675,_ZNSt6vectorISt10unique_ptrI16MaterialPropertyIdESt14default_deleteIS2_EESaIS5_EED2Ev
FNDA:0,_ZNSt6vectorISt10unique_ptrI16MaterialPropertyIdESt14default_deleteIS2_EESaIS5_EED2Ev
FN:675,_ZNSt6vectorISt10unique_ptrI18ADMaterialPropertyIdESt14default_deleteIS2_EESaIS5_EED2Ev
FNDA:0,_ZNSt6vectorISt10unique_ptrI18ADMaterialPropertyIdESt14default_deleteIS2_EESaIS5_EED2Ev
FN:675,_ZNSt6vectorISt10unique_ptrI16MaterialPropertyIN7libMesh11VectorValueIdEEESt14default_deleteIS5_EESaIS8_EED2Ev
FNDA:0,_ZNSt6vectorISt10unique_ptrI16MaterialPropertyIN7libMesh11VectorValueIdEEESt14default_deleteIS5_EESaIS8_EED2Ev
FN:675,_ZNSt6vectorISt10unique_ptrI18ADMaterialPropertyIN7libMesh11VectorValueIdEEESt14default_deleteIS5_EESaIS8_EED2Ev
FNDA:0,_ZNSt6vectorISt10unique_ptrI18ADMaterialPropertyIN7libMesh11VectorValueIdEEESt14default_deleteIS5_EESaIS8_EED2Ev
FN:675,_ZNSt6vectorIS_IS_ISt4pairIhhESaIS1_EESaIS3_EESaIS5_EED2Ev
FNDA:0,_ZNSt6vectorIS_IS_ISt4pairIhhESaIS1_EESaIS3_EESaIS5_EED2Ev
FN:675,_ZNSt6vectorIS_IaSaIaEESaIS1_EED2Ev
FNDA:0,_ZNSt6vectorIS_IaSaIaEESaIS1_EED2Ev
FN:675,_ZNSt6vectorISt10unique_ptrI10MooseArrayIdESt14default_deleteIS2_EESaIS5_EED2Ev
FNDA:0,_ZNSt6vectorISt10unique_ptrI10MooseArrayIdESt14default_deleteIS2_EESaIS5_EED2Ev
FN:675,_ZNSt6vectorIS_ISt4pairIhhESaIS1_EESaIS3_EED2Ev
FNDA:0,_ZNSt6vectorIS_ISt4pairIhhESaIS1_EESaIS3_EED2Ev
FN:675,_ZNSt6vectorISt5tupleIJNSt7__cxx1112basic_stringIcSt11char_traitsIcESaIcEEEN5Moose23RelationshipManagerTypeESt8functionIFvRK15InputParametersRSA_EEEESaISG_EED2Ev
FNDA:0,_ZNSt6vectorISt5tupleIJNSt7__cxx1112basic_stringIcSt11char_traitsIcESaIcEEEN5Moose23RelationshipManagerTypeESt8functionIFvRK15InputParametersRSA_EEEESaISG_EED2Ev
FN:954,_ZNSt6vectorIP13PropertyValueSaIS1_EE6resizeEmRKS1_
FNDA:0,_ZNSt6vectorIP13PropertyValueSaIS1_EE6resizeEmRKS1_
FN:1505,_ZNSt6vectorI20MaterialPropertyNameSaIS0_EE20_M_allocate_and_copyIN9__gnu_cxx17__normal_iteratorIPKS0_S2_EEEEPS0_mT_SA_
FNDA:0,_ZNSt6vectorI20MaterialPropertyNameSaIS0_EE20_M_allocate_and_copyIN9__gnu_cxx17__normal_iteratorIPKS0_S2_EEEEPS0_mT_SA_
FN:1753,_ZNKSt6vectorIPK10MooseArrayIN11MetaPhysicL10DualNumberIdNS1_28SemiDynamicSparseNumberArrayIdmNS1_8NWrapperILm50EEEEELb1EEEESaISA_EE12_M_check_lenEmPKc
FNDA:450,_ZNKSt6vectorIPK10MooseArrayIN11MetaPhysicL10DualNumberIdNS1_28SemiDynamicSparseNumberArrayIdmNS1_8NWrapperILm50EEEEELb1EEEESaISA_EE12_M_check_lenEmPKc
FN:1753,_ZNKSt6vectorIPK10MooseArrayIN7libMesh11VectorValueIN11MetaPhysicL10DualNumberIdNS3_28SemiDynamicSparseNumberArrayIdmNS3_8NWrapperILm50EEEEELb1EEEEEESaISD_EE12_M_check_lenEmPKc
FNDA:54,_ZNKSt6vectorIPK10MooseArrayIN7libMesh11VectorValueIN11MetaPhysicL10DualNumberIdNS3_28SemiDynamicSparseNumberArrayIdmNS3_8NWrapperILm50EEEEELb1EEEEEESaISD_EE12_M_check_lenEmPKc
FN:1753,_ZNKSt6vectorIP13PropertyValueSaIS1_EE12_M_check_lenEmPKc
FNDA:0,_ZNKSt6vectorIP13PropertyValueSaIS1_EE12_M_check_lenEmPKc
FNF:22
FNH:4
DA:94,27
DA:95,0
DA:333,27
DA:334,0
DA:350,531
DA:358,27
DA:360,27
DA:507,27
DA:509,27
DA:622,0
DA:626,0
DA:628,0
DA:622,0
DA:626,0
DA:628,0
DA:675,0
DA:677,0
DA:680,0
DA:675,0
DA:677,0
DA:680,0
DA:675,0
DA:677,0
DA:680,0
DA:675,0
DA:677,0
DA:680,0
DA:675,0
DA:677,0
DA:680,0
DA:675,27
DA:677,27
DA:680,27
DA:675,0
DA:677,0
DA:680,0
DA:675,0
DA:677,0
DA:680,0
DA:675,0
DA:677,0
DA:680,0
DA:675,0
DA:677,0
DA:680,0
DA:675,0
DA:677,0
DA:680,0
DA:675,0
DA:677,0
DA:680,0
DA:675,0
DA:677,0
DA:680,0
DA:675,0
DA:677,0
DA:680,0
DA:677,24
DA:680,0
DA:916,390802
DA:954,0
DA:956,0
DA:957,0
DA:958,0
DA:959,0
DA:960,0
DA:997,0
DA:1043,0
DA:1201,9
DA:1505,0
DA:1508,0
DA:1513,0
DA:1515,0
DA:1518,0
DA:1602,27
DA:1708,0
DA:1753,0
DA:1755,0
DA:1756,0
DA:1758,0
DA:1759,0
DA:1753,54
DA:1755,54
DA:1756,0
DA:1758,54
DA:1759,54
DA:1753,450
DA:1755,450
DA:1756,0
DA:1758,450
DA:1759,450
DA:1766,27
DA:1767,0
DA:1791,0
DA:1795,0
LF:95
LH:23
end_of_record
SF:/home/runner/work/raccoon/raccoon/moose/framework/build/header_symlinks/MaterialData.h
FN:276,_ZN12MaterialData11resizePropsIdEEvj
FNDA:0,_ZN12MaterialData11resizePropsIdEEvj
FN:276,_ZN12MaterialData11resizePropsI18RankTwoTensorTemplIdEEEvj
FNDA:0,_ZN12MaterialData11resizePropsI18RankTwoTensorTemplIdEEEvj
FN:296,_ZN12MaterialData13resizePropsADI18RankTwoTensorTemplIdEEEvj
FNDA:0,_ZN12MaterialData13resizePropsADI18RankTwoTensorTemplIdEEEvj
FN:296,_ZN12MaterialData13resizePropsADIdEEvj
FNDA:0,_ZN12MaterialData13resizePropsADIdEEvj
FN:323,_ZN12MaterialData17declareADPropertyI18RankTwoTensorTemplIdEEER18ADMaterialPropertyIT_ERKNSt7__cxx1112basic_stringIcSt11char_traitsIcESaIcEEE
FNDA:0,_ZN12MaterialData17declareADPropertyI18RankTwoTensorTemplIdEEER18ADMaterialPropertyIT_ERKNSt7__cxx1112basic_stringIcSt11char_traitsIcESaIcEEE
FN:323,_ZN12MaterialData17declareADPropertyIdEER18ADMaterialPropertyIT_ERKNSt7__cxx1112basic_stringIcSt11char_traitsIcESaIcEEE
FNDA:0,_ZN12MaterialData17declareADPropertyIdEER18ADMaterialPropertyIT_ERKNSt7__cxx1112basic_stringIcSt11char_traitsIcESaIcEEE
FN:346,_ZN12MaterialData13declareHelperIdEER16MaterialPropertyIT_ER18MaterialPropertiesRKNSt7__cxx1112basic_stringIcSt11char_traitsIcESaIcEEEj
FNDA:0,_ZN12MaterialData13declareHelperIdEER16MaterialPropertyIT_ER18MaterialPropertiesRKNSt7__cxx1112basic_stringIcSt11char_traitsIcESaIcEEEj
FN:346,_ZN12MaterialData13declareHelperI18RankTwoTensorTemplIdEEER16MaterialPropertyIT_ER18MaterialPropertiesRKNSt7__cxx1112basic_stringIcSt11char_traitsIcESaIcEEEj
FNDA:0,_ZN12MaterialData13declareHelperI18RankTwoTensorTemplIdEEER16MaterialPropertyIT_ER18MaterialPropertiesRKNSt7__cxx1112basic_stringIcSt11char_traitsIcESaIcEEEj
FN:370,_ZN12MaterialData15declareADHelperI18RankTwoTensorTemplIdEEER18ADMaterialPropertyIT_ER18MaterialPropertiesRKNSt7__cxx1112basic_stringIcSt11char_traitsIcESaIcEEEj
FNDA:0,_ZN12MaterialData15declareADHelperI18RankTwoTensorTemplIdEEER18ADMaterialPropertyIT_ER18MaterialPropertiesRKNSt7__cxx1112basic_stringIcSt11char_traitsIcESaIcEEEj
FN:370,_ZN12MaterialData15declareADHelperIdEER18ADMaterialPropertyIT_ER18MaterialPropertiesRKNSt7__cxx1112basic_stringIcSt11char_traitsIcESaIcEEEj
FNDA:0,_ZN12MaterialData15declareADHelperIdEER18ADMaterialPropertyIT_ER18MaterialPropertiesRKNSt7__cxx1112basic_stringIcSt11char_traitsIcESaIcEEEj
FN:417,_ZN12MaterialData13getADPropertyI18RankTwoTensorTemplIdEEER18ADMaterialPropertyIT_ERKNSt7__cxx1112basic_stringIcSt11char_traitsIcESaIcEEE
FNDA:0,_ZN12MaterialData13getADPropertyI18RankTwoTensorTemplIdEEER18ADMaterialPropertyIT_ERKNSt7__cxx1112basic_stringIcSt11char_traitsIcESaIcEEE
FN:417,_ZN12MaterialData13getADPropertyIdEER18ADMaterialPropertyIT_ERKNSt7__cxx1112basic_stringIcSt11char_traitsIcESaIcEEE
FNDA:0,_ZN12MaterialData13getADPropertyIdEER18ADMaterialPropertyIT_ERKNSt7__cxx1112basic_stringIcSt11char_traitsIcESaIcEEE
FN:441,_ZN12MaterialData14getPropertyOldIdEER16MaterialPropertyIT_ERKNSt7__cxx1112basic_stringIcSt11char_traitsIcESaIcEEE
FNDA:0,_ZN12MaterialData14getPropertyOldIdEER16MaterialPropertyIT_ERKNSt7__cxx1112basic_stringIcSt11char_traitsIcESaIcEEE
FN:441,_ZN12MaterialData14getPropertyOldI18RankTwoTensorTemplIdEEER16MaterialPropertyIT_ERKNSt7__cxx1112basic_stringIcSt11char_traitsIcESaIcEEE
FNDA:0,_ZN12MaterialData14getPropertyOldI18RankTwoTensorTemplIdEEER16MaterialPropertyIT_ERKNSt7__cxx1112basic_stringIcSt11char_traitsIcESaIcEEE
FNF:14
FNH:0
DA:179,0
DA:276,0
DA:278,0
DA:279,0
DA:280,0
DA:281,0
DA:282,0
DA:283,0
DA:284,0
DA:286,0
DA:287,0
DA:288,0
DA:289,0
DA:290,0
DA:291,0
DA:292,0
DA:276,0
DA:278,0
DA:279,0
DA:280,0
DA:281,0
DA:282,0
DA:283,0
DA:284,0
DA:286,0
DA:287,0
DA:288,0
DA:289,0
DA:290,0
DA:291,0
DA:292,0
DA:296,0
DA:298,0
DA:299,0
DA:300,0
DA:301,0
DA:302,0
DA:303,0
DA:304,0
DA:306,0
DA:307,0
DA:308,0
DA:309,0
DA:310,0
DA:311,0
DA:312,0
DA:296,0
DA:298,0
DA:299,0
DA:300,0
DA:301,0
DA:302,0
DA:303,0
DA:304,0
DA:306,0
DA:307,0
DA:308,0
DA:309,0
DA:310,0
DA:311,0
DA:312,0
DA:323,0
DA:325,0
DA:323,0
DA:325,0
DA:346,0
DA:350,0
DA:351,0
DA:352,0
DA:357,0
DA:358,0
DA:359,0
DA:362,0
DA:364,0
DA:365,0
DA:346,0
DA:350,0
DA:351,0
DA:352,0
DA:357,0
DA:358,0
DA:359,0
DA:362,0
DA:364,0
DA:365,0
DA:370,0
DA:374,0
DA:375,0
DA:376,0
DA:381,0
DA:382,0
DA:383,0
DA:386,0
DA:388,0
DA:389,0
DA:370,0
DA:374,0
DA:375,0
DA:376,0
DA:381,0
DA:382,0
DA:383,0
DA:386,0
DA:388,0
DA:389,0
DA:417,0
DA:419,0
DA:420,0
DA:421,0
DA:422,0
DA:427,0
DA:428,0
DA:429,0
DA:434,0
DA:436,0
DA:417,0
DA:419,0
DA:420,0
DA:421,0
DA:422,0
DA:427,0
DA:428,0
DA:429,0
DA:434,0
DA:436,0
DA:441,0
DA:443,0
DA:441,0
DA:443,0
LF:129
LH:0
end_of_record
SF:/home/runner/work/raccoon/raccoon/moose/framework/build/header_symlinks/Registry.h
FN:137,_ZN5moose8internal15callValidParamsI34LargeDeformationNewtonianViscosityEEDTcmcl20callValidParamsInnerIT_ELi0EEclL_Z20emptyInputParametersvEEEv
FNDA:102,_ZN5moose8internal15callValidParamsI34LargeDeformationNewtonianViscosityEEDTcmcl20callValidParamsInnerIT_ELi0EEclL_Z20emptyInputParametersvEEEv
FN:137,_ZN5moose8internal15callValidParamsI31LargeDeformationJ2PowerLawCreepEEDTcmcl20callValidParamsInnerIT_ELi0EEclL_Z20emptyInputParametersvEEEv
FNDA:106,_ZN5moose8internal15callValidParamsI31LargeDeformationJ2PowerLawCreepEEDTcmcl20callValidParamsInnerIT_ELi0EEclL_Z20emptyInputParametersvEEEv
FN:137,_ZN5moose8internal15callValidParamsI28LargeDeformationJ2PlasticityEEDTcmcl20callValidParamsInnerIT_ELi0EEclL_Z20emptyInputParametersvEEEv
FNDA:122,_ZN5moose8internal15callValidParamsI28LargeDeformationJ2PlasticityEEDTcmcl20callValidParamsInnerIT_ELi0EEclL_Z20emptyInputParametersvEEEv
FN:137,_ZN5moose8internal15callValidParamsI22CNHIsotropicElasticityEEDTcmcl20callValidParamsInnerIT_ELi0EEclL_Z20emptyInputParametersvEEEv
FNDA:102,_ZN5moose8internal15callValidParamsI22CNHIsotropicElasticityEEDTcmcl20callValidParamsInnerIT_ELi0EEclL_Z20emptyInputParametersvEEEv
FN:137,_ZN5moose8internal15callValidParamsI25HenckyIsotropicElasticityEEDTcmcl20callValidParamsInnerIT_ELi0EEclL_Z20emptyInputParametersvEEEv
FNDA:130,_ZN5moose8internal15callValidParamsI25HenckyIsotropicElasticityEEDTcmcl20callValidParamsInnerIT_ELi0EEclL_Z20emptyInputParametersvEEEv
FN:137,_ZN5moose8internal15callValidParamsI29ComputeLargeDeformationStressEEDTcmcl20callValidParamsInnerIT_ELi0EEclL_Z20emptyInputParametersvEEEv
FNDA:134,_ZN5moose8internal15callValidParamsI29ComputeLargeDeformationStressEEDTcmcl20callValidParamsInnerIT_ELi0EEclL_Z20emptyInputParametersvEEEv
FN:137,_ZN5moose8internal15callValidParamsI26ComputeDeformationGradientEEDTcmcl20callValidParamsInnerIT_ELi0EEclL_Z20emptyInputParametersvEEEv
FNDA:134,_ZN5moose8internal15callValidParamsI26ComputeDeformationGradientEEDTcmcl20callValidParamsInnerIT_ELi0EEclL_Z20emptyInputParametersvEEEv
FN:144,_ZN5moose8internal8buildObjI34LargeDeformationNewtonianViscosityEESt10shared_ptrI11MooseObjectERK15InputParameters
FNDA:3,_ZN5moose8internal8buildObjI34LargeDeformationNewtonianViscosityEESt10shared_ptrI11MooseObjectERK15InputParameters
FN:144,_ZN5moose8internal8buildObjI22CNHIsotropicElasticityEESt10shared_ptrI11MooseObjectERK15InputParameters
FNDA:3,_ZN5moose8internal8buildObjI22CNHIsotropicElasticityEESt10shared_ptrI11MooseObjectERK15InputParameters
FN:144,_ZN5moose8internal8buildObjI26ComputeDeformationGradientEESt10shared_ptrI11MooseObjectERK15InputParameters
FNDA:27,_ZN5moose8internal8buildObjI26ComputeDeformationGradientEESt10shared_ptrI11MooseObjectERK15InputParameters
FN:144,_ZN5moose8internal8buildObjI29ComputeLargeDeformationStressEESt10shared_ptrI11MooseObjectERK15InputParameters
FNDA:27,_ZN5moose8internal8buildObjI29ComputeLargeDeformationStressEESt10shared_ptrI11MooseObjectERK15InputParameters
FN:144,_ZN5moose8internal8buildObjI25HenckyIsotropicElasticityEESt10shared_ptrI11MooseObjectERK15InputParameters
FNDA:24,_ZN5moose8internal8buildObjI25HenckyIsotropicElasticityEESt10shared_ptrI11MooseObjectERK15InputParameters
FN:144,_ZN5moose8internal8buildObjI28LargeDeformationJ2PlasticityEESt10shared_ptrI11MooseObjectERK15InputParameters
FNDA:18,_ZN5moose8internal8buildObjI28LargeDeformationJ2PlasticityEESt10shared_ptrI11MooseObjectERK15InputParameters
FN:144,_ZN5moose8internal8buildObjI31LargeDeformationJ2PowerLawCreepEESt10shared_ptrI11MooseObjectERK15InputParameters
FNDA:6,_ZN5moose8internal8buildObjI31LargeDeformationJ2PowerLawCreepEESt10shared_ptrI11MooseObjectERK15InputParameters
FN:204,_ZN8Registry3addI34LargeDeformationNewtonianViscosityEEcRK13RegistryEntry
FNDA:32,_ZN8Registry3addI34LargeDeformationNewtonianViscosityEEcRK13RegistryEntry
FN:204,_ZN8Registry3addI31LargeDeformationJ2PowerLawCreepEEcRK13RegistryEntry
FNDA:32,_ZN8Registry3addI31LargeDeformationJ2PowerLawCreepEEcRK13RegistryEntry
FN:204,_ZN8Registry3addI28LargeDeformationJ2PlasticityEEcRK13RegistryEntry
FNDA:32,_ZN8Registry3addI28LargeDeformationJ2PlasticityEEcRK13RegistryEntry
FN:204,_ZN8Registry3addI25HenckyIsotropicElasticityEEcRK13RegistryEntry
FNDA:32,_ZN8Registry3addI25HenckyIsotropicElasticityEEcRK13RegistryEntry
FN:204,_ZN8Registry3addI29ComputeLargeDeformationStressEEcRK13RegistryEntry
FNDA:32,_ZN8Registry3addI29ComputeLargeDeformationStressEEcRK13RegistryEntry
FN:204,_ZN8Registry3addI26ComputeDeformationGradientEEcRK13RegistryEntry
FNDA:32,_ZN8Registry3addI26ComputeDeformationGradientEEcRK13RegistryEntry
FN:204,_ZN8Registry3addI22CNHIsotropicElasticityEEcRK13RegistryEntry
FNDA:32,_ZN8Registry3addI22CNHIsotropicElasticityEEcRK13RegistryEntry
FNF:21
FNH:21
DA:137,102
DA:139,102
DA:137,106
DA:139,106
DA:137,122
DA:139,122
DA:137,130
DA:139,130
DA:137,134
DA:139,134
DA:137,134
DA:139,134
DA:137,102
DA:139,102
DA:144,3
DA:146,3
DA:144,6
DA:146,6
DA:144,18
DA:146,18
DA:144,24
DA:146,24
DA:144,27
DA:146,27
DA:144,27
DA:146,27
DA:144,3
DA:146,3
DA:204,32
DA:206,64
DA:207,32
DA:208,32
DA:209,32
DA:210,32
DA:204,32
DA:206,64
DA:207,32
DA:208,32
DA:209,32
DA:210,32
DA:204,32
DA:206,64
DA:207,32
DA:208,32
DA:209,32
DA:210,32
DA:204,32
DA:206,64
DA:207,32
DA:208,32
DA:209,32
DA:210,32
DA:204,32
DA:206,64
DA:207,32
DA:208,32
DA:209,32
DA:210,32
DA:204,32
DA:206,64
DA:207,32
DA:208,32
DA:209,32
DA:210,32
DA:204,32
DA:206,64
DA:207,32
DA:208,32
DA:209,32
DA:210,32
LF:70
LH:70
end_of_record
SF:/usr/share/miniconda/envs/moose/x86_64-conda-linux-gnu/include/c++/9.3.0/bits/basic_string.tcc
FN:206,_ZNSt7__cxx1112basic_stringIcSt11char_traitsIcESaIcEE12_M_constructIPcEEvT_S7_St20forward_iterator_tag
FNDA:108,_ZNSt7__cxx1112basic_stringIcSt11char_traitsIcESaIcEE12_M_constructIPcEEvT_S7_St20forward_iterator_tag
FN:206,_ZNSt7__cxx1112basic_stringIcSt11char_traitsIcESaIcEE12_M_constructIPKcEEvT_S8_St20forward_iterator_tag
FNDA:0,_ZNSt7__cxx1112basic_stringIcSt11char_traitsIcESaIcEE12_M_constructIPKcEEvT_S8_St20forward_iterator_tag
FN:1158,_ZStplIcSt11char_traitsIcESaIcEENSt7__cxx1112basic_stringIT_T0_T1_EEPKS5_RKS8_
FNDA:0,_ZStplIcSt11char_traitsIcESaIcEENSt7__cxx1112basic_stringIT_T0_T1_EEPKS5_RKS8_
FNF:3
FNH:1
DA:206,108
DA:211,108
DA:212,0
DA:215,108
DA:217,108
DA:219,0
DA:220,0
DA:225,108
DA:232,108
DA:233,108
DA:206,0
DA:211,0
DA:212,0
DA:215,0
DA:217,0
DA:219,0
DA:220,0
DA:225,0
DA:232,0
DA:233,0
DA:1158,0
DA:1166,0
DA:1167,0
DA:1169,0
LF:24
LH:7
end_of_record
SF:/home/runner/work/raccoon/raccoon/src/materials/large_deformation_models/ComputeDeformationGradient.C
FN:10,_ZN26ComputeDeformationGradient11validParamsEv
FNDA:134,_ZN26ComputeDeformationGradient11validParamsEv
FN:31,_ZN26ComputeDeformationGradientC2ERK15InputParameters
FNDA:27,_ZN26ComputeDeformationGradientC2ERK15InputParameters
FN:55,_ZN26ComputeDeformationGradient12initialSetupEv
FNDA:27,_ZN26ComputeDeformationGradient12initialSetupEv
FN:68,_ZN26ComputeDeformationGradient26displacementIntegrityCheckEv
FNDA:27,_ZN26ComputeDeformationGradient26displacementIntegrityCheckEv
FN:88,_ZN26ComputeDeformationGradient24initQpStatefulPropertiesEv
FNDA:12304,_ZN26ComputeDeformationGradient24initQpStatefulPropertiesEv
FN:95,_ZN26ComputeDeformationGradient27computeQpOutOfPlaneGradDispEv
FNDA:0,_ZN26ComputeDeformationGradient27computeQpOutOfPlaneGradDispEv
FN:104,_ZN26ComputeDeformationGradient17computePropertiesEv
FNDA:38422,_ZN26ComputeDeformationGradient17computePropertiesEv
FNF:7
FNH:6
DA:10,134
DA:12,134
DA:13,134
DA:14,134
DA:19,268
DA:22,268
DA:23,268
DA:24,268
DA:27,134
DA:28,134
DA:31,27
DA:34,27
DA:35,27
DA:38,27
DA:40,27
DA:41,81
DA:42,54
DA:45,270
DA:47,27
DA:48,0
DA:50,54
DA:51,0
DA:52,27
DA:55,27
DA:57,27
DA:60,36
DA:62,9
DA:63,9
DA:65,27
DA:68,27
DA:71,27
DA:72,0
DA:77,27
DA:78,0
DA:81,27
DA:82,0
DA:85,27
DA:88,12304
DA:90,12304
DA:91,12304
DA:92,12304
DA:95,0
DA:97,0
DA:98,0
DA:100,0
DA:104,38422
DA:106,38422
DA:108,195374
DA:110,156952
DA:111,156952
DA:112,0
DA:113,156952
DA:114,239768
DA:116,156952
DA:117,113752
DA:120,38422
DA:121,42524
DA:123,195374
DA:125,156952
DA:126,113752
DA:129,156952
DA:130,156952
DA:131,0
DA:132,156952
DA:134,38422
LF:65
LH:54
end_of_record
SF:/home/runner/work/raccoon/raccoon/build/header_symlinks/HenckyIsotropicElasticity.h
LF:0
LH:0
end_of_record
SF:/usr/share/miniconda/envs/moose/x86_64-conda-linux-gnu/include/c++/9.3.0/bits/move.h
DA:193,0
DA:194,0
DA:195,0
LF:3
LH:0
end_of_record
SF:/usr/share/miniconda/envs/moose/libmesh/include/libmesh/threads_pthread.h
DA:149,0
DA:150,0
DA:527,0
DA:541,0
LF:4
LH:0
end_of_record
SF:/usr/share/miniconda/envs/moose/libmesh/include/metaphysicl/dynamic_std_array_wrapper.h
FN:54,_ZN11MetaPhysicL22DynamicStdArrayWrapperImNS_8NWrapperILm50EEEEC2ERKS3_
FNDA:10077,_ZN11MetaPhysicL22DynamicStdArrayWrapperImNS_8NWrapperILm50EEEEC2ERKS3_
FN:54,_ZN11MetaPhysicL22DynamicStdArrayWrapperIdNS_8NWrapperILm50EEEEC2ERKS3_
FNDA:10077,_ZN11MetaPhysicL22DynamicStdArrayWrapperIdNS_8NWrapperILm50EEEEC2ERKS3_
FN:71,_ZN11MetaPhysicL22DynamicStdArrayWrapperImNS_8NWrapperILm50EEEEaSERKS3_
FNDA:2050510000,_ZN11MetaPhysicL22DynamicStdArrayWrapperImNS_8NWrapperILm50EEEEaSERKS3_
FN:71,_ZN11MetaPhysicL22DynamicStdArrayWrapperIdNS_8NWrapperILm50EEEEaSERKS3_
FNDA:2050510000,_ZN11MetaPhysicL22DynamicStdArrayWrapperIdNS_8NWrapperILm50EEEEaSERKS3_
FNF:4
FNH:4
DA:54,10077
DA:56,10077
DA:59,10077
DA:54,10077
DA:56,10077
DA:59,10077
DA:62,29824
DA:64,29824
DA:67,214272
DA:68,184448
DA:71,2050510000
DA:73,2050510000
DA:76,2050510000
DA:71,2050510000
DA:73,2050510000
DA:76,2050510000
DA:82,0
DA:85,0
DA:86,0
DA:90,3496080000
DA:99,415877000
DA:105,13625100000
DA:125,1520200000
DA:131,194101000
DA:137,194101000
DA:142,194101000
LF:26
LH:23
end_of_record
SF:/home/runner/work/raccoon/raccoon/src/materials/large_deformation_models/LargeDeformationJ2Plasticity.C
FN:11,_ZN28LargeDeformationJ2Plasticity11validParamsEv
FNDA:228,_ZN28LargeDeformationJ2Plasticity11validParamsEv
FN:19,_ZN28LargeDeformationJ2PlasticityC2ERK15InputParameters
FNDA:24,_ZN28LargeDeformationJ2PlasticityC2ERK15InputParameters
FN:25,_ZN28LargeDeformationJ2Plasticity11updateStateER18RankTwoTensorTemplIN11MetaPhysicL10DualNumberIdNS1_28SemiDynamicSparseNumberArrayIdmNS1_8NWrapperILm50EEEEELb1EEEES9_
FNDA:113752,_ZN28LargeDeformationJ2Plasticity11updateStateER18RankTwoTensorTemplIN11MetaPhysicL10DualNumberIdNS1_28SemiDynamicSparseNumberArrayIdmNS1_8NWrapperILm50EEEEELb1EEEES9_
FN:60,_ZN28LargeDeformationJ2Plasticity24computeReferenceResidualERKN11MetaPhysicL10DualNumberIdNS0_28SemiDynamicSparseNumberArrayIdmNS0_8NWrapperILm50EEEEELb1EEES8_
FNDA:6824,_ZN28LargeDeformationJ2Plasticity24computeReferenceResidualERKN11MetaPhysicL10DualNumberIdNS0_28SemiDynamicSparseNumberArrayIdmNS0_8NWrapperILm50EEEEELb1EEES8_
FN:70,_ZN28LargeDeformationJ2Plasticity15computeResidualERKN11MetaPhysicL10DualNumberIdNS0_28SemiDynamicSparseNumberArrayIdmNS0_8NWrapperILm50EEEEELb1EEES8_
FNDA:113208,_ZN28LargeDeformationJ2Plasticity15computeResidualERKN11MetaPhysicL10DualNumberIdNS0_28SemiDynamicSparseNumberArrayIdmNS0_8NWrapperILm50EEEEELb1EEES8_
FN:81,_ZN28LargeDeformationJ2Plasticity17computeDerivativeERKN11MetaPhysicL10DualNumberIdNS0_28SemiDynamicSparseNumberArrayIdmNS0_8NWrapperILm50EEEEELb1EEES8_
FNDA:691,_ZN28LargeDeformationJ2Plasticity17computeDerivativeERKN11MetaPhysicL10DualNumberIdNS0_28SemiDynamicSparseNumberArrayIdmNS0_8NWrapperILm50EEEEELb1EEES8_
FNF:6
FNH:6
DA:11,228
DA:13,228
DA:14,228
DA:16,228
DA:19,24
DA:20,24
DA:22,24
DA:25,113752
DA:29,113752
DA:30,113752
DA:34,113752
DA:35,113752
DA:36,113752
DA:37,32496
DA:38,113752
DA:39,227504
DA:42,113752
DA:43,113752
DA:44,2189
DA:45,113752
DA:46,227504
DA:47,113752
DA:50,113752
DA:51,113752
DA:52,113752
DA:55,113752
DA:56,113752
DA:57,113752
DA:60,6824
DA:64,6824
DA:65,13648
DA:66,13648
DA:70,113208
DA:73,113208
DA:74,226416
DA:75,226416
DA:76,113208
DA:77,226416
DA:81,691
DA:84,1382
DA:85,1382
DA:86,691
DA:87,1382
LF:43
LH:43
end_of_record
SF:/usr/share/miniconda/envs/moose/x86_64-conda-linux-gnu/include/c++/9.3.0/bits/stl_iterator.h
DA:206,2857100000
DA:207,1427130000
DA:255,194101000
DA:807,156952
DA:829,0
DA:830,0
DA:868,18
DA:910,0
DA:992,504
LF:9
LH:6
end_of_record
SF:/usr/share/miniconda/envs/moose/x86_64-conda-linux-gnu/include/c++/9.3.0/bits/stl_set.h
FN:281,_ZNSt3setIsSt4lessIsESaIsEED2Ev
FNDA:0,_ZNSt3setIsSt4lessIsESaIsEED2Ev
FN:281,_ZNSt3setItSt4lessItESaItEED2Ev
FNDA:0,_ZNSt3setItSt4lessItESaItEED2Ev
FNF:2
FNH:0
DA:94,0
DA:281,0
DA:281,0
DA:281,232
DA:511,0
DA:520,0
LF:6
LH:1
end_of_record
SF:/usr/share/miniconda/envs/moose/libmesh/include/libmesh/int_range.h
DA:63,0
DA:64,0
LF:2
LH:0
end_of_record
SF:/usr/share/miniconda/envs/moose/libmesh/include/libmesh/ostream_proxy.h
DA:116,0
DA:123,0
LF:2
LH:0
end_of_record
SF:/home/runner/work/raccoon/raccoon/moose/framework/build/header_symlinks/BlockRestrictable.h
FN:91,_ZN17BlockRestrictableD0Ev
FNDA:0,_ZN17BlockRestrictableD0Ev
FN:91,_ZN17BlockRestrictableD2Ev
FNDA:0,_ZN17BlockRestrictableD2Ev
FNF:2
FNH:0
DA:91,0
DA:91,0
LF:2
LH:0
end_of_record
SF:/home/runner/work/raccoon/raccoon/src/materials/large_deformation_models/ComputeLargeDeformationStress.C
FN:13,_ZN29ComputeLargeDeformationStress11validParamsEv
FNDA:134,_ZN29ComputeLargeDeformationStress11validParamsEv
FN:29,_ZN29ComputeLargeDeformationStressC2ERK15InputParameters
FNDA:27,_ZN29ComputeLargeDeformationStressC2ERK15InputParameters
FN:44,_ZN29ComputeLargeDeformationStress12initialSetupEv
FNDA:27,_ZN29ComputeLargeDeformationStress12initialSetupEv
FN:67,_ZN29ComputeLargeDeformationStress24initQpStatefulPropertiesEv
FNDA:12304,_ZN29ComputeLargeDeformationStress24initQpStatefulPropertiesEv
FN:73,_ZN29ComputeLargeDeformationStress19computeQpPropertiesEv
FNDA:156952,_ZN29ComputeLargeDeformationStress19computeQpPropertiesEv
FNF:5
FNH:5
DA:13,134
DA:15,134
DA:16,134
DA:17,134
DA:20,268
DA:22,268
DA:23,268
DA:25,134
DA:26,134
DA:29,27
DA:32,54
DA:33,27
DA:34,27
DA:35,33
DA:37,108
DA:39,54
DA:40,0
DA:41,27
DA:44,27
DA:46,27
DA:47,27
DA:48,27
DA:49,0
DA:50,0
DA:53,27
DA:54,27
DA:55,51
DA:57,27
DA:58,24
DA:60,27
DA:61,30
DA:62,33
DA:64,27
DA:67,12304
DA:69,12304
DA:70,12304
DA:73,156952
DA:75,156952
DA:76,156952
DA:78,156952
DA:80,62224
DA:81,62224
DA:83,156952
LF:43
LH:40
end_of_record
SF:/home/runner/work/raccoon/raccoon/moose/framework/build/header_symlinks/PostprocessorInterface.h
FN:139,_ZNK22PostprocessorInterface32addPostprocessorDependencyHelperERK17PostprocessorName
FNDA:0,_ZNK22PostprocessorInterface32addPostprocessorDependencyHelperERK17PostprocessorName
FNF:1
FNH:0
DA:139,0
LF:1
LH:0
end_of_record
SF:/usr/share/miniconda/envs/moose/x86_64-conda-linux-gnu/include/c++/9.3.0/bits/stl_map.h
FN:490,_ZNSt3mapINSt7__cxx1112basic_stringIcSt11char_traitsIcESaIcEEEN15InputParameters8MetadataESt4lessIS5_ESaISt4pairIKS5_S7_EEEixERSB_
FNDA:0,_ZNSt3mapINSt7__cxx1112basic_stringIcSt11char_traitsIcESaIcEEEN15InputParameters8MetadataESt4lessIS5_ESaISt4pairIKS5_S7_EEEixERSB_
FN:490,_ZNSt3mapINSt7__cxx1112basic_stringIcSt11char_traitsIcESaIcEEEPN7libMesh10Parameters5ValueESt4lessIS5_ESaISt4pairIKS5_S9_EEEixERSD_
FNDA:0,_ZNSt3mapINSt7__cxx1112basic_stringIcSt11char_traitsIcESaIcEEEPN7libMesh10Parameters5ValueESt4lessIS5_ESaISt4pairIKS5_S9_EEEixERSD_
FN:544,_ZNKSt3mapINSt7__cxx1112basic_stringIcSt11char_traitsIcESaIcEEEN15InputParameters8MetadataESt4lessIS5_ESaISt4pairIKS5_S7_EEE2atERSB_
FNDA:0,_ZNKSt3mapINSt7__cxx1112basic_stringIcSt11char_traitsIcESaIcEEEN15InputParameters8MetadataESt4lessIS5_ESaISt4pairIKS5_S7_EEE2atERSB_
FNF:3
FNH:0
DA:100,0
DA:300,232
DA:355,0
DA:364,0
DA:464,0
DA:490,0
DA:497,0
DA:499,0
DA:505,0
DA:490,0
DA:497,0
DA:499,0
DA:505,0
DA:544,0
DA:547,0
DA:548,0
DA:549,0
DA:1037,0
DA:1169,0
DA:1194,0
DA:1215,0
DA:1258,0
DA:1283,0
LF:23
LH:1
end_of_record
SF:/home/runner/work/raccoon/raccoon/src/materials/large_deformation_models/LargeDeformationJ2PowerLawCreep.C
FN:11,_ZN31LargeDeformationJ2PowerLawCreep11validParamsEv
FNDA:106,_ZN31LargeDeformationJ2PowerLawCreep11validParamsEv
FN:24,_ZN31LargeDeformationJ2PowerLawCreepC2ERK15InputParameters
FNDA:6,_ZN31LargeDeformationJ2PowerLawCreepC2ERK15InputParameters
FN:32,_ZN31LargeDeformationJ2PowerLawCreep15computeResidualERKN11MetaPhysicL10DualNumberIdNS0_28SemiDynamicSparseNumberArrayIdmNS0_8NWrapperILm50EEEEELb1EEES8_
FNDA:7368,_ZN31LargeDeformationJ2PowerLawCreep15computeResidualERKN11MetaPhysicL10DualNumberIdNS0_28SemiDynamicSparseNumberArrayIdmNS0_8NWrapperILm50EEEEELb1EEES8_
FN:47,_ZN31LargeDeformationJ2PowerLawCreep17computeDerivativeERKN11MetaPhysicL10DualNumberIdNS0_28SemiDynamicSparseNumberArrayIdmNS0_8NWrapperILm50EEEEELb1EEES8_
FNDA:3944,_ZN31LargeDeformationJ2PowerLawCreep17computeDerivativeERKN11MetaPhysicL10DualNumberIdNS0_28SemiDynamicSparseNumberArrayIdmNS0_8NWrapperILm50EEEEELb1EEES8_
FNF:4
FNH:4
DA:11,106
DA:13,106
DA:14,106
DA:17,212
DA:19,212
DA:21,106
DA:24,6
DA:26,6
DA:27,12
DA:29,6
DA:32,7368
DA:37,14736
DA:38,7368
DA:40,7368
DA:41,14736
DA:42,7368
DA:43,7368
DA:47,3944
DA:52,7888
DA:53,3944
DA:55,3944
DA:56,3944
DA:58,3944
DA:59,7888
DA:61,3944
DA:62,7888
DA:64,3944
DA:65,3944
DA:66,7888
DA:67,7888
DA:68,3944
LF:31
LH:31
end_of_record
SF:/usr/share/miniconda/envs/moose/x86_64-conda-linux-gnu/include/c++/9.3.0/ext/aligned_buffer.h
DA:65,0
DA:69,0
DA:104,216
LF:3
LH:1
end_of_record
SF:/usr/share/miniconda/envs/moose/libmesh/include/libmesh/type_tensor.h
FN:520,_ZN7libMesh10TypeTensorIN11MetaPhysicL10DualNumberIdNS1_28SemiDynamicSparseNumberArrayIdmNS1_8NWrapperILm50EEEEELb1EEEEC2Ev
FNDA:0,_ZN7libMesh10TypeTensorIN11MetaPhysicL10DualNumberIdNS1_28SemiDynamicSparseNumberArrayIdmNS1_8NWrapperILm50EEEEELb1EEEEC2Ev
FN:543,_ZN7libMesh10TypeTensorIN11MetaPhysicL10DualNumberIdNS1_28SemiDynamicSparseNumberArrayIdmNS1_8NWrapperILm50EEEEELb1EEEEC2ERKS7_SA_SA_SA_SA_SA_SA_SA_SA_
FNDA:0,_ZN7libMesh10TypeTensorIN11MetaPhysicL10DualNumberIdNS1_28SemiDynamicSparseNumberArrayIdmNS1_8NWrapperILm50EEEEELb1EEEEC2ERKS7_SA_SA_SA_SA_SA_SA_SA_SA_
FN:638,_ZN7libMesh10TypeTensorIN11MetaPhysicL10DualNumberIdNS1_28SemiDynamicSparseNumberArrayIdmNS1_8NWrapperILm50EEEEELb1EEEEC2IdEERKNS0_IT_EE
FNDA:0,_ZN7libMesh10TypeTensorIN11MetaPhysicL10DualNumberIdNS1_28SemiDynamicSparseNumberArrayIdmNS1_8NWrapperILm50EEEEELb1EEEEC2IdEERKNS0_IT_EE
FN:789,_ZNK7libMesh10TypeTensorIN11MetaPhysicL10DualNumberIdNS1_28SemiDynamicSparseNumberArrayIdmNS1_8NWrapperILm50EEEEELb1EEEEplIS7_EENS0_INS_12CompareTypesIS7_T_E9supertypeEEERKNS0_ISB_EE
FNDA:0,_ZNK7libMesh10TypeTensorIN11MetaPhysicL10DualNumberIdNS1_28SemiDynamicSparseNumberArrayIdmNS1_8NWrapperILm50EEEEELb1EEEEplIS7_EENS0_INS_12CompareTypesIS7_T_E9supertypeEEERKNS0_ISB_EE
FN:859,_ZNK7libMesh10TypeTensorIN11MetaPhysicL10DualNumberIdNS1_28SemiDynamicSparseNumberArrayIdmNS1_8NWrapperILm50EEEEELb1EEEEmiIdEENS0_INS_12CompareTypesIS7_T_E9supertypeEEERKNS0_ISB_EE
FNDA:62224,_ZNK7libMesh10TypeTensorIN11MetaPhysicL10DualNumberIdNS1_28SemiDynamicSparseNumberArrayIdmNS1_8NWrapperILm50EEEEELb1EEEEmiIdEENS0_INS_12CompareTypesIS7_T_E9supertypeEEERKNS0_ISB_EE
FN:859,_ZNK7libMesh10TypeTensorIN11MetaPhysicL10DualNumberIdNS1_28SemiDynamicSparseNumberArrayIdmNS1_8NWrapperILm50EEEEELb1EEEEmiIS7_EENS0_INS_12CompareTypesIS7_T_E9supertypeEEERKNS0_ISB_EE
FNDA:0,_ZNK7libMesh10TypeTensorIN11MetaPhysicL10DualNumberIdNS1_28SemiDynamicSparseNumberArrayIdmNS1_8NWrapperILm50EEEEELb1EEEEmiIS7_EENS0_INS_12CompareTypesIS7_T_E9supertypeEEERKNS0_ISB_EE
FN:960,_ZNK7libMesh10TypeTensorIN11MetaPhysicL10DualNumberIdNS1_28SemiDynamicSparseNumberArrayIdmNS1_8NWrapperILm50EEEEELb1EEEEmlIdEENS_9boostcopy11enable_if_cIXsrNS_12ScalarTraitsIT_EE5valueENS0_IDTmlcvS7__Efp_EEEE4typeERKSD_
FNDA:609864,_ZNK7libMesh10TypeTensorIN11MetaPhysicL10DualNumberIdNS1_28SemiDynamicSparseNumberArrayIdmNS1_8NWrapperILm50EEEEELb1EEEEmlIdEENS_9boostcopy11enable_if_cIXsrNS_12ScalarTraitsIT_EE5valueENS0_IDTmlcvS7__Efp_EEEE4typeERKSD_
FN:960,_ZNK7libMesh10TypeTensorIN11MetaPhysicL10DualNumberIdNS1_28SemiDynamicSparseNumberArrayIdmNS1_8NWrapperILm50EEEEELb1EEEEmlIS7_EENS_9boostcopy11enable_if_cIXsrNS_12ScalarTraitsIT_EE5valueENS0_IDTmlcvS7__Efp_EEEE4typeERKSD_
FNDA:0,_ZNK7libMesh10TypeTensorIN11MetaPhysicL10DualNumberIdNS1_28SemiDynamicSparseNumberArrayIdmNS1_8NWrapperILm50EEEEELb1EEEEmlIS7_EENS_9boostcopy11enable_if_cIXsrNS_12ScalarTraitsIT_EE5valueENS0_IDTmlcvS7__Efp_EEEE4typeERKSD_
FN:1010,_ZNK7libMesh10TypeTensorIN11MetaPhysicL10DualNumberIdNS1_28SemiDynamicSparseNumberArrayIdmNS1_8NWrapperILm50EEEEELb1EEEEdvIiEENS_9boostcopy11enable_if_cIXsrNS_12ScalarTraitsIT_EE5valueENS0_INS_12CompareTypesIS7_SD_E9supertypeEEEE4typeERKSD_
FNDA:62224,_ZNK7libMesh10TypeTensorIN11MetaPhysicL10DualNumberIdNS1_28SemiDynamicSparseNumberArrayIdmNS1_8NWrapperILm50EEEEELb1EEEEdvIiEENS_9boostcopy11enable_if_cIXsrNS_12ScalarTraitsIT_EE5valueENS0_INS_12CompareTypesIS7_SD_E9supertypeEEEE4typeERKSD_
FN:1010,_ZNK7libMesh10TypeTensorIN11MetaPhysicL10DualNumberIdNS1_28SemiDynamicSparseNumberArrayIdmNS1_8NWrapperILm50EEEEELb1EEEEdvIdEENS_9boostcopy11enable_if_cIXsrNS_12ScalarTraitsIT_EE5valueENS0_INS_12CompareTypesIS7_SD_E9supertypeEEEE4typeERKSD_
FNDA:62224,_ZNK7libMesh10TypeTensorIN11MetaPhysicL10DualNumberIdNS1_28SemiDynamicSparseNumberArrayIdmNS1_8NWrapperILm50EEEEELb1EEEEdvIdEENS_9boostcopy11enable_if_cIXsrNS_12ScalarTraitsIT_EE5valueENS0_INS_12CompareTypesIS7_SD_E9supertypeEEEE4typeERKSD_
FN:1010,_ZNK7libMesh10TypeTensorIN11MetaPhysicL10DualNumberIdNS1_28SemiDynamicSparseNumberArrayIdmNS1_8NWrapperILm50EEEEELb1EEEEdvIS7_EENS_9boostcopy11enable_if_cIXsrNS_12ScalarTraitsIT_EE5valueENS0_INS_12CompareTypesIS7_SD_E9supertypeEEEE4typeERKSD_
FNDA:270704,_ZNK7libMesh10TypeTensorIN11MetaPhysicL10DualNumberIdNS1_28SemiDynamicSparseNumberArrayIdmNS1_8NWrapperILm50EEEEELb1EEEEdvIS7_EENS_9boostcopy11enable_if_cIXsrNS_12ScalarTraitsIT_EE5valueENS0_INS_12CompareTypesIS7_SD_E9supertypeEEEE4typeERKSD_
FN:1228,_ZNK7libMesh10TypeTensorIN11MetaPhysicL10DualNumberIdNS1_28SemiDynamicSparseNumberArrayIdmNS1_8NWrapperILm50EEEEELb1EEEEmlIdEENS0_INS_12CompareTypesIS7_T_E9supertypeEEERKNS0_ISB_EE
FNDA:227504,_ZNK7libMesh10TypeTensorIN11MetaPhysicL10DualNumberIdNS1_28SemiDynamicSparseNumberArrayIdmNS1_8NWrapperILm50EEEEELb1EEEEmlIdEENS0_INS_12CompareTypesIS7_T_E9supertypeEEERKNS0_ISB_EE
FN:1228,_ZNK7libMesh10TypeTensorIN11MetaPhysicL10DualNumberIdNS1_28SemiDynamicSparseNumberArrayIdmNS1_8NWrapperILm50EEEEELb1EEEEmlIS7_EENS0_INS_12CompareTypesIS7_T_E9supertypeEEERKNS0_ISB_EE
FNDA:95885500,_ZNK7libMesh10TypeTensorIN11MetaPhysicL10DualNumberIdNS1_28SemiDynamicSparseNumberArrayIdmNS1_8NWrapperILm50EEEEELb1EEEEmlIS7_EENS0_INS_12CompareTypesIS7_T_E9supertypeEEERKNS0_ISB_EE
FN:1293,_ZNK7libMesh10TypeTensorIN11MetaPhysicL10DualNumberIdNS1_28SemiDynamicSparseNumberArrayIdmNS1_8NWrapperILm50EEEEELb1EEEE3detEv
FNDA:0,_ZNK7libMesh10TypeTensorIN11MetaPhysicL10DualNumberIdNS1_28SemiDynamicSparseNumberArrayIdmNS1_8NWrapperILm50EEEEELb1EEEE3detEv
FNF:14
FNH:7
DA:68,1015210000
DA:520,0
DA:522,0
DA:525,0
DA:526,0
DA:527,0
DA:531,0
DA:532,0
DA:533,0
DA:534,0
DA:535,0
DA:537,0
DA:543,0
DA:551,0
DA:553,0
DA:567,0
DA:568,0
DA:569,0
DA:570,0
DA:571,0
DA:572,0
DA:573,0
DA:574,0
DA:583,0
DA:638,0
DA:641,0
DA:642,0
DA:643,0
DA:728,0
DA:748,2595050000
DA:789,0
DA:805,0
DA:806,0
DA:807,0
DA:808,0
DA:809,0
DA:810,0
DA:811,0
DA:812,0
DA:813,0
DA:859,62224
DA:875,62224
DA:876,62224
DA:877,62224
DA:878,62224
DA:879,62224
DA:880,62224
DA:881,62224
DA:882,62224
DA:883,124448
DA:859,0
DA:875,0
DA:876,0
DA:877,0
DA:878,0
DA:879,0
DA:880,0
DA:881,0
DA:882,0
DA:883,0
DA:960,609864
DA:979,609864
DA:980,609864
DA:981,609864
DA:982,609864
DA:983,609864
DA:984,609864
DA:985,609864
DA:986,609864
DA:987,609864
DA:960,0
DA:979,0
DA:980,0
DA:981,0
DA:982,0
DA:983,0
DA:984,0
DA:985,0
DA:986,0
DA:987,0
DA:1001,1911820
DA:1010,62224
DA:1028,62224
DA:1029,62224
DA:1030,62224
DA:1031,62224
DA:1032,62224
DA:1033,62224
DA:1034,62224
DA:1035,62224
DA:1036,62224
DA:1010,62224
DA:1028,62224
DA:1029,62224
DA:1030,62224
DA:1031,62224
DA:1032,62224
DA:1033,62224
DA:1034,62224
DA:1035,62224
DA:1036,62224
DA:1010,270704
DA:1028,270704
DA:1029,270704
DA:1030,270704
DA:1031,270704
DA:1032,270704
DA:1033,270704
DA:1034,270704
DA:1035,270704
DA:1036,270704
DA:1228,227504
DA:1230,227504
DA:1231,910016
DA:1232,2730050
DA:1233,8190140
DA:1234,12285200
DA:1236,227504
DA:1228,95885500
DA:1230,95885500
DA:1231,383542000
DA:1232,1150630000
DA:1233,3451880000
DA:1234,5177810000
DA:1236,95885500
DA:1293,0
DA:1308,0
DA:1309,0
DA:1310,0
DA:1335,123040
DA:1336,110736
LF:131
LH:69
end_of_record
SF:/usr/share/miniconda/envs/moose/x86_64-conda-linux-gnu/include/c++/9.3.0/iostream
LF:0
LH:0
end_of_record
SF:/home/runner/work/raccoon/raccoon/moose/framework/build/header_symlinks/MooseArray.h
FN:212,_ZN10MooseArrayIN11MetaPhysicL10DualNumberIdNS0_28SemiDynamicSparseNumberArrayIdmNS0_8NWrapperILm50EEEEELb1EEEE6resizeILb1EEEvj
FNDA:0,_ZN10MooseArrayIN11MetaPhysicL10DualNumberIdNS0_28SemiDynamicSparseNumberArrayIdmNS0_8NWrapperILm50EEEEELb1EEEE6resizeILb1EEEvj
FN:212,_ZN10MooseArrayI18RankTwoTensorTemplIN11MetaPhysicL10DualNumberIdNS1_28SemiDynamicSparseNumberArrayIdmNS1_8NWrapperILm50EEEEELb1EEEEE6resizeILb1EEEvj
FNDA:0,_ZN10MooseArrayI18RankTwoTensorTemplIN11MetaPhysicL10DualNumberIdNS1_28SemiDynamicSparseNumberArrayIdmNS1_8NWrapperILm50EEEEELb1EEEEE6resizeILb1EEEvj
FN:212,_ZN10MooseArrayI18RankTwoTensorTemplIdEE6resizeILb1EEEvj
FNDA:0,_ZN10MooseArrayI18RankTwoTensorTemplIdEE6resizeILb1EEEvj
FN:212,_ZN10MooseArrayIdE6resizeILb1EEEvj
FNDA:0,_ZN10MooseArrayIdE6resizeILb1EEEvj
FN:212,_ZN10MooseArrayIN7libMesh11VectorValueIdEEE6resizeILb1EEEvj
FNDA:0,_ZN10MooseArrayIN7libMesh11VectorValueIdEEE6resizeILb1EEEvj
FN:212,_ZN10MooseArrayIN7libMesh11VectorValueIN11MetaPhysicL10DualNumberIdNS2_28SemiDynamicSparseNumberArrayIdmNS2_8NWrapperILm50EEEEELb1EEEEEE6resizeILb1EEEvj
FNDA:0,_ZN10MooseArrayIN7libMesh11VectorValueIN11MetaPhysicL10DualNumberIdNS2_28SemiDynamicSparseNumberArrayIdmNS2_8NWrapperILm50EEEEELb1EEEEEE6resizeILb1EEEvj
FNF:6
FNH:0
DA:24,0
DA:54,0
DA:212,0
DA:214,0
DA:215,0
DA:219,0
DA:224,0
DA:225,0
DA:226,0
DA:228,0
DA:212,0
DA:214,0
DA:215,0
DA:219,0
DA:224,0
DA:225,0
DA:226,0
DA:228,0
DA:212,0
DA:214,0
DA:215,0
DA:219,0
DA:224,0
DA:225,0
DA:226,0
DA:228,0
DA:212,0
DA:214,0
DA:215,0
DA:219,0
DA:224,0
DA:225,0
DA:226,0
DA:228,0
DA:212,0
DA:214,0
DA:215,0
DA:219,0
DA:224,0
DA:225,0
DA:226,0
DA:228,0
DA:212,0
DA:214,0
DA:215,0
DA:219,0
DA:224,0
DA:225,0
DA:226,0
DA:228,0
DA:268,3025440
DA:278,2917320
LF:52
LH:2
end_of_record
SF:/home/runner/work/raccoon/raccoon/build/header_symlinks/CNHIsotropicElasticity.h
LF:0
LH:0
end_of_record
SF:/usr/share/miniconda/envs/moose/x86_64-conda-linux-gnu/include/c++/9.3.0/bits/stl_algobase.h
DA:227,504
DA:228,321
DA:340,0
DA:343,0
DA:344,0
DA:384,4101040000
DA:385,4101040000
DA:386,429940000
DA:387,0
DA:586,0
DA:587,0
DA:588,0
DA:713,0
DA:714,0
DA:770,0
DA:771,27
DA:772,0
LF:17
LH:6
end_of_record
SF:/usr/share/miniconda/envs/moose/x86_64-conda-linux-gnu/include/c++/9.3.0/bits/alloc_traits.h
DA:470,207
LF:1
LH:1
end_of_record
SF:/usr/share/miniconda/envs/moose/libmesh/include/metaphysicl/semidynamicsparsenumberarray.h
DA:84,7456
DA:85,0
LF:2
LH:1
end_of_record
SF:/usr/share/miniconda/envs/moose/x86_64-conda-linux-gnu/include/c++/9.3.0/tuple
FN:1670,_ZNSt4pairIKNSt7__cxx1112basic_stringIcSt11char_traitsIcESaIcEEEN15InputParameters8MetadataEEC2IJRS6_EJLm0EEJEJEEERSt5tupleIJDpT_EERSC_IJDpT1_EESt12_Index_tupleIJXspT0_EEESL_IJXspT2_EEE
FNDA:0,_ZNSt4pairIKNSt7__cxx1112basic_stringIcSt11char_traitsIcESaIcEEEN15InputParameters8MetadataEEC2IJRS6_EJLm0EEJEJEEERSt5tupleIJDpT_EERSC_IJDpT1_EESt12_Index_tupleIJXspT0_EEESL_IJXspT2_EEE
FNF:1
FNH:0
DA:122,0
DA:123,0
DA:125,0
DA:126,0
DA:334,0
DA:523,0
DA:1658,0
DA:1663,0
DA:1670,0
DA:1674,0
DA:1675,0
LF:11
LH:0
end_of_record
SF:/usr/share/miniconda/envs/moose/x86_64-conda-linux-gnu/include/c++/9.3.0/bits/basic_string.h
FN:525,_ZNSt7__cxx1112basic_stringIcSt11char_traitsIcESaIcEEC2IS3_EEPKcRKS3_
FNDA:10882,_ZNSt7__cxx1112basic_stringIcSt11char_traitsIcESaIcEEC2IS3_EEPKcRKS3_
FN:6020,_ZStplIcSt11char_traitsIcESaIcEENSt7__cxx1112basic_stringIT_T0_T1_EERKS8_SA_
FNDA:0,_ZStplIcSt11char_traitsIcESaIcEENSt7__cxx1112basic_stringIT_T0_T1_EERKS8_SA_
FN:6057,_ZStplIcSt11char_traitsIcESaIcEENSt7__cxx1112basic_stringIT_T0_T1_EERKS8_PKS5_
FNDA:27,_ZStplIcSt11char_traitsIcESaIcEENSt7__cxx1112basic_stringIT_T0_T1_EERKS8_PKS5_
FN:6085,_ZStplIcSt11char_traitsIcESaIcEENSt7__cxx1112basic_stringIT_T0_T1_EEOS8_RKS8_
FNDA:0,_ZStplIcSt11char_traitsIcESaIcEENSt7__cxx1112basic_stringIT_T0_T1_EEOS8_RKS8_
FN:6097,_ZStplIcSt11char_traitsIcESaIcEENSt7__cxx1112basic_stringIT_T0_T1_EEOS8_S9_
FNDA:0,_ZStplIcSt11char_traitsIcESaIcEENSt7__cxx1112basic_stringIT_T0_T1_EEOS8_S9_
FN:6121,_ZStplIcSt11char_traitsIcESaIcEENSt7__cxx1112basic_stringIT_T0_T1_EEOS8_PKS5_
FNDA:0,_ZStplIcSt11char_traitsIcESaIcEENSt7__cxx1112basic_stringIT_T0_T1_EEOS8_PKS5_
FNF:6
FNH:2
DA:156,10882
DA:157,10882
DA:159,81
DA:160,108
DA:179,0
DA:183,108
DA:193,0
DA:203,78
DA:211,0
DA:217,108
DA:222,9786
DA:231,8071
DA:237,6277
DA:247,10882
DA:348,108
DA:349,81
DA:431,0
DA:448,81
DA:451,81
DA:525,10882
DA:527,10882
DA:552,0
DA:555,0
DA:563,0
DA:569,0
DA:658,105
DA:995,0
DA:1032,0
DA:1070,0
DA:1178,0
DA:1222,0
DA:1366,727657
DA:1641,0
DA:2313,0
DA:2396,0
DA:6020,0
DA:6025,0
DA:6057,27
DA:6061,27
DA:6062,27
DA:6085,0
DA:6087,0
DA:6097,0
DA:6100,0
DA:6102,0
DA:6104,0
DA:6121,0
DA:6123,0
DA:6229,0
DA:6421,0
LF:50
LH:22
end_of_record
SF:/usr/share/miniconda/envs/moose/libmesh/include/timpi/message_tag.h
LF:0
LH:0
end_of_record
SF:/usr/share/miniconda/envs/moose/libmesh/include/metaphysicl/dualnumber.h
FN:73,_ZNK11MetaPhysicL10DualNumberIdNS_28SemiDynamicSparseNumberArrayIdmNS_8NWrapperILm50EEEEELb1EEngEv
FNDA:4635,_ZNK11MetaPhysicL10DualNumberIdNS_28SemiDynamicSparseNumberArrayIdmNS_8NWrapperILm50EEEEELb1EEngEv
FN:97,_ZN11MetaPhysicL10DualNumberIdNS_28SemiDynamicSparseNumberArrayIdmNS_8NWrapperILm50EEEEELb1EEaSERKS5_
FNDA:0,_ZN11MetaPhysicL10DualNumberIdNS_28SemiDynamicSparseNumberArrayIdmNS_8NWrapperILm50EEEEELb1EEaSERKS5_
FN:136,_ZN11MetaPhysicL10DualNumberIdNS_28SemiDynamicSparseNumberArrayIdmNS_8NWrapperILm50EEEEELb1EEC2ERKS5_
FNDA:3493270000,_ZN11MetaPhysicL10DualNumberIdNS_28SemiDynamicSparseNumberArrayIdmNS_8NWrapperILm50EEEEELb1EEC2ERKS5_
FN:214,_ZN11MetaPhysicL10DualNumberIdNS_28SemiDynamicSparseNumberArrayIdmNS_8NWrapperILm50EEEEELb1EEC2IdEERKT_NSt9enable_ifIXsrSt14is_convertibleIS7_dE5valueEPvE4typeE
FNDA:1382,_ZN11MetaPhysicL10DualNumberIdNS_28SemiDynamicSparseNumberArrayIdmNS_8NWrapperILm50EEEEELb1EEC2IdEERKT_NSt9enable_ifIXsrSt14is_convertibleIS7_dE5valueEPvE4typeE
FN:214,_ZN11MetaPhysicL10DualNumberIdNS_28SemiDynamicSparseNumberArrayIdmNS_8NWrapperILm50EEEEELb1EEC2IiEERKT_NSt9enable_ifIXsrSt14is_convertibleIS7_dE5valueEPvE4typeE
FNDA:1236580,_ZN11MetaPhysicL10DualNumberIdNS_28SemiDynamicSparseNumberArrayIdmNS_8NWrapperILm50EEEEELb1EEC2IiEERKT_NSt9enable_ifIXsrSt14is_convertibleIS7_dE5valueEPvE4typeE
FN:224,_ZN11MetaPhysicL10DualNumberIdNS_28SemiDynamicSparseNumberArrayIdmNS_8NWrapperILm50EEEEELb1EEC2IdS4_EERKT_RKT0_
FNDA:12091,_ZN11MetaPhysicL10DualNumberIdNS_28SemiDynamicSparseNumberArrayIdmNS_8NWrapperILm50EEEEELb1EEC2IdS4_EERKT_RKT0_
FN:259,_ZN11MetaPhysicL26derivative_multiply_helperIdNS_28SemiDynamicSparseNumberArrayIdmNS_8NWrapperILm50EEEEELb1EEEvRNS_10DualNumberIT_T0_XT1_EEERKS8_
FNDA:1519870000,_ZN11MetaPhysicL26derivative_multiply_helperIdNS_28SemiDynamicSparseNumberArrayIdmNS_8NWrapperILm50EEEEELb1EEEvRNS_10DualNumberIT_T0_XT1_EEERKS8_
FN:310,_ZN11MetaPhysicL26derivative_division_helperIdNS_28SemiDynamicSparseNumberArrayIdmNS_8NWrapperILm50EEEEELb1EEEvRNS_10DualNumberIT_T0_XT1_EEERKS8_
FNDA:0,_ZN11MetaPhysicL26derivative_division_helperIdNS_28SemiDynamicSparseNumberArrayIdmNS_8NWrapperILm50EEEEELb1EEEvRNS_10DualNumberIT_T0_XT1_EEERKS8_
FN:464,_ZN11MetaPhysicLplIddNS_28SemiDynamicSparseNumberArrayIdmNS_8NWrapperILm50EEEEELb1EEENS_8PlusTypeINS_10DualNumberIT0_T1_XT2_EEET_Lb1EvE9supertypeERKSA_RKS9_
FNDA:1382,_ZN11MetaPhysicLplIddNS_28SemiDynamicSparseNumberArrayIdmNS_8NWrapperILm50EEEEELb1EEENS_8PlusTypeINS_10DualNumberIT0_T1_XT2_EEET_Lb1EvE9supertypeERKSA_RKS9_
FN:464,_ZN11MetaPhysicLplIdNS_28SemiDynamicSparseNumberArrayIdmNS_8NWrapperILm50EEEEEdS4_Lb1EEENS_8PlusTypeINS_10DualNumberIT_T0_XT3_EEENS6_IT1_T2_XT3_EEELb0EvE9supertypeEOS9_RKSC_
FNDA:0,_ZN11MetaPhysicLplIdNS_28SemiDynamicSparseNumberArrayIdmNS_8NWrapperILm50EEEEEdS4_Lb1EEENS_8PlusTypeINS_10DualNumberIT_T0_XT3_EEENS6_IT1_T2_XT3_EEELb0EvE9supertypeEOS9_RKSC_
FN:464,_ZN11MetaPhysicLplIdNS_28SemiDynamicSparseNumberArrayIdmNS_8NWrapperILm50EEEEEdS4_Lb1EEENS_8PlusTypeINS_10DualNumberIT_T0_XT3_EEENS6_IT1_T2_XT3_EEELb0EvE9supertypeERKS9_RKSC_
FNDA:2096,_ZN11MetaPhysicLplIdNS_28SemiDynamicSparseNumberArrayIdmNS_8NWrapperILm50EEEEEdS4_Lb1EEENS_8PlusTypeINS_10DualNumberIT_T0_XT3_EEENS6_IT1_T2_XT3_EEELb0EvE9supertypeERKS9_RKSC_
FN:466,_ZN11MetaPhysicLmiIdNS_28SemiDynamicSparseNumberArrayIdmNS_8NWrapperILm50EEEEEdS4_Lb1EEENS_9MinusTypeINS_10DualNumberIT_T0_XT3_EEENS6_IT1_T2_XT3_EEELb0EvE9supertypeERKS9_RKSC_
FNDA:0,_ZN11MetaPhysicLmiIdNS_28SemiDynamicSparseNumberArrayIdmNS_8NWrapperILm50EEEEEdS4_Lb1EEENS_9MinusTypeINS_10DualNumberIT_T0_XT3_EEENS6_IT1_T2_XT3_EEELb0EvE9supertypeERKS9_RKSC_
FN:466,_ZN11MetaPhysicLmiIdNS_28SemiDynamicSparseNumberArrayIdmNS_8NWrapperILm50EEEEEdS4_Lb1EEENS_9MinusTypeINS_10DualNumberIT_T0_XT3_EEENS6_IT1_T2_XT3_EEELb0EvE9supertypeEOS9_RKSC_
FNDA:241206,_ZN11MetaPhysicLmiIdNS_28SemiDynamicSparseNumberArrayIdmNS_8NWrapperILm50EEEEEdS4_Lb1EEENS_9MinusTypeINS_10DualNumberIT_T0_XT3_EEENS6_IT1_T2_XT3_EEELb0EvE9supertypeEOS9_RKSC_
FN:468,_ZN11MetaPhysicLmlIdNS_28SemiDynamicSparseNumberArrayIdmNS_8NWrapperILm50EEEEEdLb1EEENS_14MultipliesTypeINS_10DualNumberIT_T0_XT2_EEET1_Lb0EvE9supertypeERKS9_RKSA_
FNDA:11638800,_ZN11MetaPhysicLmlIdNS_28SemiDynamicSparseNumberArrayIdmNS_8NWrapperILm50EEEEEdLb1EEENS_14MultipliesTypeINS_10DualNumberIT_T0_XT2_EEET1_Lb0EvE9supertypeERKS9_RKSA_
FN:468,_ZN11MetaPhysicLmlIddNS_28SemiDynamicSparseNumberArrayIdmNS_8NWrapperILm50EEEEELb1EEENS_14MultipliesTypeINS_10DualNumberIT0_T1_XT2_EEET_Lb1EvE9supertypeERKSA_RKS9_
FNDA:0,_ZN11MetaPhysicLmlIddNS_28SemiDynamicSparseNumberArrayIdmNS_8NWrapperILm50EEEEELb1EEENS_14MultipliesTypeINS_10DualNumberIT0_T1_XT2_EEET_Lb1EvE9supertypeERKSA_RKS9_
FN:468,_ZN11MetaPhysicLmlIidNS_28SemiDynamicSparseNumberArrayIdmNS_8NWrapperILm50EEEEELb1EEENS_14MultipliesTypeINS_10DualNumberIT0_T1_XT2_EEET_Lb1EvE9supertypeERKSA_RKS9_
FNDA:403539,_ZN11MetaPhysicLmlIidNS_28SemiDynamicSparseNumberArrayIdmNS_8NWrapperILm50EEEEELb1EEENS_14MultipliesTypeINS_10DualNumberIT0_T1_XT2_EEET_Lb1EvE9supertypeERKSA_RKS9_
FN:468,_ZN11MetaPhysicLmlIdNS_28SemiDynamicSparseNumberArrayIdmNS_8NWrapperILm50EEEEEdLb1EEENS_14MultipliesTypeINS_10DualNumberIT_T0_XT2_EEET1_Lb0EvE9supertypeEOS9_RKSA_
FNDA:3944,_ZN11MetaPhysicLmlIdNS_28SemiDynamicSparseNumberArrayIdmNS_8NWrapperILm50EEEEEdLb1EEENS_14MultipliesTypeINS_10DualNumberIT_T0_XT2_EEET1_Lb0EvE9supertypeEOS9_RKSA_
FN:468,_ZN11MetaPhysicLmlIdNS_28SemiDynamicSparseNumberArrayIdmNS_8NWrapperILm50EEEEEdS4_Lb1EEENS_14MultipliesTypeINS_10DualNumberIT_T0_XT3_EEENS6_IT1_T2_XT3_EEELb0EvE9supertypeERKS9_RKSC_
FNDA:2588910000,_ZN11MetaPhysicLmlIdNS_28SemiDynamicSparseNumberArrayIdmNS_8NWrapperILm50EEEEEdS4_Lb1EEENS_14MultipliesTypeINS_10DualNumberIT_T0_XT3_EEENS6_IT1_T2_XT3_EEELb0EvE9supertypeERKS9_RKSC_
FN:468,_ZN11MetaPhysicLmlIdNS_28SemiDynamicSparseNumberArrayIdmNS_8NWrapperILm50EEEEEdS4_Lb1EEENS_14MultipliesTypeINS_10DualNumberIT_T0_XT3_EEENS6_IT1_T2_XT3_EEELb0EvE9supertypeEOS9_RKSC_
FNDA:0,_ZN11MetaPhysicLmlIdNS_28SemiDynamicSparseNumberArrayIdmNS_8NWrapperILm50EEEEEdS4_Lb1EEENS_14MultipliesTypeINS_10DualNumberIT_T0_XT3_EEENS6_IT1_T2_XT3_EEELb0EvE9supertypeEOS9_RKSC_
FN:473,_ZN11MetaPhysicLdvIdNS_28SemiDynamicSparseNumberArrayIdmNS_8NWrapperILm50EEEEEiLb1EEENS_11DividesTypeINS_10DualNumberIT_T0_XT2_EEET1_Lb0EvE9supertypeERKS9_RKSA_
FNDA:560016,_ZN11MetaPhysicLdvIdNS_28SemiDynamicSparseNumberArrayIdmNS_8NWrapperILm50EEEEEiLb1EEENS_11DividesTypeINS_10DualNumberIT_T0_XT2_EEET1_Lb0EvE9supertypeERKS9_RKSA_
FN:473,_ZN11MetaPhysicLdvIdNS_28SemiDynamicSparseNumberArrayIdmNS_8NWrapperILm50EEEEEdS4_Lb1EEENS_11DividesTypeINS_10DualNumberIT_T0_XT3_EEENS6_IT1_T2_XT3_EEELb0EvE9supertypeERKS9_RKSC_
FNDA:2436340,_ZN11MetaPhysicLdvIdNS_28SemiDynamicSparseNumberArrayIdmNS_8NWrapperILm50EEEEEdS4_Lb1EEENS_11DividesTypeINS_10DualNumberIT_T0_XT3_EEENS6_IT1_T2_XT3_EEELb0EvE9supertypeERKS9_RKSC_
FN:473,_ZN11MetaPhysicLdvIdNS_28SemiDynamicSparseNumberArrayIdmNS_8NWrapperILm50EEEEEdLb1EEENS_11DividesTypeINS_10DualNumberIT_T0_XT2_EEET1_Lb0EvE9supertypeERKS9_RKSA_
FNDA:560016,_ZN11MetaPhysicLdvIdNS_28SemiDynamicSparseNumberArrayIdmNS_8NWrapperILm50EEEEEdLb1EEENS_11DividesTypeINS_10DualNumberIT_T0_XT2_EEET1_Lb0EvE9supertypeERKS9_RKSA_
FN:473,_ZN11MetaPhysicLdvIdNS_28SemiDynamicSparseNumberArrayIdmNS_8NWrapperILm50EEEEEdS4_Lb1EEENS_11DividesTypeINS_10DualNumberIT_T0_XT3_EEENS6_IT1_T2_XT3_EEELb0EvE9supertypeEOS9_RKSC_
FNDA:121640,_ZN11MetaPhysicLdvIdNS_28SemiDynamicSparseNumberArrayIdmNS_8NWrapperILm50EEEEEdS4_Lb1EEENS_11DividesTypeINS_10DualNumberIT_T0_XT3_EEENS6_IT1_T2_XT3_EEELb0EvE9supertypeEOS9_RKSC_
FN:473,_ZN11MetaPhysicLdvIdNS_28SemiDynamicSparseNumberArrayIdmNS_8NWrapperILm50EEEEEiLb1EEENS_11DividesTypeINS_10DualNumberIT_T0_XT2_EEET1_Lb0EvE9supertypeEOS9_RKSA_
FNDA:0,_ZN11MetaPhysicLdvIdNS_28SemiDynamicSparseNumberArrayIdmNS_8NWrapperILm50EEEEEiLb1EEENS_11DividesTypeINS_10DualNumberIT_T0_XT2_EEET1_Lb0EvE9supertypeEOS9_RKSA_
FN:473,_ZN11MetaPhysicLdvIdNS_28SemiDynamicSparseNumberArrayIdmNS_8NWrapperILm50EEEEEdLb1EEENS_11DividesTypeINS_10DualNumberIT_T0_XT2_EEET1_Lb0EvE9supertypeEOS9_RKSA_
FNDA:227504,_ZN11MetaPhysicLdvIdNS_28SemiDynamicSparseNumberArrayIdmNS_8NWrapperILm50EEEEEdLb1EEENS_11DividesTypeINS_10DualNumberIT_T0_XT2_EEET1_Lb0EvE9supertypeEOS9_RKSA_
FN:627,_ZSt4sqrtIdN11MetaPhysicL28SemiDynamicSparseNumberArrayIdmNS0_8NWrapperILm50EEEEELb1EENS0_10DualNumberIT_T0_XT1_EEEOS8_
FNDA:116896,_ZSt4sqrtIdN11MetaPhysicL28SemiDynamicSparseNumberArrayIdmNS0_8NWrapperILm50EEEEELb1EENS0_10DualNumberIT_T0_XT1_EEEOS8_
FN:629,_ZSt3logIdN11MetaPhysicL28SemiDynamicSparseNumberArrayIdmNS0_8NWrapperILm50EEEEELb1EENS0_10DualNumberIT_T0_XT1_EEERKS8_
FNDA:2096,_ZSt3logIdN11MetaPhysicL28SemiDynamicSparseNumberArrayIdmNS0_8NWrapperILm50EEEEELb1EENS0_10DualNumberIT_T0_XT1_EEERKS8_
FN:662,_ZSt4cbrtIdN11MetaPhysicL28SemiDynamicSparseNumberArrayIdmNS0_8NWrapperILm50EEEEELb1EENS0_10DualNumberIT_T0_XT1_EEEOS8_
FNDA:113752,_ZSt4cbrtIdN11MetaPhysicL28SemiDynamicSparseNumberArrayIdmNS0_8NWrapperILm50EEEEELb1EENS0_10DualNumberIT_T0_XT1_EEEOS8_
FN:848,_ZSt3powIdN11MetaPhysicL28SemiDynamicSparseNumberArrayIdmNS0_8NWrapperILm50EEEEELb1EENS0_10DualNumberIT_T0_XT1_EEERKS8_SA_
FNDA:13408,_ZSt3powIdN11MetaPhysicL28SemiDynamicSparseNumberArrayIdmNS0_8NWrapperILm50EEEEELb1EENS0_10DualNumberIT_T0_XT1_EEERKS8_SA_
FNF:29
FNH:22
DA:63,131036
DA:73,9270
DA:97,0
DA:99,0
DA:101,0
DA:104,0
DA:112,1153370
DA:114,1153370
DA:136,3493270000
DA:137,3493270000
DA:139,3493270000
DA:141,3493270000
DA:146,11280
DA:148,836222
DA:214,1236580
DA:215,1236580
DA:217,1236580
DA:218,694980
DA:219,1236580
DA:214,1382
DA:215,1382
DA:217,1382
DA:218,650
DA:219,1382
DA:214,412078
DA:215,412078
DA:217,412078
DA:218,220150
DA:224,12091
DA:226,18043
DA:228,12091
DA:229,10077
DA:230,12091
DA:259,1519870000
DA:262,1519870000
DA:265,1519870000
DA:266,0
DA:269,1519870000
DA:270,1519870000
DA:310,0
DA:313,0
DA:316,0
DA:317,0
DA:318,0
DA:321,0
DA:322,0
DA:464,1382
DA:464,0
DA:464,2096
DA:464,2595160000
DA:466,0
DA:466,370776
DA:466,73504
DA:468,6240
DA:468,11638800
DA:468,403539
DA:468,0
DA:468,2588910000
DA:468,0
DA:473,560016
DA:473,2436340
DA:473,349936
DA:473,0
DA:473,187448
DA:473,560016
DA:510,113752
DA:627,179336
DA:629,2096
DA:662,174968
DA:848,35776
LF:70
LH:53
end_of_record
SF:/home/runner/work/raccoon/raccoon/moose/framework/build/header_symlinks/MooseVariableDependencyInterface.h
LF:0
LH:0
end_of_record
SF:/usr/share/miniconda/envs/moose/x86_64-conda-linux-gnu/include/c++/9.3.0/bits/std_abs.h
DA:72,113752
LF:1
LH:1
end_of_record
SF:/usr/share/miniconda/envs/moose/x86_64-conda-linux-gnu/include/c++/9.3.0/bits/unique_ptr.h
FN:555,_ZNSt10unique_ptrIA_18RankTwoTensorTemplIdESt14default_deleteIS2_EED2Ev
FNDA:0,_ZNSt10unique_ptrIA_18RankTwoTensorTemplIdESt14default_deleteIS2_EED2Ev
FN:555,_ZNSt10unique_ptrIA_18RankTwoTensorTemplIN11MetaPhysicL10DualNumberIdNS1_28SemiDynamicSparseNumberArrayIdmNS1_8NWrapperILm50EEEEELb1EEEESt14default_deleteIS9_EED2Ev
FNDA:0,_ZNSt10unique_ptrIA_18RankTwoTensorTemplIN11MetaPhysicL10DualNumberIdNS1_28SemiDynamicSparseNumberArrayIdmNS1_8NWrapperILm50EEEEELb1EEEESt14default_deleteIS9_EED2Ev
FN:555,_ZNSt10unique_ptrIA_N11MetaPhysicL10DualNumberIdNS0_28SemiDynamicSparseNumberArrayIdmNS0_8NWrapperILm50EEEEELb1EEESt14default_deleteIS7_EED2Ev
FNDA:0,_ZNSt10unique_ptrIA_N11MetaPhysicL10DualNumberIdNS0_28SemiDynamicSparseNumberArrayIdmNS0_8NWrapperILm50EEEEELb1EEESt14default_deleteIS7_EED2Ev
FN:555,_ZNSt10unique_ptrIA_N7libMesh11TensorValueIdEESt14default_deleteIS3_EED2Ev
FNDA:0,_ZNSt10unique_ptrIA_N7libMesh11TensorValueIdEESt14default_deleteIS3_EED2Ev
FN:555,_ZNSt10unique_ptrIA_N7libMesh11TensorValueIN11MetaPhysicL10DualNumberIdNS2_28SemiDynamicSparseNumberArrayIdmNS2_8NWrapperILm50EEEEELb1EEEEESt14default_deleteISA_EED2Ev
FNDA:0,_ZNSt10unique_ptrIA_N7libMesh11TensorValueIN11MetaPhysicL10DualNumberIdNS2_28SemiDynamicSparseNumberArrayIdmNS2_8NWrapperILm50EEEEELb1EEEEESt14default_deleteISA_EED2Ev
FN:555,_ZNSt10unique_ptrIA_N7libMesh11VectorValueIN11MetaPhysicL10DualNumberIdNS2_28SemiDynamicSparseNumberArrayIdmNS2_8NWrapperILm50EEEEELb1EEEEESt14default_deleteISA_EED2Ev
FNDA:0,_ZNSt10unique_ptrIA_N7libMesh11VectorValueIN11MetaPhysicL10DualNumberIdNS2_28SemiDynamicSparseNumberArrayIdmNS2_8NWrapperILm50EEEEELb1EEEEESt14default_deleteISA_EED2Ev
FN:555,_ZNSt10unique_ptrIA_N7libMesh11VectorValueIdEESt14default_deleteIS3_EED2Ev
FNDA:0,_ZNSt10unique_ptrIA_N7libMesh11VectorValueIdEESt14default_deleteIS3_EED2Ev
FNF:7
FNH:0
DA:81,0
DA:82,0
DA:115,0
DA:116,0
DA:154,0
DA:291,0
DA:292,0
DA:294,0
DA:555,0
DA:558,0
DA:561,0
DA:555,0
DA:558,0
DA:561,0
DA:555,0
DA:558,0
DA:561,0
DA:555,0
DA:558,0
DA:561,0
DA:555,0
DA:558,0
DA:561,0
DA:555,0
DA:558,0
DA:561,0
DA:555,0
DA:558,0
DA:561,0
DA:558,0
DA:671,0
LF:31
LH:0
end_of_record
SF:/usr/share/miniconda/envs/moose/libmesh/include/libmesh/vector_value.h
DA:149,0
DA:150,0
DA:197,0
DA:198,0
DA:261,0
DA:262,0
LF:6
LH:0
end_of_record
SF:/usr/share/miniconda/envs/moose/libmesh/include/Eigen/src/Core/Matrix.h
LF:0
LH:0
end_of_record
SF:/home/runner/work/raccoon/raccoon/moose/framework/build/header_symlinks/MeshChangedInterface.h
FN:39,_ZN20MeshChangedInterface11meshChangedEv
FNDA:0,_ZN20MeshChangedInterface11meshChangedEv
FNF:1
FNH:0
DA:39,0
LF:1
LH:0
end_of_record
SF:/usr/share/miniconda/envs/moose/x86_64-conda-linux-gnu/include/c++/9.3.0/bits/hashtable_policy.h
DA:2149,0
LF:1
LH:0
end_of_record
SF:/usr/share/miniconda/envs/moose/x86_64-conda-linux-gnu/include/c++/9.3.0/bits/stl_iterator_base_funcs.h
DA:104,108
LF:1
LH:1
end_of_record
SF:/usr/share/miniconda/envs/moose/x86_64-conda-linux-gnu/include/c++/9.3.0/sstream
DA:678,0
DA:832,0
LF:2
LH:0
end_of_record
SF:/usr/share/miniconda/envs/moose/x86_64-conda-linux-gnu/include/c++/9.3.0/bits/unordered_map.h
DA:102,0
LF:1
LH:0
end_of_record
SF:/usr/share/miniconda/envs/moose/x86_64-conda-linux-gnu/include/c++/9.3.0/ostream
DA:113,0
DA:175,0
DA:221,0
DA:246,0
DA:518,0
DA:570,0
LF:6
LH:0
end_of_record
SF:/usr/share/miniconda/envs/moose/x86_64-conda-linux-gnu/include/c++/9.3.0/future
FN:328,_ZNSt13__future_base13_State_baseV2D0Ev
FNDA:0,_ZNSt13__future_base13_State_baseV2D0Ev
FN:328,_ZNSt13__future_base13_State_baseV2D2Ev
FNDA:0,_ZNSt13__future_base13_State_baseV2D2Ev
FN:570,_ZNSt13__future_base13_State_baseV217_M_complete_asyncEv
FNDA:0,_ZNSt13__future_base13_State_baseV217_M_complete_asyncEv
FN:573,_ZNKSt13__future_base13_State_baseV221_M_is_deferred_futureEv
FNDA:0,_ZNKSt13__future_base13_State_baseV221_M_is_deferred_futureEv
FN:652,_ZNSt13__future_base7_ResultIvE10_M_destroyEv
FNDA:0,_ZNSt13__future_base7_ResultIvE10_M_destroyEv
FNF:5
FNH:0
DA:213,0
DA:328,0
DA:328,0
DA:570,0
DA:573,0
DA:652,0
LF:6
LH:0
end_of_record
SF:/usr/share/miniconda/envs/moose/libmesh/include/libmesh/type_vector.h
FN:458,_ZN7libMesh10TypeVectorIN11MetaPhysicL10DualNumberIdNS1_28SemiDynamicSparseNumberArrayIdmNS1_8NWrapperILm50EEEEELb1EEEEC2Ev
FNDA:0,_ZN7libMesh10TypeVectorIN11MetaPhysicL10DualNumberIdNS1_28SemiDynamicSparseNumberArrayIdmNS1_8NWrapperILm50EEEEELb1EEEEC2Ev
FN:551,_ZN7libMesh10TypeVectorIN11MetaPhysicL10DualNumberIdNS1_28SemiDynamicSparseNumberArrayIdmNS1_8NWrapperILm50EEEEELb1EEEEC2IdEERKNS0_IT_EE
FNDA:0,_ZN7libMesh10TypeVectorIN11MetaPhysicL10DualNumberIdNS1_28SemiDynamicSparseNumberArrayIdmNS1_8NWrapperILm50EEEEELb1EEEEC2IdEERKNS0_IT_EE
FNF:2
FNH:0
DA:102,0
DA:458,0
DA:460,0
DA:463,0
DA:467,0
DA:469,0
DA:551,0
DA:554,0
DA:555,0
DA:556,0
DA:585,0
LF:11
LH:0
end_of_record
SF:/home/runner/work/raccoon/raccoon/moose/framework/build/header_symlinks/MooseError.h
FN:154,_ZN5moose8internal14mooseStreamAllINSt7__cxx1112basic_stringIcSt11char_traitsIcESaIcEEEJRA2_KcEEEvRNS2_19basic_ostringstreamIcS5_S6_EEOT_DpOT0_
FNDA:0,_ZN5moose8internal14mooseStreamAllINSt7__cxx1112basic_stringIcSt11char_traitsIcESaIcEEEJRA2_KcEEEvRNS2_19basic_ostringstreamIcS5_S6_EEOT_DpOT0_
FN:154,_ZN5moose8internal14mooseStreamAllINSt7__cxx1112basic_stringIcSt11char_traitsIcESaIcEEEJRA45_KcS7_RA2_S8_EEEvRNS2_19basic_ostringstreamIcS5_S6_EEOT_DpOT0_
FNDA:0,_ZN5moose8internal14mooseStreamAllINSt7__cxx1112basic_stringIcSt11char_traitsIcESaIcEEEJRA45_KcS7_RA2_S8_EEEvRNS2_19basic_ostringstreamIcS5_S6_EEOT_DpOT0_
FN:154,_ZN5moose8internal14mooseStreamAllIRKNSt7__cxx1112basic_stringIcSt11char_traitsIcESaIcEEEJRA17_KcEEEvRNS2_19basic_ostringstreamIcS5_S6_EEOT_DpOT0_
FNDA:0,_ZN5moose8internal14mooseStreamAllIRKNSt7__cxx1112basic_stringIcSt11char_traitsIcESaIcEEEJRA17_KcEEEvRNS2_19basic_ostringstreamIcS5_S6_EEOT_DpOT0_
FN:154,_ZN5moose8internal14mooseStreamAllIRKNSt7__cxx1112basic_stringIcSt11char_traitsIcESaIcEEEJRA40_KcEEEvRNS2_19basic_ostringstreamIcS5_S6_EEOT_DpOT0_
FNDA:0,_ZN5moose8internal14mooseStreamAllIRKNSt7__cxx1112basic_stringIcSt11char_traitsIcESaIcEEEJRA40_KcEEEvRNS2_19basic_ostringstreamIcS5_S6_EEOT_DpOT0_
FN:154,_ZN5moose8internal14mooseStreamAllIRKNSt7__cxx1112basic_stringIcSt11char_traitsIcESaIcEEEJRA14_KcS7_RA45_SA_S7_RA2_SA_EEEvRNS2_19basic_ostringstreamIcS5_S6_EEOT_DpOT0_
FNDA:0,_ZN5moose8internal14mooseStreamAllIRKNSt7__cxx1112basic_stringIcSt11char_traitsIcESaIcEEEJRA14_KcS7_RA45_SA_S7_RA2_SA_EEEvRNS2_19basic_ostringstreamIcS5_S6_EEOT_DpOT0_
FN:154,_ZN5moose8internal14mooseStreamAllIRA43_KcJRKNSt7__cxx1112basic_stringIcSt11char_traitsIcESaIcEEEEEEvRNS5_19basic_ostringstreamIcS8_S9_EEOT_DpOT0_
FNDA:0,_ZN5moose8internal14mooseStreamAllIRA43_KcJRKNSt7__cxx1112basic_stringIcSt11char_traitsIcESaIcEEEEEEvRNS5_19basic_ostringstreamIcS8_S9_EEOT_DpOT0_
FN:154,_ZN5moose8internal14mooseStreamAllIRKNSt7__cxx1112basic_stringIcSt11char_traitsIcESaIcEEEJRA29_KcEEEvRNS2_19basic_ostringstreamIcS5_S6_EEOT_DpOT0_
FNDA:0,_ZN5moose8internal14mooseStreamAllIRKNSt7__cxx1112basic_stringIcSt11char_traitsIcESaIcEEEJRA29_KcEEEvRNS2_19basic_ostringstreamIcS5_S6_EEOT_DpOT0_
FN:154,_ZN5moose8internal14mooseStreamAllINSt7__cxx1112basic_stringIcSt11char_traitsIcESaIcEEEJRA60_KcEEEvRNS2_19basic_ostringstreamIcS5_S6_EEOT_DpOT0_
FNDA:0,_ZN5moose8internal14mooseStreamAllINSt7__cxx1112basic_stringIcSt11char_traitsIcESaIcEEEJRA60_KcEEEvRNS2_19basic_ostringstreamIcS5_S6_EEOT_DpOT0_
FN:154,_ZN5moose8internal14mooseStreamAllINSt7__cxx1112basic_stringIcSt11char_traitsIcESaIcEEEJRA117_KcEEEvRNS2_19basic_ostringstreamIcS5_S6_EEOT_DpOT0_
FNDA:0,_ZN5moose8internal14mooseStreamAllINSt7__cxx1112basic_stringIcSt11char_traitsIcESaIcEEEJRA117_KcEEEvRNS2_19basic_ostringstreamIcS5_S6_EEOT_DpOT0_
FN:154,_ZN5moose8internal14mooseStreamAllINSt7__cxx1112basic_stringIcSt11char_traitsIcESaIcEEEJRA105_KcEEEvRNS2_19basic_ostringstreamIcS5_S6_EEOT_DpOT0_
FNDA:0,_ZN5moose8internal14mooseStreamAllINSt7__cxx1112basic_stringIcSt11char_traitsIcESaIcEEEJRA105_KcEEEvRNS2_19basic_ostringstreamIcS5_S6_EEOT_DpOT0_
FN:236,_Z10mooseErrorIJNSt7__cxx1112basic_stringIcSt11char_traitsIcESaIcEEEEEvDpOT_
FNDA:0,_Z10mooseErrorIJNSt7__cxx1112basic_stringIcSt11char_traitsIcESaIcEEEEEvDpOT_
FN:236,_Z10mooseErrorIJRA77_KcRKNSt7__cxx1112basic_stringIcSt11char_traitsIcESaIcEEERA17_S0_EEvDpOT_
FNDA:0,_Z10mooseErrorIJRA77_KcRKNSt7__cxx1112basic_stringIcSt11char_traitsIcESaIcEEERA17_S0_EEvDpOT_
FN:236,_Z10mooseErrorIJRA16_KcRKNSt7__cxx1112basic_stringIcSt11char_traitsIcESaIcEEERA40_S0_EEvDpOT_
FNDA:0,_Z10mooseErrorIJRA16_KcRKNSt7__cxx1112basic_stringIcSt11char_traitsIcESaIcEEERA40_S0_EEvDpOT_
FN:236,_Z10mooseErrorIJRA30_KcRKNSt7__cxx1112basic_stringIcSt11char_traitsIcESaIcEEERA14_S0_S8_RA45_S0_S8_RA2_S0_EEvDpOT_
FNDA:0,_Z10mooseErrorIJRA30_KcRKNSt7__cxx1112basic_stringIcSt11char_traitsIcESaIcEEERA14_S0_S8_RA45_S0_S8_RA2_S0_EEvDpOT_
FN:236,_Z10mooseErrorIJRA43_KcRKNSt7__cxx1112basic_stringIcSt11char_traitsIcESaIcEEEEEvDpOT_
FNDA:0,_Z10mooseErrorIJRA43_KcRKNSt7__cxx1112basic_stringIcSt11char_traitsIcESaIcEEEEEvDpOT_
FN:236,_Z10mooseErrorIJRA8_KcRKNSt7__cxx1112basic_stringIcSt11char_traitsIcESaIcEEERA29_S0_EEvDpOT_
FNDA:0,_Z10mooseErrorIJRA8_KcRKNSt7__cxx1112basic_stringIcSt11char_traitsIcESaIcEEERA29_S0_EEvDpOT_
FNF:16
FNH:0
DA:154,0
DA:156,0
DA:157,0
DA:158,0
DA:154,0
DA:156,0
DA:157,0
DA:158,0
DA:154,0
DA:156,0
DA:157,0
DA:158,0
DA:154,0
DA:156,0
DA:157,0
DA:158,0
DA:154,0
DA:156,0
DA:157,0
DA:158,0
DA:154,0
DA:156,0
DA:157,0
DA:158,0
DA:154,0
DA:156,0
DA:157,0
DA:158,0
DA:154,0
DA:156,0
DA:157,0
DA:158,0
DA:154,0
DA:156,0
DA:157,0
DA:158,0
DA:154,0
DA:156,0
DA:157,0
DA:158,0
DA:156,0
DA:157,0
DA:158,0
DA:236,0
DA:238,0
DA:240,0
DA:236,0
DA:238,0
DA:240,0
DA:236,0
DA:238,0
DA:240,0
DA:236,0
DA:238,0
DA:240,0
DA:236,0
DA:238,0
DA:239,0
DA:240,0
DA:236,0
DA:238,0
DA:240,0
LF:62
LH:0
end_of_record
SF:/home/runner/work/raccoon/raccoon/build/header_symlinks/LargeDeformationJ2Plasticity.h
LF:0
LH:0
end_of_record
SF:/home/runner/work/raccoon/raccoon/moose/framework/build/header_symlinks/MooseEnum.h
FN:31,_ZN9MooseEnumaSERKS_
FNDA:0,_ZN9MooseEnumaSERKS_
FNF:1
FNH:0
DA:31,0
DA:66,232
DA:155,27
LF:3
LH:2
end_of_record
SF:/usr/share/miniconda/envs/moose/libmesh/include/libmesh/reference_counted_object.h
DA:75,0
LF:1
LH:0
end_of_record
SF:/home/runner/work/raccoon/raccoon/moose/framework/build/header_symlinks/MooseVariableBase.h
FN:72,_ZNK17MooseVariableBase4nameB5cxx11Ev
FNDA:0,_ZNK17MooseVariableBase4nameB5cxx11Ev
FNF:1
FNH:0
DA:72,0
LF:1
LH:0
end_of_record
SF:/home/runner/work/raccoon/raccoon/moose/framework/build/header_symlinks/Restartable.h
FN:64,_ZN11RestartableD0Ev
FNDA:0,_ZN11RestartableD0Ev
FN:64,_ZN11RestartableD2Ev
FNDA:0,_ZN11RestartableD2Ev
FNF:2
FNH:0
DA:64,0
DA:64,0
LF:2
LH:0
end_of_record
SF:/usr/share/miniconda/envs/moose/libmesh/include/libmesh/parallel_object.h
LF:0
LH:0
end_of_record
SF:/home/runner/work/raccoon/raccoon/build/header_symlinks/BaseNameInterface.h
FN:15,_ZN17BaseNameInterfaceD0Ev
FNDA:0,_ZN17BaseNameInterfaceD0Ev
FN:15,_ZN17BaseNameInterfaceD2Ev
FNDA:0,_ZN17BaseNameInterfaceD2Ev
FNF:2
FNH:0
DA:15,0
DA:15,0
DA:15,0
LF:3
LH:0
end_of_record
SF:/usr/share/miniconda/envs/moose/libmesh/include/libmesh/libmesh_common.h
DA:617,390748
LF:1
LH:1
end_of_record
SF:/home/runner/work/raccoon/raccoon/build/header_symlinks/LargeDeformationViscoelasticityModel.h
FN:31,_ZN36LargeDeformationViscoelasticityModel17resetQpPropertiesEv
FNDA:0,_ZN36LargeDeformationViscoelasticityModel17resetQpPropertiesEv
FN:32,_ZN36LargeDeformationViscoelasticityModel15resetPropertiesEv
FNDA:15556,_ZN36LargeDeformationViscoelasticityModel15resetPropertiesEv
FNF:2
FNH:1
DA:31,0
DA:32,15556
LF:2
LH:1
end_of_record
SF:/home/runner/work/raccoon/raccoon/moose/framework/contrib/hit/parse.h
LF:0
LH:0
end_of_record
SF:/usr/share/miniconda/envs/moose/x86_64-conda-linux-gnu/include/c++/9.3.0/bits/shared_ptr_base.h
FN:131,_ZNSt16_Sp_counted_baseILN9__gnu_cxx12_Lock_policyE2EE10_M_destroyEv
FNDA:0,_ZNSt16_Sp_counted_baseILN9__gnu_cxx12_Lock_policyE2EE10_M_destroyEv
FN:148,_ZNSt16_Sp_counted_baseILN9__gnu_cxx12_Lock_policyE2EE10_M_releaseEv
FNDA:0,_ZNSt16_Sp_counted_baseILN9__gnu_cxx12_Lock_policyE2EE10_M_releaseEv
FN:404,_ZNSt15_Sp_counted_ptrIDnLN9__gnu_cxx12_Lock_policyE2EE10_M_disposeEv
FNDA:0,_ZNSt15_Sp_counted_ptrIDnLN9__gnu_cxx12_Lock_policyE2EE10_M_disposeEv
FN:552,_ZNSt23_Sp_counted_ptr_inplaceI25HenckyIsotropicElasticitySaIS0_ELN9__gnu_cxx12_Lock_policyE2EED0Ev
FNDA:0,_ZNSt23_Sp_counted_ptr_inplaceI25HenckyIsotropicElasticitySaIS0_ELN9__gnu_cxx12_Lock_policyE2EED0Ev
FN:552,_ZNSt23_Sp_counted_ptr_inplaceI34LargeDeformationNewtonianViscositySaIS0_ELN9__gnu_cxx12_Lock_policyE2EED2Ev
FNDA:0,_ZNSt23_Sp_counted_ptr_inplaceI34LargeDeformationNewtonianViscositySaIS0_ELN9__gnu_cxx12_Lock_policyE2EED2Ev
FN:552,_ZNSt23_Sp_counted_ptr_inplaceI34LargeDeformationNewtonianViscositySaIS0_ELN9__gnu_cxx12_Lock_policyE2EED0Ev
FNDA:0,_ZNSt23_Sp_counted_ptr_inplaceI34LargeDeformationNewtonianViscositySaIS0_ELN9__gnu_cxx12_Lock_policyE2EED0Ev
FN:552,_ZNSt23_Sp_counted_ptr_inplaceI31LargeDeformationJ2PowerLawCreepSaIS0_ELN9__gnu_cxx12_Lock_policyE2EED2Ev
FNDA:0,_ZNSt23_Sp_counted_ptr_inplaceI31LargeDeformationJ2PowerLawCreepSaIS0_ELN9__gnu_cxx12_Lock_policyE2EED2Ev
FN:552,_ZNSt23_Sp_counted_ptr_inplaceI31LargeDeformationJ2PowerLawCreepSaIS0_ELN9__gnu_cxx12_Lock_policyE2EED0Ev
FNDA:0,_ZNSt23_Sp_counted_ptr_inplaceI31LargeDeformationJ2PowerLawCreepSaIS0_ELN9__gnu_cxx12_Lock_policyE2EED0Ev
FN:552,_ZNSt23_Sp_counted_ptr_inplaceI28LargeDeformationJ2PlasticitySaIS0_ELN9__gnu_cxx12_Lock_policyE2EED2Ev
FNDA:0,_ZNSt23_Sp_counted_ptr_inplaceI28LargeDeformationJ2PlasticitySaIS0_ELN9__gnu_cxx12_Lock_policyE2EED2Ev
FN:552,_ZNSt23_Sp_counted_ptr_inplaceI28LargeDeformationJ2PlasticitySaIS0_ELN9__gnu_cxx12_Lock_policyE2EED0Ev
FNDA:0,_ZNSt23_Sp_counted_ptr_inplaceI28LargeDeformationJ2PlasticitySaIS0_ELN9__gnu_cxx12_Lock_policyE2EED0Ev
FN:552,_ZNSt23_Sp_counted_ptr_inplaceI25HenckyIsotropicElasticitySaIS0_ELN9__gnu_cxx12_Lock_policyE2EED2Ev
FNDA:0,_ZNSt23_Sp_counted_ptr_inplaceI25HenckyIsotropicElasticitySaIS0_ELN9__gnu_cxx12_Lock_policyE2EED2Ev
FN:552,_ZNSt23_Sp_counted_ptr_inplaceI29ComputeLargeDeformationStressSaIS0_ELN9__gnu_cxx12_Lock_policyE2EED2Ev
FNDA:0,_ZNSt23_Sp_counted_ptr_inplaceI29ComputeLargeDeformationStressSaIS0_ELN9__gnu_cxx12_Lock_policyE2EED2Ev
FN:552,_ZNSt23_Sp_counted_ptr_inplaceI29ComputeLargeDeformationStressSaIS0_ELN9__gnu_cxx12_Lock_policyE2EED0Ev
FNDA:0,_ZNSt23_Sp_counted_ptr_inplaceI29ComputeLargeDeformationStressSaIS0_ELN9__gnu_cxx12_Lock_policyE2EED0Ev
FN:552,_ZNSt23_Sp_counted_ptr_inplaceI26ComputeDeformationGradientSaIS0_ELN9__gnu_cxx12_Lock_policyE2EED2Ev
FNDA:0,_ZNSt23_Sp_counted_ptr_inplaceI26ComputeDeformationGradientSaIS0_ELN9__gnu_cxx12_Lock_policyE2EED2Ev
FN:552,_ZNSt23_Sp_counted_ptr_inplaceI26ComputeDeformationGradientSaIS0_ELN9__gnu_cxx12_Lock_policyE2EED0Ev
FNDA:0,_ZNSt23_Sp_counted_ptr_inplaceI26ComputeDeformationGradientSaIS0_ELN9__gnu_cxx12_Lock_policyE2EED0Ev
FN:552,_ZNSt23_Sp_counted_ptr_inplaceISt5mutexSaIS0_ELN9__gnu_cxx12_Lock_policyE2EED0Ev
FNDA:0,_ZNSt23_Sp_counted_ptr_inplaceISt5mutexSaIS0_ELN9__gnu_cxx12_Lock_policyE2EED0Ev
FN:552,_ZNSt23_Sp_counted_ptr_inplaceISt5mutexSaIS0_ELN9__gnu_cxx12_Lock_policyE2EED2Ev
FNDA:0,_ZNSt23_Sp_counted_ptr_inplaceISt5mutexSaIS0_ELN9__gnu_cxx12_Lock_policyE2EED2Ev
FN:552,_ZNSt23_Sp_counted_ptr_inplaceI22CNHIsotropicElasticitySaIS0_ELN9__gnu_cxx12_Lock_policyE2EED2Ev
FNDA:0,_ZNSt23_Sp_counted_ptr_inplaceI22CNHIsotropicElasticitySaIS0_ELN9__gnu_cxx12_Lock_policyE2EED2Ev
FN:552,_ZNSt23_Sp_counted_ptr_inplaceI22CNHIsotropicElasticitySaIS0_ELN9__gnu_cxx12_Lock_policyE2EED0Ev
FNDA:0,_ZNSt23_Sp_counted_ptr_inplaceI22CNHIsotropicElasticitySaIS0_ELN9__gnu_cxx12_Lock_policyE2EED0Ev
FN:552,_ZNSt23_Sp_counted_ptr_inplaceINSt13__future_base13_State_baseV2ESaIS1_ELN9__gnu_cxx12_Lock_policyE2EED2Ev
FNDA:0,_ZNSt23_Sp_counted_ptr_inplaceINSt13__future_base13_State_baseV2ESaIS1_ELN9__gnu_cxx12_Lock_policyE2EED2Ev
FN:552,_ZNSt23_Sp_counted_ptr_inplaceINSt13__future_base13_State_baseV2ESaIS1_ELN9__gnu_cxx12_Lock_policyE2EED0Ev
FNDA:0,_ZNSt23_Sp_counted_ptr_inplaceINSt13__future_base13_State_baseV2ESaIS1_ELN9__gnu_cxx12_Lock_policyE2EED0Ev
FN:555,_ZNSt23_Sp_counted_ptr_inplaceI34LargeDeformationNewtonianViscositySaIS0_ELN9__gnu_cxx12_Lock_policyE2EE10_M_disposeEv
FNDA:3,_ZNSt23_Sp_counted_ptr_inplaceI34LargeDeformationNewtonianViscositySaIS0_ELN9__gnu_cxx12_Lock_policyE2EE10_M_disposeEv
FN:555,_ZNSt23_Sp_counted_ptr_inplaceI26ComputeDeformationGradientSaIS0_ELN9__gnu_cxx12_Lock_policyE2EE10_M_disposeEv
FNDA:27,_ZNSt23_Sp_counted_ptr_inplaceI26ComputeDeformationGradientSaIS0_ELN9__gnu_cxx12_Lock_policyE2EE10_M_disposeEv
FN:555,_ZNSt23_Sp_counted_ptr_inplaceI31LargeDeformationJ2PowerLawCreepSaIS0_ELN9__gnu_cxx12_Lock_policyE2EE10_M_disposeEv
FNDA:6,_ZNSt23_Sp_counted_ptr_inplaceI31LargeDeformationJ2PowerLawCreepSaIS0_ELN9__gnu_cxx12_Lock_policyE2EE10_M_disposeEv
FN:555,_ZNSt23_Sp_counted_ptr_inplaceI28LargeDeformationJ2PlasticitySaIS0_ELN9__gnu_cxx12_Lock_policyE2EE10_M_disposeEv
FNDA:18,_ZNSt23_Sp_counted_ptr_inplaceI28LargeDeformationJ2PlasticitySaIS0_ELN9__gnu_cxx12_Lock_policyE2EE10_M_disposeEv
FN:555,_ZNSt23_Sp_counted_ptr_inplaceI22CNHIsotropicElasticitySaIS0_ELN9__gnu_cxx12_Lock_policyE2EE10_M_disposeEv
FNDA:3,_ZNSt23_Sp_counted_ptr_inplaceI22CNHIsotropicElasticitySaIS0_ELN9__gnu_cxx12_Lock_policyE2EE10_M_disposeEv
FN:555,_ZNSt23_Sp_counted_ptr_inplaceI25HenckyIsotropicElasticitySaIS0_ELN9__gnu_cxx12_Lock_policyE2EE10_M_disposeEv
FNDA:24,_ZNSt23_Sp_counted_ptr_inplaceI25HenckyIsotropicElasticitySaIS0_ELN9__gnu_cxx12_Lock_policyE2EE10_M_disposeEv
FN:555,_ZNSt23_Sp_counted_ptr_inplaceINSt13__future_base13_State_baseV2ESaIS1_ELN9__gnu_cxx12_Lock_policyE2EE10_M_disposeEv
FNDA:0,_ZNSt23_Sp_counted_ptr_inplaceINSt13__future_base13_State_baseV2ESaIS1_ELN9__gnu_cxx12_Lock_policyE2EE10_M_disposeEv
FN:555,_ZNSt23_Sp_counted_ptr_inplaceI29ComputeLargeDeformationStressSaIS0_ELN9__gnu_cxx12_Lock_policyE2EE10_M_disposeEv
FNDA:27,_ZNSt23_Sp_counted_ptr_inplaceI29ComputeLargeDeformationStressSaIS0_ELN9__gnu_cxx12_Lock_policyE2EE10_M_disposeEv
FN:555,_ZNSt23_Sp_counted_ptr_inplaceISt5mutexSaIS0_ELN9__gnu_cxx12_Lock_policyE2EE10_M_disposeEv
FNDA:0,_ZNSt23_Sp_counted_ptr_inplaceISt5mutexSaIS0_ELN9__gnu_cxx12_Lock_policyE2EE10_M_disposeEv
FN:562,_ZNSt23_Sp_counted_ptr_inplaceI34LargeDeformationNewtonianViscositySaIS0_ELN9__gnu_cxx12_Lock_policyE2EE10_M_destroyEv
FNDA:3,_ZNSt23_Sp_counted_ptr_inplaceI34LargeDeformationNewtonianViscositySaIS0_ELN9__gnu_cxx12_Lock_policyE2EE10_M_destroyEv
FN:562,_ZNSt23_Sp_counted_ptr_inplaceI31LargeDeformationJ2PowerLawCreepSaIS0_ELN9__gnu_cxx12_Lock_policyE2EE10_M_destroyEv
FNDA:6,_ZNSt23_Sp_counted_ptr_inplaceI31LargeDeformationJ2PowerLawCreepSaIS0_ELN9__gnu_cxx12_Lock_policyE2EE10_M_destroyEv
FN:562,_ZNSt23_Sp_counted_ptr_inplaceINSt13__future_base13_State_baseV2ESaIS1_ELN9__gnu_cxx12_Lock_policyE2EE10_M_destroyEv
FNDA:0,_ZNSt23_Sp_counted_ptr_inplaceINSt13__future_base13_State_baseV2ESaIS1_ELN9__gnu_cxx12_Lock_policyE2EE10_M_destroyEv
FN:562,_ZNSt23_Sp_counted_ptr_inplaceI26ComputeDeformationGradientSaIS0_ELN9__gnu_cxx12_Lock_policyE2EE10_M_destroyEv
FNDA:27,_ZNSt23_Sp_counted_ptr_inplaceI26ComputeDeformationGradientSaIS0_ELN9__gnu_cxx12_Lock_policyE2EE10_M_destroyEv
FN:562,_ZNSt23_Sp_counted_ptr_inplaceI22CNHIsotropicElasticitySaIS0_ELN9__gnu_cxx12_Lock_policyE2EE10_M_destroyEv
FNDA:3,_ZNSt23_Sp_counted_ptr_inplaceI22CNHIsotropicElasticitySaIS0_ELN9__gnu_cxx12_Lock_policyE2EE10_M_destroyEv
FN:562,_ZNSt23_Sp_counted_ptr_inplaceI28LargeDeformationJ2PlasticitySaIS0_ELN9__gnu_cxx12_Lock_policyE2EE10_M_destroyEv
FNDA:18,_ZNSt23_Sp_counted_ptr_inplaceI28LargeDeformationJ2PlasticitySaIS0_ELN9__gnu_cxx12_Lock_policyE2EE10_M_destroyEv
FN:562,_ZNSt23_Sp_counted_ptr_inplaceISt5mutexSaIS0_ELN9__gnu_cxx12_Lock_policyE2EE10_M_destroyEv
FNDA:0,_ZNSt23_Sp_counted_ptr_inplaceISt5mutexSaIS0_ELN9__gnu_cxx12_Lock_policyE2EE10_M_destroyEv
FN:562,_ZNSt23_Sp_counted_ptr_inplaceI25HenckyIsotropicElasticitySaIS0_ELN9__gnu_cxx12_Lock_policyE2EE10_M_destroyEv
FNDA:24,_ZNSt23_Sp_counted_ptr_inplaceI25HenckyIsotropicElasticitySaIS0_ELN9__gnu_cxx12_Lock_policyE2EE10_M_destroyEv
FN:562,_ZNSt23_Sp_counted_ptr_inplaceI29ComputeLargeDeformationStressSaIS0_ELN9__gnu_cxx12_Lock_policyE2EE10_M_destroyEv
FNDA:27,_ZNSt23_Sp_counted_ptr_inplaceI29ComputeLargeDeformationStressSaIS0_ELN9__gnu_cxx12_Lock_policyE2EE10_M_destroyEv
FN:575,_ZNSt23_Sp_counted_ptr_inplaceI22CNHIsotropicElasticitySaIS0_ELN9__gnu_cxx12_Lock_policyE2EE14_M_get_deleterERKSt9type_info
FNDA:0,_ZNSt23_Sp_counted_ptr_inplaceI22CNHIsotropicElasticitySaIS0_ELN9__gnu_cxx12_Lock_policyE2EE14_M_get_deleterERKSt9type_info
FN:575,_ZNSt23_Sp_counted_ptr_inplaceI26ComputeDeformationGradientSaIS0_ELN9__gnu_cxx12_Lock_policyE2EE14_M_get_deleterERKSt9type_info
FNDA:0,_ZNSt23_Sp_counted_ptr_inplaceI26ComputeDeformationGradientSaIS0_ELN9__gnu_cxx12_Lock_policyE2EE14_M_get_deleterERKSt9type_info
FN:575,_ZNSt23_Sp_counted_ptr_inplaceI29ComputeLargeDeformationStressSaIS0_ELN9__gnu_cxx12_Lock_policyE2EE14_M_get_deleterERKSt9type_info
FNDA:0,_ZNSt23_Sp_counted_ptr_inplaceI29ComputeLargeDeformationStressSaIS0_ELN9__gnu_cxx12_Lock_policyE2EE14_M_get_deleterERKSt9type_info
FN:575,_ZNSt23_Sp_counted_ptr_inplaceI25HenckyIsotropicElasticitySaIS0_ELN9__gnu_cxx12_Lock_policyE2EE14_M_get_deleterERKSt9type_info
FNDA:0,_ZNSt23_Sp_counted_ptr_inplaceI25HenckyIsotropicElasticitySaIS0_ELN9__gnu_cxx12_Lock_policyE2EE14_M_get_deleterERKSt9type_info
FN:575,_ZNSt23_Sp_counted_ptr_inplaceI34LargeDeformationNewtonianViscositySaIS0_ELN9__gnu_cxx12_Lock_policyE2EE14_M_get_deleterERKSt9type_info
FNDA:0,_ZNSt23_Sp_counted_ptr_inplaceI34LargeDeformationNewtonianViscositySaIS0_ELN9__gnu_cxx12_Lock_policyE2EE14_M_get_deleterERKSt9type_info
FN:575,_ZNSt23_Sp_counted_ptr_inplaceI28LargeDeformationJ2PlasticitySaIS0_ELN9__gnu_cxx12_Lock_policyE2EE14_M_get_deleterERKSt9type_info
FNDA:0,_ZNSt23_Sp_counted_ptr_inplaceI28LargeDeformationJ2PlasticitySaIS0_ELN9__gnu_cxx12_Lock_policyE2EE14_M_get_deleterERKSt9type_info
FN:575,_ZNSt23_Sp_counted_ptr_inplaceI31LargeDeformationJ2PowerLawCreepSaIS0_ELN9__gnu_cxx12_Lock_policyE2EE14_M_get_deleterERKSt9type_info
FNDA:0,_ZNSt23_Sp_counted_ptr_inplaceI31LargeDeformationJ2PowerLawCreepSaIS0_ELN9__gnu_cxx12_Lock_policyE2EE14_M_get_deleterERKSt9type_info
FN:672,_ZNSt14__shared_countILN9__gnu_cxx12_Lock_policyE2EEC2I34LargeDeformationNewtonianViscositySaIS4_EJRK15InputParametersEEERPT_St20_Sp_alloc_shared_tagIT0_EDpOT1_
FNDA:3,_ZNSt14__shared_countILN9__gnu_cxx12_Lock_policyE2EEC2I34LargeDeformationNewtonianViscositySaIS4_EJRK15InputParametersEEERPT_St20_Sp_alloc_shared_tagIT0_EDpOT1_
FN:672,_ZNSt14__shared_countILN9__gnu_cxx12_Lock_policyE2EEC2I31LargeDeformationJ2PowerLawCreepSaIS4_EJRK15InputParametersEEERPT_St20_Sp_alloc_shared_tagIT0_EDpOT1_
FNDA:6,_ZNSt14__shared_countILN9__gnu_cxx12_Lock_policyE2EEC2I31LargeDeformationJ2PowerLawCreepSaIS4_EJRK15InputParametersEEERPT_St20_Sp_alloc_shared_tagIT0_EDpOT1_
FN:672,_ZNSt14__shared_countILN9__gnu_cxx12_Lock_policyE2EEC2I28LargeDeformationJ2PlasticitySaIS4_EJRK15InputParametersEEERPT_St20_Sp_alloc_shared_tagIT0_EDpOT1_
FNDA:18,_ZNSt14__shared_countILN9__gnu_cxx12_Lock_policyE2EEC2I28LargeDeformationJ2PlasticitySaIS4_EJRK15InputParametersEEERPT_St20_Sp_alloc_shared_tagIT0_EDpOT1_
FN:672,_ZNSt14__shared_countILN9__gnu_cxx12_Lock_policyE2EEC2I25HenckyIsotropicElasticitySaIS4_EJRK15InputParametersEEERPT_St20_Sp_alloc_shared_tagIT0_EDpOT1_
FNDA:24,_ZNSt14__shared_countILN9__gnu_cxx12_Lock_policyE2EEC2I25HenckyIsotropicElasticitySaIS4_EJRK15InputParametersEEERPT_St20_Sp_alloc_shared_tagIT0_EDpOT1_
FN:672,_ZNSt14__shared_countILN9__gnu_cxx12_Lock_policyE2EEC2I29ComputeLargeDeformationStressSaIS4_EJRK15InputParametersEEERPT_St20_Sp_alloc_shared_tagIT0_EDpOT1_
FNDA:27,_ZNSt14__shared_countILN9__gnu_cxx12_Lock_policyE2EEC2I29ComputeLargeDeformationStressSaIS4_EJRK15InputParametersEEERPT_St20_Sp_alloc_shared_tagIT0_EDpOT1_
FN:672,_ZNSt14__shared_countILN9__gnu_cxx12_Lock_policyE2EEC2I26ComputeDeformationGradientSaIS4_EJRK15InputParametersEEERPT_St20_Sp_alloc_shared_tagIT0_EDpOT1_
FNDA:27,_ZNSt14__shared_countILN9__gnu_cxx12_Lock_policyE2EEC2I26ComputeDeformationGradientSaIS4_EJRK15InputParametersEEERPT_St20_Sp_alloc_shared_tagIT0_EDpOT1_
FN:672,_ZNSt14__shared_countILN9__gnu_cxx12_Lock_policyE2EEC2I22CNHIsotropicElasticitySaIS4_EJRK15InputParametersEEERPT_St20_Sp_alloc_shared_tagIT0_EDpOT1_
FNDA:3,_ZNSt14__shared_countILN9__gnu_cxx12_Lock_policyE2EEC2I22CNHIsotropicElasticitySaIS4_EJRK15InputParametersEEERPT_St20_Sp_alloc_shared_tagIT0_EDpOT1_
FNF:53
FNH:21
DA:117,108
DA:118,108
DA:131,0
DA:132,0
DA:148,0
DA:152,0
DA:155,0
DA:167,0
DA:171,0
DA:174,0
DA:404,0
DA:531,108
DA:543,108
DA:544,108
DA:550,108
DA:552,0
DA:552,0
DA:552,0
DA:552,0
DA:552,0
DA:552,0
DA:552,0
DA:552,0
DA:552,0
DA:552,0
DA:552,0
DA:552,0
DA:552,0
DA:552,0
DA:552,0
DA:552,0
DA:552,0
DA:552,0
DA:552,108
DA:555,0
DA:558,0
DA:555,0
DA:558,0
DA:555,3
DA:558,3
DA:555,27
DA:558,27
DA:555,27
DA:558,27
DA:555,24
DA:558,24
DA:555,18
DA:558,18
DA:555,6
DA:558,6
DA:555,3
DA:558,3
DA:562,0
DA:567,0
DA:562,0
DA:567,0
DA:562,3
DA:567,3
DA:562,27
DA:567,27
DA:562,27
DA:567,27
DA:562,24
DA:567,24
DA:562,18
DA:567,18
DA:562,6
DA:567,6
DA:562,3
DA:567,3
DA:575,0
DA:583,0
DA:585,0
DA:590,0
DA:575,0
DA:583,0
DA:585,0
DA:590,0
DA:575,0
DA:583,0
DA:585,0
DA:590,0
DA:575,0
DA:583,0
DA:585,0
DA:590,0
DA:575,0
DA:583,0
DA:585,0
DA:590,0
DA:575,0
DA:583,0
DA:585,0
DA:590,0
DA:575,0
DA:583,0
DA:585,0
DA:590,0
DA:672,3
DA:682,3
DA:683,3
DA:684,3
DA:672,6
DA:682,6
DA:683,6
DA:684,6
DA:672,18
DA:682,18
DA:683,18
DA:684,18
DA:672,24
DA:682,24
DA:683,24
DA:684,24
DA:672,27
DA:682,27
DA:683,27
DA:684,27
DA:672,27
DA:682,27
DA:683,27
DA:684,27
DA:672,3
DA:682,3
DA:683,3
DA:684,3
DA:729,0
DA:730,0
DA:758,108
DA:760,108
DA:1021,0
DA:1185,108
DA:1344,108
LF:133
LH:67
end_of_record
SF:/home/runner/work/raccoon/raccoon/build/header_symlinks/LargeDeformationElasticityModel.h
FN:55,_ZN31LargeDeformationElasticityModel17resetQpPropertiesEv
FNDA:0,_ZN31LargeDeformationElasticityModel17resetQpPropertiesEv
FN:56,_ZN31LargeDeformationElasticityModel15resetPropertiesEv
FNDA:38422,_ZN31LargeDeformationElasticityModel15resetPropertiesEv
FNF:2
FNH:1
DA:55,0
DA:56,38422
LF:2
LH:1
end_of_record
SF:/usr/share/miniconda/envs/moose/x86_64-conda-linux-gnu/include/c++/9.3.0/array
DA:135,609949000
DA:139,9523790000
DA:235,4101380000
DA:239,10187600000
LF:4
LH:4
end_of_record
SF:/home/runner/work/raccoon/raccoon/moose/framework/build/header_symlinks/InputParameters.h
FN:59,_ZN15InputParametersD2Ev
FNDA:0,_ZN15InputParametersD2Ev
FN:59,_ZN15InputParametersD0Ev
FNDA:0,_ZN15InputParametersD0Ev
FN:932,_ZNK15InputParameters2atERKNSt7__cxx1112basic_stringIcSt11char_traitsIcESaIcEEE
FNDA:0,_ZNK15InputParameters2atERKNSt7__cxx1112basic_stringIcSt11char_traitsIcESaIcEEE
FN:1024,_ZN15InputParameters3setI9MooseEnumEERT_RKNSt7__cxx1112basic_stringIcSt11char_traitsIcESaIcEEEb
FNDA:0,_ZN15InputParameters3setI9MooseEnumEERT_RKNSt7__cxx1112basic_stringIcSt11char_traitsIcESaIcEEEb
FN:1024,_ZN15InputParameters3setI20MaterialPropertyNameEERT_RKNSt7__cxx1112basic_stringIcSt11char_traitsIcESaIcEEEb
FNDA:0,_ZN15InputParameters3setI20MaterialPropertyNameEERT_RKNSt7__cxx1112basic_stringIcSt11char_traitsIcESaIcEEEb
FN:1024,_ZN15InputParameters3setIbEERT_RKNSt7__cxx1112basic_stringIcSt11char_traitsIcESaIcEEEb
FNDA:0,_ZN15InputParameters3setIbEERT_RKNSt7__cxx1112basic_stringIcSt11char_traitsIcESaIcEEEb
FN:1223,_ZN15InputParameters16addRequiredParamI20MaterialPropertyNameEEvRKNSt7__cxx1112basic_stringIcSt11char_traitsIcESaIcEEES9_
FNDA:0,_ZN15InputParameters16addRequiredParamI20MaterialPropertyNameEEvRKNSt7__cxx1112basic_stringIcSt11char_traitsIcESaIcEEES9_
FN:1223,_ZN15InputParameters16addRequiredParamIdEEvRKNSt7__cxx1112basic_stringIcSt11char_traitsIcESaIcEEES8_
FNDA:0,_ZN15InputParameters16addRequiredParamIdEEvRKNSt7__cxx1112basic_stringIcSt11char_traitsIcESaIcEEES8_
FN:1223,_ZN15InputParameters16addRequiredParamI12MaterialNameEEvRKNSt7__cxx1112basic_stringIcSt11char_traitsIcESaIcEEES9_
FNDA:0,_ZN15InputParameters16addRequiredParamI12MaterialNameEEvRKNSt7__cxx1112basic_stringIcSt11char_traitsIcESaIcEEES9_
FN:1245,_ZN15InputParameters8addParamI20MaterialPropertyNameA5_cEEvRKNSt7__cxx1112basic_stringIcSt11char_traitsIcESaIcEEERKT0_SA_
FNDA:0,_ZN15InputParameters8addParamI20MaterialPropertyNameA5_cEEvRKNSt7__cxx1112basic_stringIcSt11char_traitsIcESaIcEEERKT0_SA_
FN:1245,_ZN15InputParameters8addParamI20MaterialPropertyNameA2_cEEvRKNSt7__cxx1112basic_stringIcSt11char_traitsIcESaIcEEERKT0_SA_
FNDA:0,_ZN15InputParameters8addParamI20MaterialPropertyNameA2_cEEvRKNSt7__cxx1112basic_stringIcSt11char_traitsIcESaIcEEERKT0_SA_
FN:1245,_ZN15InputParameters8addParamI20MaterialPropertyNameA10_cEEvRKNSt7__cxx1112basic_stringIcSt11char_traitsIcESaIcEEERKT0_SA_
FNDA:0,_ZN15InputParameters8addParamI20MaterialPropertyNameA10_cEEvRKNSt7__cxx1112basic_stringIcSt11char_traitsIcESaIcEEERKT0_SA_
FN:1245,_ZN15InputParameters8addParamI9MooseEnumS1_EEvRKNSt7__cxx1112basic_stringIcSt11char_traitsIcESaIcEEERKT0_S9_
FNDA:0,_ZN15InputParameters8addParamI9MooseEnumS1_EEvRKNSt7__cxx1112basic_stringIcSt11char_traitsIcESaIcEEERKT0_S9_
FN:1245,_ZN15InputParameters8addParamIbbEEvRKNSt7__cxx1112basic_stringIcSt11char_traitsIcESaIcEEERKT0_S8_
FNDA:727657,_ZN15InputParameters8addParamIbbEEvRKNSt7__cxx1112basic_stringIcSt11char_traitsIcESaIcEEERKT0_S8_
FN:1264,_ZN15InputParameters8addParamI12MaterialNameEEvRKNSt7__cxx1112basic_stringIcSt11char_traitsIcESaIcEEES9_
FNDA:0,_ZN15InputParameters8addParamI12MaterialNameEEvRKNSt7__cxx1112basic_stringIcSt11char_traitsIcESaIcEEES9_
FN:1264,_ZN15InputParameters8addParamISt6vectorI20MaterialPropertyNameSaIS2_EEEEvRKNSt7__cxx1112basic_stringIcSt11char_traitsIcESaIcEEESC_
FNDA:0,_ZN15InputParameters8addParamISt6vectorI20MaterialPropertyNameSaIS2_EEEEvRKNSt7__cxx1112basic_stringIcSt11char_traitsIcESaIcEEESC_
FN:1398,_ZNK15InputParameters19checkConsistentTypeIdEEvRKNSt7__cxx1112basic_stringIcSt11char_traitsIcESaIcEEE
FNDA:0,_ZNK15InputParameters19checkConsistentTypeIdEEvRKNSt7__cxx1112basic_stringIcSt11char_traitsIcESaIcEEE
FN:1398,_ZNK15InputParameters19checkConsistentTypeI12MaterialNameEEvRKNSt7__cxx1112basic_stringIcSt11char_traitsIcESaIcEEE
FNDA:0,_ZNK15InputParameters19checkConsistentTypeI12MaterialNameEEvRKNSt7__cxx1112basic_stringIcSt11char_traitsIcESaIcEEE
FN:1398,_ZNK15InputParameters19checkConsistentTypeI20MaterialPropertyNameEEvRKNSt7__cxx1112basic_stringIcSt11char_traitsIcESaIcEEE
FNDA:0,_ZNK15InputParameters19checkConsistentTypeI20MaterialPropertyNameEEvRKNSt7__cxx1112basic_stringIcSt11char_traitsIcESaIcEEE
FN:1398,_ZNK15InputParameters19checkConsistentTypeI9MooseEnumEEvRKNSt7__cxx1112basic_stringIcSt11char_traitsIcESaIcEEE
FNDA:0,_ZNK15InputParameters19checkConsistentTypeI9MooseEnumEEvRKNSt7__cxx1112basic_stringIcSt11char_traitsIcESaIcEEE
FN:1398,_ZNK15InputParameters19checkConsistentTypeIbEEvRKNSt7__cxx1112basic_stringIcSt11char_traitsIcESaIcEEE
FNDA:0,_ZNK15InputParameters19checkConsistentTypeIbEEvRKNSt7__cxx1112basic_stringIcSt11char_traitsIcESaIcEEE
FN:1398,_ZNK15InputParameters19checkConsistentTypeISt6vectorI20MaterialPropertyNameSaIS2_EEEEvRKNSt7__cxx1112basic_stringIcSt11char_traitsIcESaIcEEE
FNDA:0,_ZNK15InputParameters19checkConsistentTypeISt6vectorI20MaterialPropertyNameSaIS2_EEEEvRKNSt7__cxx1112basic_stringIcSt11char_traitsIcESaIcEEE
FN:1414,_ZN15InputParameters17suppressParameterIbEEvRKNSt7__cxx1112basic_stringIcSt11char_traitsIcESaIcEEE
FNDA:0,_ZN15InputParameters17suppressParameterIbEEvRKNSt7__cxx1112basic_stringIcSt11char_traitsIcESaIcEEE
FNF:23
FNH:1
DA:59,0
DA:59,0
DA:806,0
DA:932,0
DA:935,0
DA:936,0
DA:1024,0
DA:1026,0
DA:1027,0
DA:1029,0
DA:1030,0
DA:1032,0
DA:1034,0
DA:1035,0
DA:1039,0
DA:1024,0
DA:1026,0
DA:1027,0
DA:1029,0
DA:1030,0
DA:1032,0
DA:1034,0
DA:1035,0
DA:1039,0
DA:1024,0
DA:1026,0
DA:1027,0
DA:1029,0
DA:1030,0
DA:1032,0
DA:1034,0
DA:1035,0
DA:1039,0
DA:1223,0
DA:1225,0
DA:1226,0
DA:1228,0
DA:1229,0
DA:1230,0
DA:1231,0
DA:1223,0
DA:1225,0
DA:1226,0
DA:1228,0
DA:1229,0
DA:1230,0
DA:1231,0
DA:1223,0
DA:1225,0
DA:1226,0
DA:1228,0
DA:1229,0
DA:1230,0
DA:1231,0
DA:1245,0
DA:1247,0
DA:1248,0
DA:1250,0
DA:1251,0
DA:1254,0
DA:1259,0
DA:1260,0
DA:1245,727657
DA:1247,727657
DA:1248,727657
DA:1250,727657
DA:1251,727657
DA:1254,727657
DA:1259,1455310
DA:1260,727657
DA:1245,0
DA:1247,0
DA:1248,0
DA:1250,0
DA:1251,0
DA:1259,0
DA:1260,0
DA:1245,0
DA:1247,0
DA:1248,0
DA:1250,0
DA:1251,0
DA:1254,0
DA:1259,0
DA:1260,0
DA:1245,0
DA:1247,0
DA:1248,0
DA:1250,0
DA:1251,0
DA:1254,0
DA:1259,0
DA:1260,0
DA:1264,0
DA:1266,0
DA:1267,0
DA:1269,0
DA:1270,0
DA:1271,0
DA:1264,0
DA:1266,0
DA:1267,0
DA:1269,0
DA:1270,0
DA:1271,0
DA:1277,727657
DA:1398,0
DA:1402,0
DA:1403,0
DA:1408,0
DA:1410,0
DA:1398,0
DA:1402,0
DA:1403,0
DA:1408,0
DA:1410,0
DA:1398,0
DA:1402,0
DA:1403,0
DA:1408,0
DA:1410,0
DA:1398,0
DA:1402,0
DA:1403,0
DA:1408,0
DA:1410,0
DA:1398,0
DA:1402,0
DA:1403,0
DA:1408,0
DA:1410,0
DA:1398,0
DA:1402,0
DA:1403,0
DA:1408,0
DA:1410,0
DA:1414,0
DA:1416,0
DA:1417,0
DA:1419,0
DA:1420,0
DA:1421,0
DA:1422,0
DA:1590,27
DA:1639,830
LF:145
LH:11
end_of_record
SF:/usr/share/miniconda/envs/moose/x86_64-conda-linux-gnu/include/c++/9.3.0/initializer_list
DA:79,0
LF:1
LH:0
end_of_record
SF:/home/runner/work/raccoon/raccoon/src/materials/large_deformation_models/HenckyIsotropicElasticity.C
FN:11,_ZN25HenckyIsotropicElasticity11validParamsEv
FNDA:130,_ZN25HenckyIsotropicElasticity11validParamsEv
FN:32,_ZN25HenckyIsotropicElasticityC2ERK15InputParameters
FNDA:24,_ZN25HenckyIsotropicElasticityC2ERK15InputParameters
FN:56,_ZN25HenckyIsotropicElasticity19computeMandelStressERK18RankTwoTensorTemplIN11MetaPhysicL10DualNumberIdNS1_28SemiDynamicSparseNumberArrayIdmNS1_8NWrapperILm50EEEEELb1EEEEb
FNDA:403539,_ZN25HenckyIsotropicElasticity19computeMandelStressERK18RankTwoTensorTemplIN11MetaPhysicL10DualNumberIdNS1_28SemiDynamicSparseNumberArrayIdmNS1_8NWrapperILm50EEEEELb1EEEEb
FN:74,_ZN25HenckyIsotropicElasticity34computeMandelStressNoDecompositionERK18RankTwoTensorTemplIN11MetaPhysicL10DualNumberIdNS1_28SemiDynamicSparseNumberArrayIdmNS1_8NWrapperILm50EEEEELb1EEEEb
FNDA:403539,_ZN25HenckyIsotropicElasticity34computeMandelStressNoDecompositionERK18RankTwoTensorTemplIN11MetaPhysicL10DualNumberIdNS1_28SemiDynamicSparseNumberArrayIdmNS1_8NWrapperILm50EEEEELb1EEEEb
FN:104,_ZN25HenckyIsotropicElasticity38computeMandelStressVolDevDecompositionERK18RankTwoTensorTemplIN11MetaPhysicL10DualNumberIdNS1_28SemiDynamicSparseNumberArrayIdmNS1_8NWrapperILm50EEEEELb1EEEEb
FNDA:0,_ZN25HenckyIsotropicElasticity38computeMandelStressVolDevDecompositionERK18RankTwoTensorTemplIN11MetaPhysicL10DualNumberIdNS1_28SemiDynamicSparseNumberArrayIdmNS1_8NWrapperILm50EEEEELb1EEEEb
FN:143,_ZN25HenckyIsotropicElasticity40computeMandelStressSpectralDecompositionERK18RankTwoTensorTemplIN11MetaPhysicL10DualNumberIdNS1_28SemiDynamicSparseNumberArrayIdmNS1_8NWrapperILm50EEEEELb1EEEEb
FNDA:0,_ZN25HenckyIsotropicElasticity40computeMandelStressSpectralDecompositionERK18RankTwoTensorTemplIN11MetaPhysicL10DualNumberIdNS1_28SemiDynamicSparseNumberArrayIdmNS1_8NWrapperILm50EEEEELb1EEEEb
FNF:6
FNH:4
DA:11,130
DA:13,130
DA:14,130
DA:17,260
DA:18,260
DA:20,260
DA:21,260
DA:25,260
DA:26,390
DA:27,390
DA:29,130
DA:32,24
DA:35,48
DA:36,48
DA:38,48
DA:42,24
DA:43,48
DA:44,72
DA:48,24
DA:49,72
DA:51,288
DA:53,24
DA:56,403539
DA:59,403539
DA:61,403539
DA:62,403539
DA:63,0
DA:64,0
DA:65,0
DA:66,0
DA:68,0
DA:70,403539
DA:74,403539
DA:81,403539
DA:82,537216
DA:84,403539
DA:87,1210620
DA:88,403539
DA:92,403539
DA:95,268608
DA:96,268608
DA:97,411824
DA:100,403539
DA:104,0
DA:111,0
DA:112,0
DA:114,0
DA:117,0
DA:118,0
DA:119,0
DA:120,0
DA:122,0
DA:123,0
DA:124,0
DA:125,0
DA:129,0
DA:132,0
DA:133,0
DA:134,0
DA:135,0
DA:136,0
DA:139,0
DA:143,0
DA:150,0
DA:151,0
DA:153,0
DA:154,0
DA:155,0
DA:156,0
DA:159,0
DA:162,0
DA:163,0
DA:164,0
DA:165,0
DA:168,0
DA:171,0
DA:172,0
DA:173,0
DA:174,0
DA:175,0
DA:176,0
DA:178,0
LF:82
LH:38
end_of_record
SF:/home/runner/work/raccoon/raccoon/moose/framework/build/header_symlinks/MaterialBase.h
FN:78,_ZN12MaterialBase19isInterfaceMaterialEv
FNDA:0,_ZN12MaterialBase19isInterfaceMaterialEv
FN:175,_ZN12MaterialBase17getRequestedItemsB5cxx11Ev
FNDA:0,_ZN12MaterialBase17getRequestedItemsB5cxx11Ev
FN:181,_ZN12MaterialBase16getSuppliedItemsB5cxx11Ev
FNDA:0,_ZN12MaterialBase16getSuppliedItemsB5cxx11Ev
FN:261,_ZNK12MaterialBase9miProblemEv
FNDA:0,_ZNK12MaterialBase9miProblemEv
FN:262,_ZN12MaterialBase9miProblemEv
FNDA:0,_ZN12MaterialBase9miProblemEv
FN:444,_ZN12MaterialBase17declareADPropertyI18RankTwoTensorTemplIdEEER18ADMaterialPropertyIT_ERKNSt7__cxx1112basic_stringIcSt11char_traitsIcESaIcEEE
FNDA:0,_ZN12MaterialBase17declareADPropertyI18RankTwoTensorTemplIdEEER18ADMaterialPropertyIT_ERKNSt7__cxx1112basic_stringIcSt11char_traitsIcESaIcEEE
FN:444,_ZN12MaterialBase17declareADPropertyIdEER18ADMaterialPropertyIT_ERKNSt7__cxx1112basic_stringIcSt11char_traitsIcESaIcEEE
FNDA:0,_ZN12MaterialBase17declareADPropertyIdEER18ADMaterialPropertyIT_ERKNSt7__cxx1112basic_stringIcSt11char_traitsIcESaIcEEE
FN:456,_ZN12MaterialBase23declareADPropertyByNameI18RankTwoTensorTemplIdEEER18ADMaterialPropertyIT_ERKNSt7__cxx1112basic_stringIcSt11char_traitsIcESaIcEEE
FNDA:0,_ZN12MaterialBase23declareADPropertyByNameI18RankTwoTensorTemplIdEEER18ADMaterialPropertyIT_ERKNSt7__cxx1112basic_stringIcSt11char_traitsIcESaIcEEE
FN:456,_ZN12MaterialBase23declareADPropertyByNameIdEER18ADMaterialPropertyIT_ERKNSt7__cxx1112basic_stringIcSt11char_traitsIcESaIcEEE
FNDA:0,_ZN12MaterialBase23declareADPropertyByNameIdEER18ADMaterialPropertyIT_ERKNSt7__cxx1112basic_stringIcSt11char_traitsIcESaIcEEE
FNF:9
FNH:0
DA:78,0
DA:175,0
DA:181,0
DA:261,0
DA:262,0
DA:444,0
DA:448,0
DA:449,0
DA:451,0
DA:444,0
DA:448,0
DA:449,0
DA:451,0
DA:456,0
DA:458,0
DA:462,0
DA:463,0
DA:456,0
DA:458,0
DA:462,0
DA:463,0
LF:21
LH:0
end_of_record
SF:/usr/share/miniconda/envs/moose/libmesh/include/Eigen/src/Core/DenseStorage.h
LF:0
LH:0
end_of_record
SF:/usr/share/miniconda/envs/moose/x86_64-conda-linux-gnu/include/c++/9.3.0/bits/std_function.h
LF:0
LH:0
end_of_record
SF:/home/runner/work/raccoon/raccoon/moose/framework/build/header_symlinks/Coupleable.h
FN:114,_ZNK10Coupleable15coupledCallbackERKNSt7__cxx1112basic_stringIcSt11char_traitsIcESaIcEEEb
FNDA:0,_ZNK10Coupleable15coupledCallbackERKNSt7__cxx1112basic_stringIcSt11char_traitsIcESaIcEEEb
FNF:1
FNH:0
DA:114,0
LF:1
LH:0
end_of_record
SF:/usr/share/miniconda/envs/moose/x86_64-conda-linux-gnu/include/c++/9.3.0/bits/vector.tcc
FN:109,_ZNSt6vectorIPK10MooseArrayIN7libMesh11VectorValueIN11MetaPhysicL10DualNumberIdNS3_28SemiDynamicSparseNumberArrayIdmNS3_8NWrapperILm50EEEEELb1EEEEEESaISD_EE12emplace_backIJSD_EEERSD_DpOT_
FNDA:9,_ZNSt6vectorIPK10MooseArrayIN7libMesh11VectorValueIN11MetaPhysicL10DualNumberIdNS3_28SemiDynamicSparseNumberArrayIdmNS3_8NWrapperILm50EEEEELb1EEEEEESaISD_EE12emplace_backIJSD_EEERSD_DpOT_
FN:109,_ZNSt6vectorIPK10MooseArrayIN11MetaPhysicL10DualNumberIdNS1_28SemiDynamicSparseNumberArrayIdmNS1_8NWrapperILm50EEEEELb1EEEESaISA_EE12emplace_backIJSA_EEERSA_DpOT_
FNDA:9,_ZNSt6vectorIPK10MooseArrayIN11MetaPhysicL10DualNumberIdNS1_28SemiDynamicSparseNumberArrayIdmNS1_8NWrapperILm50EEEEELb1EEEESaISA_EE12emplace_backIJSA_EEERSA_DpOT_
FN:198,_ZNSt6vectorI20MaterialPropertyNameSaIS0_EEaSERKS2_
FNDA:0,_ZNSt6vectorI20MaterialPropertyNameSaIS0_EEaSERKS2_
FN:426,_ZNSt6vectorIPK10MooseArrayIN7libMesh11VectorValueIN11MetaPhysicL10DualNumberIdNS3_28SemiDynamicSparseNumberArrayIdmNS3_8NWrapperILm50EEEEELb1EEEEEESaISD_EE17_M_realloc_insertIJSD_EEEvN9__gnu_cxx17__normal_iteratorIPSD_SF_EEDpOT_
FNDA:54,_ZNSt6vectorIPK10MooseArrayIN7libMesh11VectorValueIN11MetaPhysicL10DualNumberIdNS3_28SemiDynamicSparseNumberArrayIdmNS3_8NWrapperILm50EEEEELb1EEEEEESaISD_EE17_M_realloc_insertIJSD_EEEvN9__gnu_cxx17__normal_iteratorIPSD_SF_EEDpOT_
FN:426,_ZNSt6vectorIPK10MooseArrayIN11MetaPhysicL10DualNumberIdNS1_28SemiDynamicSparseNumberArrayIdmNS1_8NWrapperILm50EEEEELb1EEEESaISA_EE17_M_realloc_insertIJSA_EEEvN9__gnu_cxx17__normal_iteratorIPSA_SC_EEDpOT_
FNDA:450,_ZNSt6vectorIPK10MooseArrayIN11MetaPhysicL10DualNumberIdNS1_28SemiDynamicSparseNumberArrayIdmNS1_8NWrapperILm50EEEEELb1EEEESaISA_EE17_M_realloc_insertIJSA_EEEvN9__gnu_cxx17__normal_iteratorIPSA_SC_EEDpOT_
FN:509,_ZNSt6vectorIP13PropertyValueSaIS1_EE14_M_fill_insertEN9__gnu_cxx17__normal_iteratorIPS1_S3_EEmRKS1_
FNDA:0,_ZNSt6vectorIP13PropertyValueSaIS1_EE14_M_fill_insertEN9__gnu_cxx17__normal_iteratorIPS1_S3_EEmRKS1_
FNF:6
FNH:4
DA:109,9
DA:112,9
DA:115,0
DA:117,0
DA:121,9
DA:123,9
DA:109,9
DA:112,9
DA:115,0
DA:117,0
DA:121,9
DA:123,9
DA:198,0
DA:201,0
DA:223,0
DA:224,0
DA:226,0
DA:228,0
DA:232,0
DA:233,0
DA:234,0
DA:236,0
DA:245,0
DA:246,0
DA:250,0
DA:252,0
DA:426,54
DA:435,54
DA:437,54
DA:438,54
DA:440,54
DA:449,54
DA:450,54
DA:464,54
DA:502,54
DA:503,54
DA:504,54
DA:505,54
DA:426,450
DA:435,450
DA:437,450
DA:438,450
DA:440,450
DA:449,450
DA:450,450
DA:464,450
DA:502,450
DA:503,450
DA:504,450
DA:505,450
DA:509,0
DA:512,0
DA:514,0
DA:515,0
DA:523,0
DA:525,0
DA:528,0
DA:532,0
DA:536,0
DA:542,0
DA:543,0
DA:551,0
DA:558,0
DA:561,0
DA:566,0
DA:573,0
DA:576,0
DA:580,0
DA:601,0
DA:602,0
DA:603,0
DA:606,0
LF:72
LH:32
end_of_record
SF:/home/runner/work/raccoon/raccoon/src/materials/large_deformation_models/LargeDeformationPlasticityModel.C
FN:9,_ZN31LargeDeformationPlasticityModel11validParamsEv
FNDA:228,_ZN31LargeDeformationPlasticityModel11validParamsEv
FN:23,_ZN31LargeDeformationPlasticityModelC2ERK15InputParameters
FNDA:24,_ZN31LargeDeformationPlasticityModelC2ERK15InputParameters
FN:38,_ZN31LargeDeformationPlasticityModel12initialSetupEv
FNDA:24,_ZN31LargeDeformationPlasticityModel12initialSetupEv
FN:48,_ZN31LargeDeformationPlasticityModel5setQpEj
FNDA:113752,_ZN31LargeDeformationPlasticityModel5setQpEj
FN:55,_ZN31LargeDeformationPlasticityModel18setElasticityModelEP31LargeDeformationElasticityModel
FNDA:24,_ZN31LargeDeformationPlasticityModel18setElasticityModelEP31LargeDeformationElasticityModel
FN:62,_ZN31LargeDeformationPlasticityModel24initQpStatefulPropertiesEv
FNDA:12304,_ZN31LargeDeformationPlasticityModel24initQpStatefulPropertiesEv
FNF:6
FNH:6
DA:9,228
DA:11,228
DA:12,228
DA:13,228
DA:15,456
DA:17,228
DA:18,228
DA:20,228
DA:23,24
DA:27,72
DA:29,72
DA:30,72
DA:31,72
DA:32,48
DA:33,192
DA:35,24
DA:38,24
DA:40,24
DA:41,24
DA:42,0
DA:43,0
DA:44,0
DA:45,24
DA:48,113752
DA:50,113752
DA:51,113752
DA:52,113752
DA:55,24
DA:58,24
DA:59,24
DA:62,12304
DA:64,12304
DA:65,12304
DA:66,12304
LF:34
LH:31
end_of_record
SF:/home/runner/work/raccoon/raccoon/moose/framework/build/header_symlinks/MooseEnumItem.h
FN:23,_ZN13MooseEnumItemD2Ev
FNDA:0,_ZN13MooseEnumItemD2Ev
FNF:1
FNH:0
DA:23,0
LF:1
LH:0
end_of_record
SF:/usr/share/miniconda/envs/moose/x86_64-conda-linux-gnu/include/c++/9.3.0/bits/stl_uninitialized.h
FN:76,_ZNSt20__uninitialized_copyILb0EE13__uninit_copyIN9__gnu_cxx17__normal_iteratorIPK20MaterialPropertyNameSt6vectorIS4_SaIS4_EEEEPS4_EET0_T_SD_SC_
FNDA:0,_ZNSt20__uninitialized_copyILb0EE13__uninit_copyIN9__gnu_cxx17__normal_iteratorIPK20MaterialPropertyNameSt6vectorIS4_SaIS4_EEEEPS4_EET0_T_SD_SC_
FN:76,_ZNSt20__uninitialized_copyILb0EE13__uninit_copyIP20MaterialPropertyNameS3_EET0_T_S5_S4_
FNDA:0,_ZNSt20__uninitialized_copyILb0EE13__uninit_copyIP20MaterialPropertyNameS3_EET0_T_S5_S4_
FN:76,_ZNSt20__uninitialized_copyILb0EE13__uninit_copyIPKNSt7__cxx1112basic_stringIcSt11char_traitsIcESaIcEEEPS7_EET0_T_SC_SB_
FNDA:0,_ZNSt20__uninitialized_copyILb0EE13__uninit_copyIPKNSt7__cxx1112basic_stringIcSt11char_traitsIcESaIcEEEPS7_EET0_T_SC_SB_
FNF:3
FNH:0
DA:76,0
DA:82,0
DA:84,0
DA:86,0
DA:89,0
DA:76,0
DA:82,0
DA:84,0
DA:86,0
DA:89,0
DA:76,0
DA:82,0
DA:84,0
DA:86,0
DA:89,0
DA:140,0
DA:307,0
DA:927,504
DA:928,687
DA:929,183
DA:930,504
LF:21
LH:4
end_of_record
SF:/usr/share/miniconda/envs/moose/x86_64-conda-linux-gnu/include/c++/9.3.0/bits/stl_function.h
DA:386,0
DA:1156,0
LF:2
LH:0
end_of_record
SF:/usr/share/miniconda/envs/moose/libmesh/include/libmesh/reference_counter.h
FN:150,_ZN7libMesh16ReferenceCounterC2Ev
FNDA:0,_ZN7libMesh16ReferenceCounterC2Ev
FN:171,_ZN7libMesh16ReferenceCounterD2Ev
FNDA:0,_ZN7libMesh16ReferenceCounterD2Ev
FNF:2
FNH:0
DA:150,0
DA:153,0
DA:171,0
DA:174,0
LF:4
LH:0
end_of_record
SF:/home/runner/work/raccoon/raccoon/moose/framework/build/header_symlinks/MooseObject.h
FN:68,_ZNK11MooseObject4nameB5cxx11Ev
FNDA:0,_ZNK11MooseObject4nameB5cxx11Ev
FN:121,_ZNK11MooseObject7enabledEv
FNDA:0,_ZNK11MooseObject7enabledEv
FN:155,_ZNK11MooseObject10mooseErrorIJRA60_KcEEEvDpOT_
FNDA:0,_ZNK11MooseObject10mooseErrorIJRA60_KcEEEvDpOT_
FN:155,_ZNK11MooseObject10mooseErrorIJRA117_KcEEEvDpOT_
FNDA:0,_ZNK11MooseObject10mooseErrorIJRA117_KcEEEvDpOT_
FN:155,_ZNK11MooseObject10mooseErrorIJRA105_KcEEEvDpOT_
FNDA:0,_ZNK11MooseObject10mooseErrorIJRA105_KcEEEvDpOT_
FN:231,_ZNK11MooseObject13paramErrorMsgIJNSt7__cxx1112basic_stringIcSt11char_traitsIcESaIcEEEEEES6_RKS6_DpT_
FNDA:0,_ZNK11MooseObject13paramErrorMsgIJNSt7__cxx1112basic_stringIcSt11char_traitsIcESaIcEEEEEES6_RKS6_DpT_
FN:231,_ZNK11MooseObject13paramErrorMsgIJPKcEEENSt7__cxx1112basic_stringIcSt11char_traitsIcESaIcEEERKS8_DpT_
FNDA:0,_ZNK11MooseObject13paramErrorMsgIJPKcEEENSt7__cxx1112basic_stringIcSt11char_traitsIcESaIcEEERKS8_DpT_
FN:267,_ZNK11MooseObject10paramErrorIJNSt7__cxx1112basic_stringIcSt11char_traitsIcESaIcEEEEEEvRKS6_DpT_
FNDA:0,_ZNK11MooseObject10paramErrorIJNSt7__cxx1112basic_stringIcSt11char_traitsIcESaIcEEEEEEvRKS6_DpT_
FN:267,_ZNK11MooseObject10paramErrorIJPKcEEEvRKNSt7__cxx1112basic_stringIcSt11char_traitsIcESaIcEEEDpT_
FNDA:0,_ZNK11MooseObject10paramErrorIJPKcEEEvRKNSt7__cxx1112basic_stringIcSt11char_traitsIcESaIcEEEDpT_
FNF:9
FNH:0
DA:68,0
DA:111,81
DA:121,0
DA:155,0
DA:157,0
DA:158,0
DA:160,0
DA:155,0
DA:157,0
DA:158,0
DA:160,0
DA:155,0
DA:157,0
DA:158,0
DA:160,0
DA:231,0
DA:233,0
DA:236,0
DA:237,0
DA:239,0
DA:247,0
DA:250,0
DA:252,0
DA:254,0
DA:231,0
DA:233,0
DA:236,0
DA:237,0
DA:239,0
DA:247,0
DA:250,0
DA:252,0
DA:254,0
DA:262,120
DA:267,0
DA:269,0
DA:270,0
DA:271,0
DA:267,0
DA:269,0
DA:270,0
DA:271,0
LF:42
LH:2
end_of_record
SF:/usr/share/miniconda/envs/moose/libmesh/include/libmesh/tensor_value.h
DA:211,0
DA:212,0
LF:2
LH:0
end_of_record
SF:/usr/share/miniconda/envs/moose/libmesh/include/metaphysicl/dynamicsparsenumberbase_decl.h
FN:47,_ZN11MetaPhysicL23DynamicSparseNumberBaseINS_22DynamicStdArrayWrapperIdNS_8NWrapperILm50EEEEENS1_ImS3_EENS_28SemiDynamicSparseNumberArrayEJdmS3_EEaSEOS7_
FNDA:0,_ZN11MetaPhysicL23DynamicSparseNumberBaseINS_22DynamicStdArrayWrapperIdNS_8NWrapperILm50EEEEENS1_ImS3_EENS_28SemiDynamicSparseNumberArrayEJdmS3_EEaSEOS7_
FN:70,_ZN11MetaPhysicL23DynamicSparseNumberBaseINS_22DynamicStdArrayWrapperIdNS_8NWrapperILm50EEEEENS1_ImS3_EENS_28SemiDynamicSparseNumberArrayEJdmS3_EEC2EOS7_
FNDA:14912,_ZN11MetaPhysicL23DynamicSparseNumberBaseINS_22DynamicStdArrayWrapperIdNS_8NWrapperILm50EEEEENS1_ImS3_EENS_28SemiDynamicSparseNumberArrayEJdmS3_EEC2EOS7_
FNF:2
FNH:1
DA:47,2050510000
DA:70,14912
DA:77,10077
LF:3
LH:3
end_of_record
SF:/home/runner/work/raccoon/raccoon/moose/framework/build/header_symlinks/Assembly.h
DA:265,27
DA:371,27
LF:2
LH:2
end_of_record
SF:/usr/share/miniconda/envs/moose/libmesh/include/libmesh/libmesh_exceptions.h
DA:42,0
DA:54,0
LF:2
LH:0
end_of_record
SF:/home/runner/work/raccoon/raccoon/build/header_symlinks/ComputeDeformationGradient.h
LF:0
LH:0
end_of_record
SF:/home/runner/work/raccoon/raccoon/moose/framework/build/header_symlinks/MooseObjectName.h
FN:56,_ZN15MooseObjectNameD0Ev
FNDA:0,_ZN15MooseObjectNameD0Ev
FN:56,_ZN15MooseObjectNameD2Ev
FNDA:0,_ZN15MooseObjectNameD2Ev
FNF:2
FNH:0
DA:56,0
DA:56,0
LF:2
LH:0
end_of_record
SF:/home/runner/work/raccoon/raccoon/moose/framework/build/header_symlinks/RankTwoTensor.h
FN:598,_ZNK18RankTwoTensorTemplIN11MetaPhysicL10DualNumberIdNS0_28SemiDynamicSparseNumberArrayIdmNS0_8NWrapperILm50EEEEELb1EEEEplIS6_EES_IN7libMesh12CompareTypesIS6_T_E9supertypeEERKNS9_10TypeTensorISB_EE
FNDA:2927990,_ZNK18RankTwoTensorTemplIN11MetaPhysicL10DualNumberIdNS0_28SemiDynamicSparseNumberArrayIdmNS0_8NWrapperILm50EEEEELb1EEEEplIS6_EES_IN7libMesh12CompareTypesIS6_T_E9supertypeEERKNS9_10TypeTensorISB_EE
FN:606,_ZNK18RankTwoTensorTemplIN11MetaPhysicL10DualNumberIdNS0_28SemiDynamicSparseNumberArrayIdmNS0_8NWrapperILm50EEEEELb1EEEEmiIdEES_IN7libMesh12CompareTypesIS6_T_E9supertypeEERKNS9_10TypeTensorISB_EE
FNDA:62224,_ZNK18RankTwoTensorTemplIN11MetaPhysicL10DualNumberIdNS0_28SemiDynamicSparseNumberArrayIdmNS0_8NWrapperILm50EEEEELb1EEEEmiIdEES_IN7libMesh12CompareTypesIS6_T_E9supertypeEERKNS9_10TypeTensorISB_EE
FN:606,_ZNK18RankTwoTensorTemplIN11MetaPhysicL10DualNumberIdNS0_28SemiDynamicSparseNumberArrayIdmNS0_8NWrapperILm50EEEEELb1EEEEmiIS6_EES_IN7libMesh12CompareTypesIS6_T_E9supertypeEERKNS9_10TypeTensorISB_EE
FNDA:0,_ZNK18RankTwoTensorTemplIN11MetaPhysicL10DualNumberIdNS0_28SemiDynamicSparseNumberArrayIdmNS0_8NWrapperILm50EEEEELb1EEEEmiIS6_EES_IN7libMesh12CompareTypesIS6_T_E9supertypeEERKNS9_10TypeTensorISB_EE
FN:613,_ZNK18RankTwoTensorTemplIN11MetaPhysicL10DualNumberIdNS0_28SemiDynamicSparseNumberArrayIdmNS0_8NWrapperILm50EEEEELb1EEEEmlIdLi0EEES_IN7libMesh12CompareTypesIS6_T_E9supertypeEERKSB_
FNDA:227504,_ZNK18RankTwoTensorTemplIN11MetaPhysicL10DualNumberIdNS0_28SemiDynamicSparseNumberArrayIdmNS0_8NWrapperILm50EEEEELb1EEEEmlIdLi0EEES_IN7libMesh12CompareTypesIS6_T_E9supertypeEERKSB_
FN:629,_ZNK18RankTwoTensorTemplIN11MetaPhysicL10DualNumberIdNS0_28SemiDynamicSparseNumberArrayIdmNS0_8NWrapperILm50EEEEELb1EEEEmlIdEES_IN7libMesh12CompareTypesIS6_T_E9supertypeEERKNS9_10TypeTensorISB_EE
FNDA:227504,_ZNK18RankTwoTensorTemplIN11MetaPhysicL10DualNumberIdNS0_28SemiDynamicSparseNumberArrayIdmNS0_8NWrapperILm50EEEEELb1EEEEmlIdEES_IN7libMesh12CompareTypesIS6_T_E9supertypeEERKNS9_10TypeTensorISB_EE
FN:629,_ZNK18RankTwoTensorTemplIN11MetaPhysicL10DualNumberIdNS0_28SemiDynamicSparseNumberArrayIdmNS0_8NWrapperILm50EEEEELb1EEEEmlIS6_EES_IN7libMesh12CompareTypesIS6_T_E9supertypeEERKNS9_10TypeTensorISB_EE
FNDA:95885500,_ZNK18RankTwoTensorTemplIN11MetaPhysicL10DualNumberIdNS0_28SemiDynamicSparseNumberArrayIdmNS0_8NWrapperILm50EEEEELb1EEEEmlIS6_EES_IN7libMesh12CompareTypesIS6_T_E9supertypeEERKNS9_10TypeTensorISB_EE
FN:638,_ZNK18RankTwoTensorTemplIN11MetaPhysicL10DualNumberIdNS0_28SemiDynamicSparseNumberArrayIdmNS0_8NWrapperILm50EEEEELb1EEEEdvIiLi0EEES_IN7libMesh12CompareTypesIS6_T_E9supertypeEERKSB_
FNDA:62224,_ZNK18RankTwoTensorTemplIN11MetaPhysicL10DualNumberIdNS0_28SemiDynamicSparseNumberArrayIdmNS0_8NWrapperILm50EEEEELb1EEEEdvIiLi0EEES_IN7libMesh12CompareTypesIS6_T_E9supertypeEERKSB_
FN:638,_ZNK18RankTwoTensorTemplIN11MetaPhysicL10DualNumberIdNS0_28SemiDynamicSparseNumberArrayIdmNS0_8NWrapperILm50EEEEELb1EEEEdvIdLi0EEES_IN7libMesh12CompareTypesIS6_T_E9supertypeEERKSB_
FNDA:62224,_ZNK18RankTwoTensorTemplIN11MetaPhysicL10DualNumberIdNS0_28SemiDynamicSparseNumberArrayIdmNS0_8NWrapperILm50EEEEELb1EEEEdvIdLi0EEES_IN7libMesh12CompareTypesIS6_T_E9supertypeEERKSB_
FN:638,_ZNK18RankTwoTensorTemplIN11MetaPhysicL10DualNumberIdNS0_28SemiDynamicSparseNumberArrayIdmNS0_8NWrapperILm50EEEEELb1EEEEdvIS6_Li0EEES_IN7libMesh12CompareTypesIS6_T_E9supertypeEERKSB_
FNDA:156952,_ZNK18RankTwoTensorTemplIN11MetaPhysicL10DualNumberIdNS0_28SemiDynamicSparseNumberArrayIdmNS0_8NWrapperILm50EEEEELb1EEEEdvIS6_Li0EEES_IN7libMesh12CompareTypesIS6_T_E9supertypeEERKSB_
FNF:9
FNH:8
DA:585,0
DA:586,0
DA:587,0
DA:588,0
DA:598,2927990
DA:600,2927990
DA:606,62224
DA:608,62224
DA:606,0
DA:608,0
DA:613,227504
DA:616,227504
DA:629,227504
DA:632,227504
DA:629,95885500
DA:632,95885500
DA:638,62224
DA:640,62224
DA:638,62224
DA:640,62224
DA:638,156952
DA:640,156952
LF:22
LH:16
end_of_record
SF:/home/runner/work/raccoon/raccoon/moose/framework/build/header_symlinks/UserObjectInterface.h
FN:93,_ZNK19UserObjectInterface29addUserObjectDependencyHelperERK10UserObject
FNDA:0,_ZNK19UserObjectInterface29addUserObjectDependencyHelperERK10UserObject
FNF:1
FNH:0
DA:93,0
LF:1
LH:0
end_of_record
SF:/home/runner/work/raccoon/raccoon/src/materials/large_deformation_models/LargeDeformationElasticityModel.C
FN:9,_ZN31LargeDeformationElasticityModel11validParamsEv
FNDA:232,_ZN31LargeDeformationElasticityModel11validParamsEv
FN:20,_ZN31LargeDeformationElasticityModelC2ERK15InputParameters
FNDA:27,_ZN31LargeDeformationElasticityModelC2ERK15InputParameters
FN:29,_ZN31LargeDeformationElasticityModel5setQpEj
FNDA:156952,_ZN31LargeDeformationElasticityModel5setQpEj
FN:37,_ZN31LargeDeformationElasticityModel18setPlasticityModelEP31LargeDeformationPlasticityModel
FNDA:24,_ZN31LargeDeformationElasticityModel18setPlasticityModelEP31LargeDeformationPlasticityModel
FN:45,_ZN31LargeDeformationElasticityModel24initQpStatefulPropertiesEv
FNDA:12304,_ZN31LargeDeformationElasticityModel24initQpStatefulPropertiesEv
FN:51,_ZN31LargeDeformationElasticityModel11updateStateERK18RankTwoTensorTemplIN11MetaPhysicL10DualNumberIdNS1_28SemiDynamicSparseNumberArrayIdmNS1_8NWrapperILm50EEEEELb1EEEERS8_
FNDA:156952,_ZN31LargeDeformationElasticityModel11updateStateERK18RankTwoTensorTemplIN11MetaPhysicL10DualNumberIdNS1_28SemiDynamicSparseNumberArrayIdmNS1_8NWrapperILm50EEEEELb1EEEERS8_
FN:62,_ZN31LargeDeformationElasticityModel19computeCauchyStressERK18RankTwoTensorTemplIN11MetaPhysicL10DualNumberIdNS1_28SemiDynamicSparseNumberArrayIdmNS1_8NWrapperILm50EEEEELb1EEEE
FNDA:156952,_ZN31LargeDeformationElasticityModel19computeCauchyStressERK18RankTwoTensorTemplIN11MetaPhysicL10DualNumberIdNS1_28SemiDynamicSparseNumberArrayIdmNS1_8NWrapperILm50EEEEELb1EEEE
FNF:7
FNH:7
DA:9,232
DA:11,232
DA:12,232
DA:14,232
DA:15,232
DA:17,232
DA:20,27
DA:24,54
DA:26,27
DA:29,156952
DA:31,156952
DA:32,156952
DA:33,113752
DA:34,156952
DA:37,24
DA:40,24
DA:41,24
DA:42,24
DA:45,12304
DA:47,12304
DA:48,12304
DA:51,156952
DA:53,156952
DA:55,156952
DA:56,113752
DA:58,43200
DA:59,156952
DA:62,156952
DA:64,156952
LF:29
LH:29
end_of_record
SF:/home/runner/work/raccoon/raccoon/moose/framework/build/header_symlinks/ElementIDInterface.h
LF:0
LH:0
end_of_record
SF:/usr/share/miniconda/envs/moose/x86_64-conda-linux-gnu/include/c++/9.3.0/ext/new_allocator.h
DA:114,108
DA:128,6592
DA:147,108
DA:153,108
LF:4
LH:4
end_of_record
SF:/usr/share/miniconda/envs/moose/x86_64-conda-linux-gnu/include/c++/9.3.0/streambuf
LF:0
LH:0
end_of_record
SF:/home/runner/work/raccoon/raccoon/moose/framework/build/header_symlinks/Material.h
FN:39,_ZNK8Material12getElementIDERKNSt7__cxx1112basic_stringIcSt11char_traitsIcESaIcEEEj
FNDA:0,_ZNK8Material12getElementIDERKNSt7__cxx1112basic_stringIcSt11char_traitsIcESaIcEEEj
FN:49,_ZNK8Material20getElementIDNeighborERKNSt7__cxx1112basic_stringIcSt11char_traitsIcESaIcEEEj
FNDA:0,_ZNK8Material20getElementIDNeighborERKNSt7__cxx1112basic_stringIcSt11char_traitsIcESaIcEEEj
FN:63,_ZNK8Material18getElementIDByNameERKNSt7__cxx1112basic_stringIcSt11char_traitsIcESaIcEEE
FNDA:0,_ZNK8Material18getElementIDByNameERKNSt7__cxx1112basic_stringIcSt11char_traitsIcESaIcEEE
FN:73,_ZNK8Material26getElementIDNeighborByNameERKNSt7__cxx1112basic_stringIcSt11char_traitsIcESaIcEEE
FNDA:0,_ZNK8Material26getElementIDNeighborByNameERKNSt7__cxx1112basic_stringIcSt11char_traitsIcESaIcEEE
FN:135,_ZNK8Material18isBoundaryMaterialEv
FNDA:0,_ZNK8Material18isBoundaryMaterialEv
FN:137,_ZNK8Material22getMatPropDependenciesEv
FNDA:0,_ZNK8Material22getMatPropDependenciesEv
FN:150,_ZNK8Material9ghostableEv
FNDA:0,_ZNK8Material9ghostableEv
FN:153,_ZNK8Material12materialDataEv
FNDA:0,_ZNK8Material12materialDataEv
FN:154,_ZN8Material12materialDataEv
FNDA:0,_ZN8Material12materialDataEv
FN:156,_ZNK8Material5qRuleEv
FNDA:0,_ZNK8Material5qRuleEv
FN:203,_ZN8Material21getADMaterialPropertyIdEERK18ADMaterialPropertyIT_ERKNSt7__cxx1112basic_stringIcSt11char_traitsIcESaIcEEE
FNDA:0,_ZN8Material21getADMaterialPropertyIdEERK18ADMaterialPropertyIT_ERKNSt7__cxx1112basic_stringIcSt11char_traitsIcESaIcEEE
FN:203,_ZN8Material21getADMaterialPropertyI18RankTwoTensorTemplIdEEERK18ADMaterialPropertyIT_ERKNSt7__cxx1112basic_stringIcSt11char_traitsIcESaIcEEE
FNDA:0,_ZN8Material21getADMaterialPropertyI18RankTwoTensorTemplIdEEERK18ADMaterialPropertyIT_ERKNSt7__cxx1112basic_stringIcSt11char_traitsIcESaIcEEE
FN:218,_ZN8Material22getMaterialPropertyOldI18RankTwoTensorTemplIdEEERK16MaterialPropertyIT_ERKNSt7__cxx1112basic_stringIcSt11char_traitsIcESaIcEEE
FNDA:3,_ZN8Material22getMaterialPropertyOldI18RankTwoTensorTemplIdEEERK16MaterialPropertyIT_ERKNSt7__cxx1112basic_stringIcSt11char_traitsIcESaIcEEE
FN:264,_ZN8Material27getADMaterialPropertyByNameI18RankTwoTensorTemplIdEEERK18ADMaterialPropertyIT_ERKNSt7__cxx1112basic_stringIcSt11char_traitsIcESaIcEEE
FNDA:0,_ZN8Material27getADMaterialPropertyByNameI18RankTwoTensorTemplIdEEERK18ADMaterialPropertyIT_ERKNSt7__cxx1112basic_stringIcSt11char_traitsIcESaIcEEE
FN:264,_ZN8Material27getADMaterialPropertyByNameIdEERK18ADMaterialPropertyIT_ERKNSt7__cxx1112basic_stringIcSt11char_traitsIcESaIcEEE
FNDA:0,_ZN8Material27getADMaterialPropertyByNameIdEERK18ADMaterialPropertyIT_ERKNSt7__cxx1112basic_stringIcSt11char_traitsIcESaIcEEE
FN:280,_ZN8Material28getMaterialPropertyOldByNameI18RankTwoTensorTemplIdEEERK16MaterialPropertyIT_ERKNSt7__cxx1112basic_stringIcSt11char_traitsIcESaIcEEE
FNDA:0,_ZN8Material28getMaterialPropertyOldByNameI18RankTwoTensorTemplIdEEERK16MaterialPropertyIT_ERKNSt7__cxx1112basic_stringIcSt11char_traitsIcESaIcEEE
FN:280,_ZN8Material28getMaterialPropertyOldByNameIdEERK16MaterialPropertyIT_ERKNSt7__cxx1112basic_stringIcSt11char_traitsIcESaIcEEE
FNDA:0,_ZN8Material28getMaterialPropertyOldByNameIdEERK16MaterialPropertyIT_ERKNSt7__cxx1112basic_stringIcSt11char_traitsIcESaIcEEE
FNF:17
FNH:1
DA:39,0
DA:42,0
DA:43,0
DA:49,0
DA:52,0
DA:63,0
DA:65,0
DA:66,0
DA:73,0
DA:75,0
DA:135,24
DA:137,0
DA:139,0
DA:150,0
DA:153,0
DA:154,0
DA:156,0
DA:203,0
DA:206,0
DA:213,0
DA:203,0
DA:206,0
DA:209,0
DA:210,0
DA:213,0
DA:218,3
DA:221,3
DA:228,3
DA:264,0
DA:266,0
DA:269,0
DA:274,0
DA:275,0
DA:264,0
DA:266,0
DA:269,0
DA:274,0
DA:275,0
DA:280,0
DA:282,0
DA:286,0
DA:287,0
DA:280,0
DA:282,0
DA:286,0
DA:287,0
LF:46
LH:4
end_of_record
SF:/home/runner/work/raccoon/raccoon/build/header_symlinks/PlasticHardeningModel.h
FN:18,_ZN21PlasticHardeningModel5setQpEj
FNDA:113752,_ZN21PlasticHardeningModel5setQpEj
FN:39,_ZN21PlasticHardeningModel18plasticDissipationERKN11MetaPhysicL10DualNumberIdNS0_28SemiDynamicSparseNumberArrayIdmNS0_8NWrapperILm50EEEEELb1EEES8_j
FNDA:222563,_ZN21PlasticHardeningModel18plasticDissipationERKN11MetaPhysicL10DualNumberIdNS0_28SemiDynamicSparseNumberArrayIdmNS0_8NWrapperILm50EEEEELb1EEES8_j
FN:51,_ZN21PlasticHardeningModel16thermalConjugateERKN11MetaPhysicL10DualNumberIdNS0_28SemiDynamicSparseNumberArrayIdmNS0_8NWrapperILm50EEEEELb1EEE
FNDA:110640,_ZN21PlasticHardeningModel16thermalConjugateERKN11MetaPhysicL10DualNumberIdNS0_28SemiDynamicSparseNumberArrayIdmNS0_8NWrapperILm50EEEEELb1EEE
FNF:3
FNH:3
DA:18,113752
DA:39,222563
DA:43,222563
DA:51,110640
LF:4
LH:4
end_of_record
SF:/home/runner/work/raccoon/raccoon/build/header_symlinks/ComputeLargeDeformationStress.h
LF:0
LH:0
end_of_record
SF:/home/runner/work/raccoon/raccoon/moose/framework/build/header_symlinks/MaterialProperty.h
FN:111,_ZN20MaterialPropertyBaseIdLb1EED2Ev
FNDA:0,_ZN20MaterialPropertyBaseIdLb1EED2Ev
FN:111,_ZN20MaterialPropertyBaseIN7libMesh11VectorValueIdEELb1EED0Ev
FNDA:0,_ZN20MaterialPropertyBaseIN7libMesh11VectorValueIdEELb1EED0Ev
FN:111,_ZN20MaterialPropertyBaseIN7libMesh11VectorValueIdEELb1EED2Ev
FNDA:0,_ZN20MaterialPropertyBaseIN7libMesh11VectorValueIdEELb1EED2Ev
FN:111,_ZN20MaterialPropertyBaseIN7libMesh11VectorValueIdEELb0EED0Ev
FNDA:0,_ZN20MaterialPropertyBaseIN7libMesh11VectorValueIdEELb0EED0Ev
FN:111,_ZN20MaterialPropertyBaseIN7libMesh11VectorValueIdEELb0EED2Ev
FNDA:0,_ZN20MaterialPropertyBaseIN7libMesh11VectorValueIdEELb0EED2Ev
FN:111,_ZN20MaterialPropertyBaseI18RankTwoTensorTemplIdELb0EED0Ev
FNDA:0,_ZN20MaterialPropertyBaseI18RankTwoTensorTemplIdELb0EED0Ev
FN:111,_ZN20MaterialPropertyBaseI18RankTwoTensorTemplIdELb0EED2Ev
FNDA:0,_ZN20MaterialPropertyBaseI18RankTwoTensorTemplIdELb0EED2Ev
FN:111,_ZN20MaterialPropertyBaseI18RankTwoTensorTemplIdELb1EED0Ev
FNDA:0,_ZN20MaterialPropertyBaseI18RankTwoTensorTemplIdELb1EED0Ev
FN:111,_ZN20MaterialPropertyBaseI18RankTwoTensorTemplIdELb1EED2Ev
FNDA:0,_ZN20MaterialPropertyBaseI18RankTwoTensorTemplIdELb1EED2Ev
FN:111,_ZN20MaterialPropertyBaseIdLb0EED0Ev
FNDA:0,_ZN20MaterialPropertyBaseIdLb0EED0Ev
FN:111,_ZN20MaterialPropertyBaseIdLb0EED2Ev
FNDA:0,_ZN20MaterialPropertyBaseIdLb0EED2Ev
FN:111,_ZN20MaterialPropertyBaseIdLb1EED0Ev
FNDA:0,_ZN20MaterialPropertyBaseIdLb1EED0Ev
FN:113,_ZN20MaterialPropertyBaseIdLb1EE4isADEv
FNDA:0,_ZN20MaterialPropertyBaseIdLb1EE4isADEv
FN:113,_ZN20MaterialPropertyBaseI18RankTwoTensorTemplIdELb0EE4isADEv
FNDA:0,_ZN20MaterialPropertyBaseI18RankTwoTensorTemplIdELb0EE4isADEv
FN:113,_ZN20MaterialPropertyBaseIdLb0EE4isADEv
FNDA:0,_ZN20MaterialPropertyBaseIdLb0EE4isADEv
FN:113,_ZN20MaterialPropertyBaseIN7libMesh11VectorValueIdEELb0EE4isADEv
FNDA:0,_ZN20MaterialPropertyBaseIN7libMesh11VectorValueIdEELb0EE4isADEv
FN:113,_ZN20MaterialPropertyBaseIN7libMesh11VectorValueIdEELb1EE4isADEv
FNDA:0,_ZN20MaterialPropertyBaseIN7libMesh11VectorValueIdEELb1EE4isADEv
FN:113,_ZN20MaterialPropertyBaseI18RankTwoTensorTemplIdELb1EE4isADEv
FNDA:0,_ZN20MaterialPropertyBaseI18RankTwoTensorTemplIdELb1EE4isADEv
FN:135,_ZNK20MaterialPropertyBaseIN7libMesh11VectorValueIdEELb1EE4sizeEv
FNDA:0,_ZNK20MaterialPropertyBaseIN7libMesh11VectorValueIdEELb1EE4sizeEv
FN:135,_ZNK20MaterialPropertyBaseI18RankTwoTensorTemplIdELb1EE4sizeEv
FNDA:0,_ZNK20MaterialPropertyBaseI18RankTwoTensorTemplIdELb1EE4sizeEv
FN:135,_ZNK20MaterialPropertyBaseIN7libMesh11VectorValueIdEELb0EE4sizeEv
FNDA:0,_ZNK20MaterialPropertyBaseIN7libMesh11VectorValueIdEELb0EE4sizeEv
FN:135,_ZNK20MaterialPropertyBaseIdLb0EE4sizeEv
FNDA:0,_ZNK20MaterialPropertyBaseIdLb0EE4sizeEv
FN:135,_ZNK20MaterialPropertyBaseI18RankTwoTensorTemplIdELb0EE4sizeEv
FNDA:0,_ZNK20MaterialPropertyBaseI18RankTwoTensorTemplIdELb0EE4sizeEv
FN:135,_ZNK20MaterialPropertyBaseIdLb1EE4sizeEv
FNDA:0,_ZNK20MaterialPropertyBaseIdLb1EE4sizeEv
FN:219,_ZN5moose8internal22rawValueEqualityHelperI18RankTwoTensorTemplIdES2_IN11MetaPhysicL10DualNumberIdNS4_28SemiDynamicSparseNumberArrayIdmNS4_8NWrapperILm50EEEEELb1EEEEEEvRT_RKT0_
FNDA:0,_ZN5moose8internal22rawValueEqualityHelperI18RankTwoTensorTemplIdES2_IN11MetaPhysicL10DualNumberIdNS4_28SemiDynamicSparseNumberArrayIdmNS4_8NWrapperILm50EEEEELb1EEEEEEvRT_RKT0_
FN:219,_ZN5moose8internal22rawValueEqualityHelperI18RankTwoTensorTemplIN11MetaPhysicL10DualNumberIdNS3_28SemiDynamicSparseNumberArrayIdmNS3_8NWrapperILm50EEEEELb1EEEES2_IdEEEvRT_RKT0_
FNDA:0,_ZN5moose8internal22rawValueEqualityHelperI18RankTwoTensorTemplIN11MetaPhysicL10DualNumberIdNS3_28SemiDynamicSparseNumberArrayIdmNS3_8NWrapperILm50EEEEELb1EEEES2_IdEEEvRT_RKT0_
FN:219,_ZN5moose8internal22rawValueEqualityHelperIN7libMesh11VectorValueIN11MetaPhysicL10DualNumberIdNS4_28SemiDynamicSparseNumberArrayIdmNS4_8NWrapperILm50EEEEELb1EEEEENS3_IdEEEEvRT_RKT0_
FNDA:0,_ZN5moose8internal22rawValueEqualityHelperIN7libMesh11VectorValueIN11MetaPhysicL10DualNumberIdNS4_28SemiDynamicSparseNumberArrayIdmNS4_8NWrapperILm50EEEEELb1EEEEENS3_IdEEEEvRT_RKT0_
FN:237,_ZN20MaterialPropertyBaseIN7libMesh11VectorValueIdEELb0EE4typeB5cxx11Ev
FNDA:0,_ZN20MaterialPropertyBaseIN7libMesh11VectorValueIdEELb0EE4typeB5cxx11Ev
FN:237,_ZN20MaterialPropertyBaseIdLb1EE4typeB5cxx11Ev
FNDA:0,_ZN20MaterialPropertyBaseIdLb1EE4typeB5cxx11Ev
FN:237,_ZN20MaterialPropertyBaseIN7libMesh11VectorValueIdEELb1EE4typeB5cxx11Ev
FNDA:0,_ZN20MaterialPropertyBaseIN7libMesh11VectorValueIdEELb1EE4typeB5cxx11Ev
FN:237,_ZN20MaterialPropertyBaseI18RankTwoTensorTemplIdELb1EE4typeB5cxx11Ev
FNDA:0,_ZN20MaterialPropertyBaseI18RankTwoTensorTemplIdELb1EE4typeB5cxx11Ev
FN:237,_ZN20MaterialPropertyBaseIdLb0EE4typeB5cxx11Ev
FNDA:0,_ZN20MaterialPropertyBaseIdLb0EE4typeB5cxx11Ev
FN:237,_ZN20MaterialPropertyBaseI18RankTwoTensorTemplIdELb0EE4typeB5cxx11Ev
FNDA:0,_ZN20MaterialPropertyBaseI18RankTwoTensorTemplIdELb0EE4typeB5cxx11Ev
FN:244,_ZN20MaterialPropertyBaseI18RankTwoTensorTemplIdELb0EE6resizeEi
FNDA:0,_ZN20MaterialPropertyBaseI18RankTwoTensorTemplIdELb0EE6resizeEi
FN:244,_ZN20MaterialPropertyBaseIdLb0EE6resizeEi
FNDA:0,_ZN20MaterialPropertyBaseIdLb0EE6resizeEi
FN:244,_ZN20MaterialPropertyBaseIdLb1EE6resizeEi
FNDA:0,_ZN20MaterialPropertyBaseIdLb1EE6resizeEi
FN:244,_ZN20MaterialPropertyBaseIN7libMesh11VectorValueIdEELb1EE6resizeEi
FNDA:0,_ZN20MaterialPropertyBaseIN7libMesh11VectorValueIdEELb1EE6resizeEi
FN:244,_ZN20MaterialPropertyBaseI18RankTwoTensorTemplIdELb1EE6resizeEi
FNDA:0,_ZN20MaterialPropertyBaseI18RankTwoTensorTemplIdELb1EE6resizeEi
FN:244,_ZN20MaterialPropertyBaseIN7libMesh11VectorValueIdEELb0EE6resizeEi
FNDA:0,_ZN20MaterialPropertyBaseIN7libMesh11VectorValueIdEELb0EE6resizeEi
FN:251,_ZN20MaterialPropertyBaseIN7libMesh11VectorValueIdEELb1EE6qpCopyEjP13PropertyValuej
FNDA:0,_ZN20MaterialPropertyBaseIN7libMesh11VectorValueIdEELb1EE6qpCopyEjP13PropertyValuej
FN:251,_ZN20MaterialPropertyBaseI18RankTwoTensorTemplIdELb0EE6qpCopyEjP13PropertyValuej
FNDA:0,_ZN20MaterialPropertyBaseI18RankTwoTensorTemplIdELb0EE6qpCopyEjP13PropertyValuej
FN:251,_ZN20MaterialPropertyBaseIdLb1EE6qpCopyEjP13PropertyValuej
FNDA:0,_ZN20MaterialPropertyBaseIdLb1EE6qpCopyEjP13PropertyValuej
FN:251,_ZN20MaterialPropertyBaseI18RankTwoTensorTemplIdELb1EE6qpCopyEjP13PropertyValuej
FNDA:0,_ZN20MaterialPropertyBaseI18RankTwoTensorTemplIdELb1EE6qpCopyEjP13PropertyValuej
FN:251,_ZN20MaterialPropertyBaseIdLb0EE6qpCopyEjP13PropertyValuej
FNDA:0,_ZN20MaterialPropertyBaseIdLb0EE6qpCopyEjP13PropertyValuej
FN:251,_ZN20MaterialPropertyBaseIN7libMesh11VectorValueIdEELb0EE6qpCopyEjP13PropertyValuej
FNDA:0,_ZN20MaterialPropertyBaseIN7libMesh11VectorValueIdEELb0EE6qpCopyEjP13PropertyValuej
FN:268,_ZN20MaterialPropertyBaseI18RankTwoTensorTemplIdELb0EE5storeERSo
FNDA:0,_ZN20MaterialPropertyBaseI18RankTwoTensorTemplIdELb0EE5storeERSo
FN:268,_ZN20MaterialPropertyBaseIdLb1EE5storeERSo
FNDA:0,_ZN20MaterialPropertyBaseIdLb1EE5storeERSo
FN:268,_ZN20MaterialPropertyBaseIN7libMesh11VectorValueIdEELb1EE5storeERSo
FNDA:0,_ZN20MaterialPropertyBaseIN7libMesh11VectorValueIdEELb1EE5storeERSo
FN:268,_ZN20MaterialPropertyBaseI18RankTwoTensorTemplIdELb1EE5storeERSo
FNDA:0,_ZN20MaterialPropertyBaseI18RankTwoTensorTemplIdELb1EE5storeERSo
FN:268,_ZN20MaterialPropertyBaseIN7libMesh11VectorValueIdEELb0EE5storeERSo
FNDA:0,_ZN20MaterialPropertyBaseIN7libMesh11VectorValueIdEELb0EE5storeERSo
FN:268,_ZN20MaterialPropertyBaseIdLb0EE5storeERSo
FNDA:0,_ZN20MaterialPropertyBaseIdLb0EE5storeERSo
FN:276,_ZN20MaterialPropertyBaseIN7libMesh11VectorValueIdEELb0EE4loadERSi
FNDA:0,_ZN20MaterialPropertyBaseIN7libMesh11VectorValueIdEELb0EE4loadERSi
FN:276,_ZN20MaterialPropertyBaseIdLb1EE4loadERSi
FNDA:0,_ZN20MaterialPropertyBaseIdLb1EE4loadERSi
FN:276,_ZN20MaterialPropertyBaseI18RankTwoTensorTemplIdELb0EE4loadERSi
FNDA:0,_ZN20MaterialPropertyBaseI18RankTwoTensorTemplIdELb0EE4loadERSi
FN:276,_ZN20MaterialPropertyBaseI18RankTwoTensorTemplIdELb1EE4loadERSi
FNDA:0,_ZN20MaterialPropertyBaseI18RankTwoTensorTemplIdELb1EE4loadERSi
FN:276,_ZN20MaterialPropertyBaseIdLb0EE4loadERSi
FNDA:0,_ZN20MaterialPropertyBaseIdLb0EE4loadERSi
FN:276,_ZN20MaterialPropertyBaseIN7libMesh11VectorValueIdEELb1EE4loadERSi
FNDA:0,_ZN20MaterialPropertyBaseIN7libMesh11VectorValueIdEELb1EE4loadERSi
FN:284,_ZN20MaterialPropertyBaseIN7libMesh11VectorValueIdEELb0EE4swapEP13PropertyValue
FNDA:0,_ZN20MaterialPropertyBaseIN7libMesh11VectorValueIdEELb0EE4swapEP13PropertyValue
FN:284,_ZN20MaterialPropertyBaseI18RankTwoTensorTemplIdELb1EE4swapEP13PropertyValue
FNDA:0,_ZN20MaterialPropertyBaseI18RankTwoTensorTemplIdELb1EE4swapEP13PropertyValue
FN:284,_ZN20MaterialPropertyBaseIN7libMesh11VectorValueIdEELb1EE4swapEP13PropertyValue
FNDA:0,_ZN20MaterialPropertyBaseIN7libMesh11VectorValueIdEELb1EE4swapEP13PropertyValue
FN:284,_ZN20MaterialPropertyBaseIdLb1EE4swapEP13PropertyValue
FNDA:0,_ZN20MaterialPropertyBaseIdLb1EE4swapEP13PropertyValue
FN:284,_ZN20MaterialPropertyBaseI18RankTwoTensorTemplIdELb0EE4swapEP13PropertyValue
FNDA:0,_ZN20MaterialPropertyBaseI18RankTwoTensorTemplIdELb0EE4swapEP13PropertyValue
FN:284,_ZN20MaterialPropertyBaseIdLb0EE4swapEP13PropertyValue
FNDA:0,_ZN20MaterialPropertyBaseIdLb0EE4swapEP13PropertyValue
FN:322,_ZN16MaterialPropertyI18RankTwoTensorTemplIdEE4initEi
FNDA:0,_ZN16MaterialPropertyI18RankTwoTensorTemplIdEE4initEi
FN:322,_ZN16MaterialPropertyIdE4initEi
FNDA:0,_ZN16MaterialPropertyIdE4initEi
FN:322,_ZN16MaterialPropertyIN7libMesh11VectorValueIdEEE4initEi
FNDA:0,_ZN16MaterialPropertyIN7libMesh11VectorValueIdEEE4initEi
FN:346,_ZN18ADMaterialPropertyIN7libMesh11VectorValueIdEEE4initEi
FNDA:0,_ZN18ADMaterialPropertyIN7libMesh11VectorValueIdEEE4initEi
FN:346,_ZN18ADMaterialPropertyIdE4initEi
FNDA:0,_ZN18ADMaterialPropertyIdE4initEi
FN:346,_ZN18ADMaterialPropertyI18RankTwoTensorTemplIdEE4initEi
FNDA:0,_ZN18ADMaterialPropertyI18RankTwoTensorTemplIdEE4initEi
FNF:69
FNH:0
DA:107,0
DA:111,0
DA:111,0
DA:111,0
DA:111,0
DA:111,0
DA:111,0
DA:111,0
DA:111,0
DA:111,0
DA:111,0
DA:111,0
DA:111,0
DA:113,0
DA:113,0
DA:113,0
DA:113,0
DA:113,0
DA:113,0
DA:135,0
DA:135,0
DA:135,0
DA:135,0
DA:135,0
DA:135,0
DA:140,3025440
DA:145,2646620
DA:173,0
DA:219,0
DA:221,0
DA:222,0
DA:219,0
DA:221,0
DA:222,0
DA:219,0
DA:221,0
DA:222,0
DA:221,0
DA:222,0
DA:237,0
DA:239,0
DA:237,0
DA:239,0
DA:237,0
DA:239,0
DA:237,0
DA:239,0
DA:237,0
DA:239,0
DA:237,0
DA:239,0
DA:244,0
DA:246,0
DA:247,0
DA:244,0
DA:246,0
DA:247,0
DA:244,0
DA:246,0
DA:247,0
DA:244,0
DA:246,0
DA:247,0
DA:244,0
DA:246,0
DA:247,0
DA:244,0
DA:246,0
DA:247,0
DA:251,0
DA:258,0
DA:259,0
DA:262,0
DA:264,0
DA:251,0
DA:258,0
DA:259,0
DA:262,0
DA:264,0
DA:251,0
DA:258,0
DA:259,0
DA:262,0
DA:264,0
DA:251,0
DA:258,0
DA:259,0
DA:262,0
DA:264,0
DA:251,0
DA:258,0
DA:259,0
DA:262,0
DA:264,0
DA:251,0
DA:258,0
DA:259,0
DA:262,0
DA:264,0
DA:268,0
DA:270,0
DA:271,0
DA:272,0
DA:268,0
DA:270,0
DA:271,0
DA:272,0
DA:268,0
DA:270,0
DA:271,0
DA:272,0
DA:268,0
DA:270,0
DA:271,0
DA:272,0
DA:268,0
DA:270,0
DA:271,0
DA:272,0
DA:268,0
DA:270,0
DA:271,0
DA:272,0
DA:276,0
DA:278,0
DA:279,0
DA:280,0
DA:276,0
DA:278,0
DA:279,0
DA:280,0
DA:276,0
DA:278,0
DA:279,0
DA:280,0
DA:276,0
DA:278,0
DA:279,0
DA:280,0
DA:276,0
DA:278,0
DA:279,0
DA:280,0
DA:276,0
DA:278,0
DA:279,0
DA:280,0
DA:284,0
DA:289,0
DA:292,0
DA:307,0
DA:311,0
DA:312,0
DA:313,0
DA:284,0
DA:289,0
DA:292,0
DA:307,0
DA:311,0
DA:312,0
DA:313,0
DA:284,0
DA:289,0
DA:292,0
DA:307,0
DA:311,0
DA:312,0
DA:313,0
DA:284,0
DA:289,0
DA:292,0
DA:307,0
DA:311,0
DA:312,0
DA:313,0
DA:284,0
DA:289,0
DA:292,0
DA:307,0
DA:311,0
DA:312,0
DA:313,0
DA:284,0
DA:289,0
DA:292,0
DA:307,0
DA:311,0
DA:312,0
DA:313,0
DA:320,0
DA:322,0
DA:322,0
DA:322,0
DA:342,0
DA:346,0
DA:346,0
DA:346,0
LF:197
LH:2
end_of_record
SF:/home/runner/work/raccoon/raccoon/moose/framework/build/header_symlinks/MooseEnumBase.h
FN:51,_ZN13MooseEnumBaseD0Ev
FNDA:0,_ZN13MooseEnumBaseD0Ev
FN:51,_ZN13MooseEnumBaseD2Ev
FNDA:232,_ZN13MooseEnumBaseD2Ev
FNF:2
FNH:1
DA:24,0
DA:51,0
DA:51,232
LF:3
LH:1
end_of_record
SF:/usr/share/miniconda/envs/moose/libmesh/include/libmesh/elem.h
FN:564,_ZNK7libMesh4Elem9is_remoteEv
FNDA:0,_ZNK7libMesh4Elem9is_remoteEv
FN:622,_ZNK7libMesh4Elem16n_nodes_in_childEj
FNDA:0,_ZNK7libMesh4Elem16n_nodes_in_childEj
FN:703,_ZNK7libMesh4Elem18is_vertex_on_childEjj
FNDA:0,_ZNK7libMesh4Elem18is_vertex_on_childEjj
FN:972,_ZNK7libMesh4Elem11qual_boundsENS_11ElemQualityE
FNDA:0,_ZNK7libMesh4Elem11qual_boundsENS_11ElemQualityE
FN:1012,_ZNK7libMesh4Elem14has_affine_mapEv
FNDA:0,_ZNK7libMesh4Elem14has_affine_mapEv
FN:1028,_ZNK7libMesh4Elem9is_linearEv
FNDA:0,_ZNK7libMesh4Elem9is_linearEv
FN:1632,_ZNK7libMesh4Elem19local_singular_nodeERKNS_5PointEd
FNDA:0,_ZNK7libMesh4Elem19local_singular_nodeERKNS_5PointEd
FN:1639,_ZNK7libMesh4Elem16is_singular_nodeEj
FNDA:0,_ZNK7libMesh4Elem16is_singular_nodeEj
FN:1799,_ZNK7libMesh4Elem24embedding_matrix_versionEv
FNDA:0,_ZNK7libMesh4Elem24embedding_matrix_versionEv
FN:1915,_ZNK7libMesh4Elem26_get_bracketing_node_cacheEv
FNDA:0,_ZNK7libMesh4Elem26_get_bracketing_node_cacheEv
FN:1929,_ZNK7libMesh4Elem25_get_parent_indices_cacheEv
FNDA:0,_ZNK7libMesh4Elem25_get_parent_indices_cacheEv
FN:2267,_ZN7libMesh4Elem8set_nodeEj
FNDA:0,_ZN7libMesh4Elem8set_nodeEj
FNF:12
FNH:0
DA:564,0
DA:565,0
DA:622,0
DA:623,0
DA:703,0
DA:705,0
DA:972,0
DA:973,0
DA:1012,0
DA:1028,0
DA:1632,0
DA:1633,0
DA:1639,0
DA:1799,0
DA:1915,0
DA:1917,0
DA:1918,0
DA:1929,0
DA:1931,0
DA:1932,0
DA:2267,0
DA:2271,0
LF:22
LH:0
end_of_record
SF:/home/runner/work/raccoon/raccoon/moose/modules/tensor_mechanics/build/header_symlinks/ADSingleVariableReturnMappingSolution.h
FN:28,_ZN37ADSingleVariableReturnMappingSolutionD0Ev
FNDA:0,_ZN37ADSingleVariableReturnMappingSolutionD0Ev
FN:28,_ZN37ADSingleVariableReturnMappingSolutionD2Ev
FNDA:24,_ZN37ADSingleVariableReturnMappingSolutionD2Ev
FN:62,_ZN37ADSingleVariableReturnMappingSolution12initialGuessERKN11MetaPhysicL10DualNumberIdNS0_28SemiDynamicSparseNumberArrayIdmNS0_8NWrapperILm50EEEEELb1EEE
FNDA:0,_ZN37ADSingleVariableReturnMappingSolution12initialGuessERKN11MetaPhysicL10DualNumberIdNS0_28SemiDynamicSparseNumberArrayIdmNS0_8NWrapperILm50EEEEELb1EEE
FN:94,_ZN37ADSingleVariableReturnMappingSolution17iterationFinalizeEN11MetaPhysicL10DualNumberIdNS0_28SemiDynamicSparseNumberArrayIdmNS0_8NWrapperILm50EEEEELb1EEE
FNDA:0,_ZN37ADSingleVariableReturnMappingSolution17iterationFinalizeEN11MetaPhysicL10DualNumberIdNS0_28SemiDynamicSparseNumberArrayIdmNS0_8NWrapperILm50EEEEELb1EEE
FNF:4
FNH:1
DA:28,0
DA:28,24
DA:62,0
DA:94,0
LF:4
LH:1
end_of_record
SF:/home/runner/work/raccoon/raccoon/build/header_symlinks/LargeDeformationNewtonianViscosity.h
LF:0
LH:0
end_of_record
SF:/home/runner/work/raccoon/raccoon/src/materials/large_deformation_models/LargeDeformationViscoelasticityModel.C
FN:8,_ZN36LargeDeformationViscoelasticityModel11validParamsEv
FNDA:102,_ZN36LargeDeformationViscoelasticityModel11validParamsEv
FN:19,_ZN36LargeDeformationViscoelasticityModelC2ERK15InputParameters
FNDA:3,_ZN36LargeDeformationViscoelasticityModelC2ERK15InputParameters
FN:26,_ZN36LargeDeformationViscoelasticityModel5setQpEj
FNDA:62224,_ZN36LargeDeformationViscoelasticityModel5setQpEj
FNF:3
FNH:3
DA:8,102
DA:10,102
DA:11,102
DA:13,102
DA:14,102
DA:16,102
DA:19,3
DA:20,3
DA:21,3
DA:23,3
DA:26,62224
DA:28,62224
DA:29,62224
LF:13
LH:13
end_of_record
SF:/usr/share/miniconda/envs/moose/x86_64-conda-linux-gnu/include/c++/9.3.0/bits/stl_pair.h
FN:303,_ZNSt4pairIK13MooseEnumItemS0_EC2ERKS2_
FNDA:0,_ZNSt4pairIK13MooseEnumItemS0_EC2ERKS2_
FNF:1
FNH:0
DA:208,0
DA:303,0
DA:342,0
LF:3
LH:0
end_of_record
SF:/home/runner/work/raccoon/raccoon/moose/framework/build/header_symlinks/MaterialPropertyInterface.h
FN:501,_ZN25MaterialPropertyInterface27getADMaterialPropertyByNameI18RankTwoTensorTemplIdEEERK18ADMaterialPropertyIT_ERK20MaterialPropertyName
FNDA:0,_ZN25MaterialPropertyInterface27getADMaterialPropertyByNameI18RankTwoTensorTemplIdEEERK18ADMaterialPropertyIT_ERK20MaterialPropertyName
FN:501,_ZN25MaterialPropertyInterface27getADMaterialPropertyByNameIdEERK18ADMaterialPropertyIT_ERK20MaterialPropertyName
FNDA:0,_ZN25MaterialPropertyInterface27getADMaterialPropertyByNameIdEERK18ADMaterialPropertyIT_ERK20MaterialPropertyName
FN:525,_ZN25MaterialPropertyInterface28getMaterialPropertyOldByNameIdEERK16MaterialPropertyIT_ERK20MaterialPropertyName
FNDA:0,_ZN25MaterialPropertyInterface28getMaterialPropertyOldByNameIdEERK16MaterialPropertyIT_ERK20MaterialPropertyName
FN:525,_ZN25MaterialPropertyInterface28getMaterialPropertyOldByNameI18RankTwoTensorTemplIdEEERK16MaterialPropertyIT_ERK20MaterialPropertyName
FNDA:0,_ZN25MaterialPropertyInterface28getMaterialPropertyOldByNameI18RankTwoTensorTemplIdEEERK16MaterialPropertyIT_ERK20MaterialPropertyName
FNF:4
FNH:0
DA:247,0
DA:501,0
DA:503,0
DA:506,0
DA:507,0
DA:510,0
DA:513,0
DA:515,0
DA:518,0
DA:520,0
DA:501,0
DA:503,0
DA:506,0
DA:507,0
DA:510,0
DA:513,0
DA:515,0
DA:518,0
DA:520,0
DA:525,0
DA:527,0
DA:531,0
DA:532,0
DA:538,0
DA:540,0
DA:542,0
DA:525,0
DA:527,0
DA:531,0
DA:532,0
DA:538,0
DA:540,0
DA:542,0
LF:33
LH:0
end_of_record
SF:/usr/share/miniconda/envs/moose/x86_64-conda-linux-gnu/include/c++/9.3.0/bits/hashtable.h
FN:1348,_ZNSt10_HashtableINSt7__cxx1112basic_stringIcSt11char_traitsIcESaIcEEESt4pairIKS5_S5_ESaIS8_ENSt8__detail10_Select1stESt8equal_toIS5_ESt4hashIS5_ENSA_18_Mod_range_hashingENSA_20_Default_ranged_hashENSA_20_Prime_rehash_policyENSA_17_Hashtable_traitsILb1ELb0ELb1EEEED2Ev
FNDA:0,_ZNSt10_HashtableINSt7__cxx1112basic_stringIcSt11char_traitsIcESaIcEEESt4pairIKS5_S5_ESaIS8_ENSt8__detail10_Select1stESt8equal_toIS5_ESt4hashIS5_ENSA_18_Mod_range_hashingENSA_20_Default_ranged_hashENSA_20_Prime_rehash_policyENSA_17_Hashtable_traitsILb1ELb0ELb1EEEED2Ev
FN:1348,_ZNSt10_HashtableINSt7__cxx1112basic_stringIcSt11char_traitsIcESaIcEEESt4pairIKS5_St6vectorIP19MooseVariableScalarSaISA_EEESaISD_ENSt8__detail10_Select1stESt8equal_toIS5_ESt4hashIS5_ENSF_18_Mod_range_hashingENSF_20_Default_ranged_hashENSF_20_Prime_rehash_policyENSF_17_Hashtable_traitsILb1ELb0ELb1EEEED2Ev
FNDA:0,_ZNSt10_HashtableINSt7__cxx1112basic_stringIcSt11char_traitsIcESaIcEEESt4pairIKS5_St6vectorIP19MooseVariableScalarSaISA_EEESaISD_ENSt8__detail10_Select1stESt8equal_toIS5_ESt4hashIS5_ENSF_18_Mod_range_hashingENSF_20_Default_ranged_hashENSF_20_Prime_rehash_policyENSF_17_Hashtable_traitsILb1ELb0ELb1EEEED2Ev
FN:1348,_ZNSt10_HashtableINSt7__cxx1112basic_stringIcSt11char_traitsIcESaIcEEESt4pairIKS5_St10unique_ptrI10MooseArrayIdESt14default_deleteISA_EEESaISE_ENSt8__detail10_Select1stESt8equal_toIS5_ESt4hashIS5_ENSG_18_Mod_range_hashingENSG_20_Default_ranged_hashENSG_20_Prime_rehash_policyENSG_17_Hashtable_traitsILb1ELb0ELb1EEEED2Ev
FNDA:0,_ZNSt10_HashtableINSt7__cxx1112basic_stringIcSt11char_traitsIcESaIcEEESt4pairIKS5_St10unique_ptrI10MooseArrayIdESt14default_deleteISA_EEESaISE_ENSt8__detail10_Select1stESt8equal_toIS5_ESt4hashIS5_ENSG_18_Mod_range_hashingENSG_20_Default_ranged_hashENSG_20_Prime_rehash_policyENSG_17_Hashtable_traitsILb1ELb0ELb1EEEED2Ev
FN:1348,_ZNSt10_HashtableINSt7__cxx1112basic_stringIcSt11char_traitsIcESaIcEEESt4pairIKS5_St10unique_ptrI10MooseArrayIN11MetaPhysicL10DualNumberIdNSA_28SemiDynamicSparseNumberArrayIdmNSA_8NWrapperILm50EEEEELb1EEEESt14default_deleteISH_EEESaISL_ENSt8__detail10_Select1stESt8equal_toIS5_ESt4hashIS5_ENSN_18_Mod_range_hashingENSN_20_Default_ranged_hashENSN_20_Prime_rehash_policyENSN_17_Hashtable_traitsILb1ELb0ELb1EEEED2Ev
FNDA:0,_ZNSt10_HashtableINSt7__cxx1112basic_stringIcSt11char_traitsIcESaIcEEESt4pairIKS5_St10unique_ptrI10MooseArrayIN11MetaPhysicL10DualNumberIdNSA_28SemiDynamicSparseNumberArrayIdmNSA_8NWrapperILm50EEEEELb1EEEESt14default_deleteISH_EEESaISL_ENSt8__detail10_Select1stESt8equal_toIS5_ESt4hashIS5_ENSN_18_Mod_range_hashingENSN_20_Default_ranged_hashENSN_20_Prime_rehash_policyENSN_17_Hashtable_traitsILb1ELb0ELb1EEEED2Ev
FN:1348,_ZNSt10_HashtableINSt7__cxx1112basic_stringIcSt11char_traitsIcESaIcEEESt4pairIKS5_St6vectorIP22MooseVariableFieldBaseSaISA_EEESaISD_ENSt8__detail10_Select1stESt8equal_toIS5_ESt4hashIS5_ENSF_18_Mod_range_hashingENSF_20_Default_ranged_hashENSF_20_Prime_rehash_policyENSF_17_Hashtable_traitsILb1ELb0ELb1EEEED2Ev
FNDA:0,_ZNSt10_HashtableINSt7__cxx1112basic_stringIcSt11char_traitsIcESaIcEEESt4pairIKS5_St6vectorIP22MooseVariableFieldBaseSaISA_EEESaISD_ENSt8__detail10_Select1stESt8equal_toIS5_ESt4hashIS5_ENSF_18_Mod_range_hashingENSF_20_Default_ranged_hashENSF_20_Prime_rehash_policyENSF_17_Hashtable_traitsILb1ELb0ELb1EEEED2Ev
FN:1348,_ZNSt10_HashtableINSt7__cxx1112basic_stringIcSt11char_traitsIcESaIcEEESt4pairIKS5_St6vectorISt10unique_ptrI10MooseArrayIdESt14default_deleteISB_EESaISE_EEESaISH_ENSt8__detail10_Select1stESt8equal_toIS5_ESt4hashIS5_ENSJ_18_Mod_range_hashingENSJ_20_Default_ranged_hashENSJ_20_Prime_rehash_policyENSJ_17_Hashtable_traitsILb1ELb0ELb1EEEED2Ev
FNDA:0,_ZNSt10_HashtableINSt7__cxx1112basic_stringIcSt11char_traitsIcESaIcEEESt4pairIKS5_St6vectorISt10unique_ptrI10MooseArrayIdESt14default_deleteISB_EESaISE_EEESaISH_ENSt8__detail10_Select1stESt8equal_toIS5_ESt4hashIS5_ENSJ_18_Mod_range_hashingENSJ_20_Default_ranged_hashENSJ_20_Prime_rehash_policyENSJ_17_Hashtable_traitsILb1ELb0ELb1EEEED2Ev
FN:1348,_ZNSt10_HashtableINSt7__cxx1112basic_stringIcSt11char_traitsIcESaIcEEESt4pairIKS5_St10unique_ptrI10MooseArrayIN7libMesh11VectorValueIdEEESt14default_deleteISD_EEESaISH_ENSt8__detail10_Select1stESt8equal_toIS5_ESt4hashIS5_ENSJ_18_Mod_range_hashingENSJ_20_Default_ranged_hashENSJ_20_Prime_rehash_policyENSJ_17_Hashtable_traitsILb1ELb0ELb1EEEED2Ev
FNDA:0,_ZNSt10_HashtableINSt7__cxx1112basic_stringIcSt11char_traitsIcESaIcEEESt4pairIKS5_St10unique_ptrI10MooseArrayIN7libMesh11VectorValueIdEEESt14default_deleteISD_EEESaISH_ENSt8__detail10_Select1stESt8equal_toIS5_ESt4hashIS5_ENSJ_18_Mod_range_hashingENSJ_20_Default_ranged_hashENSJ_20_Prime_rehash_policyENSJ_17_Hashtable_traitsILb1ELb0ELb1EEEED2Ev
FN:1348,_ZNSt10_HashtableINSt7__cxx1112basic_stringIcSt11char_traitsIcESaIcEEESt4pairIKS5_St10unique_ptrI10MooseArrayIN5Eigen6MatrixIdLin1ELi1ELi0ELin1ELi1EEEESt14default_deleteISD_EEESaISH_ENSt8__detail10_Select1stESt8equal_toIS5_ESt4hashIS5_ENSJ_18_Mod_range_hashingENSJ_20_Default_ranged_hashENSJ_20_Prime_rehash_policyENSJ_17_Hashtable_traitsILb1ELb0ELb1EEEED2Ev
FNDA:0,_ZNSt10_HashtableINSt7__cxx1112basic_stringIcSt11char_traitsIcESaIcEEESt4pairIKS5_St10unique_ptrI10MooseArrayIN5Eigen6MatrixIdLin1ELi1ELi0ELin1ELi1EEEESt14default_deleteISD_EEESaISH_ENSt8__detail10_Select1stESt8equal_toIS5_ESt4hashIS5_ENSJ_18_Mod_range_hashingENSJ_20_Default_ranged_hashENSJ_20_Prime_rehash_policyENSJ_17_Hashtable_traitsILb1ELb0ELb1EEEED2Ev
FN:1348,_ZNSt10_HashtableINSt7__cxx1112basic_stringIcSt11char_traitsIcESaIcEEESt4pairIKS5_St10unique_ptrI10MooseArrayIN7libMesh11VectorValueIN11MetaPhysicL10DualNumberIdNSC_28SemiDynamicSparseNumberArrayIdmNSC_8NWrapperILm50EEEEELb1EEEEEESt14default_deleteISK_EEESaISO_ENSt8__detail10_Select1stESt8equal_toIS5_ESt4hashIS5_ENSQ_18_Mod_range_hashingENSQ_20_Default_ranged_hashENSQ_20_Prime_rehash_policyENSQ_17_Hashtable_traitsILb1ELb0ELb1EEEED2Ev
FNDA:0,_ZNSt10_HashtableINSt7__cxx1112basic_stringIcSt11char_traitsIcESaIcEEESt4pairIKS5_St10unique_ptrI10MooseArrayIN7libMesh11VectorValueIN11MetaPhysicL10DualNumberIdNSC_28SemiDynamicSparseNumberArrayIdmNSC_8NWrapperILm50EEEEELb1EEEEEESt14default_deleteISK_EEESaISO_ENSt8__detail10_Select1stESt8equal_toIS5_ESt4hashIS5_ENSQ_18_Mod_range_hashingENSQ_20_Default_ranged_hashENSQ_20_Prime_rehash_policyENSQ_17_Hashtable_traitsILb1ELb0ELb1EEEED2Ev
FN:1348,_ZNSt10_HashtableINSt7__cxx1112basic_stringIcSt11char_traitsIcESaIcEEESt4pairIKS5_St6vectorIjSaIjEEESaISB_ENSt8__detail10_Select1stESt8equal_toIS5_ESt4hashIS5_ENSD_18_Mod_range_hashingENSD_20_Default_ranged_hashENSD_20_Prime_rehash_policyENSD_17_Hashtable_traitsILb1ELb0ELb1EEEED2Ev
FNDA:0,_ZNSt10_HashtableINSt7__cxx1112basic_stringIcSt11char_traitsIcESaIcEEESt4pairIKS5_St6vectorIjSaIjEEESaISB_ENSt8__detail10_Select1stESt8equal_toIS5_ESt4hashIS5_ENSD_18_Mod_range_hashingENSD_20_Default_ranged_hashENSD_20_Prime_rehash_policyENSD_17_Hashtable_traitsILb1ELb0ELb1EEEED2Ev
FN:2024,_ZNSt10_HashtableINSt7__cxx1112basic_stringIcSt11char_traitsIcESaIcEEESt4pairIKS5_St6vectorIP19MooseVariableScalarSaISA_EEESaISD_ENSt8__detail10_Select1stESt8equal_toIS5_ESt4hashIS5_ENSF_18_Mod_range_hashingENSF_20_Default_ranged_hashENSF_20_Prime_rehash_policyENSF_17_Hashtable_traitsILb1ELb0ELb1EEEE5clearEv
FNDA:0,_ZNSt10_HashtableINSt7__cxx1112basic_stringIcSt11char_traitsIcESaIcEEESt4pairIKS5_St6vectorIP19MooseVariableScalarSaISA_EEESaISD_ENSt8__detail10_Select1stESt8equal_toIS5_ESt4hashIS5_ENSF_18_Mod_range_hashingENSF_20_Default_ranged_hashENSF_20_Prime_rehash_policyENSF_17_Hashtable_traitsILb1ELb0ELb1EEEE5clearEv
FN:2024,_ZNSt10_HashtableINSt7__cxx1112basic_stringIcSt11char_traitsIcESaIcEEESt4pairIKS5_St10unique_ptrI10MooseArrayIdESt14default_deleteISA_EEESaISE_ENSt8__detail10_Select1stESt8equal_toIS5_ESt4hashIS5_ENSG_18_Mod_range_hashingENSG_20_Default_ranged_hashENSG_20_Prime_rehash_policyENSG_17_Hashtable_traitsILb1ELb0ELb1EEEE5clearEv
FNDA:0,_ZNSt10_HashtableINSt7__cxx1112basic_stringIcSt11char_traitsIcESaIcEEESt4pairIKS5_St10unique_ptrI10MooseArrayIdESt14default_deleteISA_EEESaISE_ENSt8__detail10_Select1stESt8equal_toIS5_ESt4hashIS5_ENSG_18_Mod_range_hashingENSG_20_Default_ranged_hashENSG_20_Prime_rehash_policyENSG_17_Hashtable_traitsILb1ELb0ELb1EEEE5clearEv
FN:2024,_ZNSt10_HashtableINSt7__cxx1112basic_stringIcSt11char_traitsIcESaIcEEESt4pairIKS5_St10unique_ptrI10MooseArrayIN11MetaPhysicL10DualNumberIdNSA_28SemiDynamicSparseNumberArrayIdmNSA_8NWrapperILm50EEEEELb1EEEESt14default_deleteISH_EEESaISL_ENSt8__detail10_Select1stESt8equal_toIS5_ESt4hashIS5_ENSN_18_Mod_range_hashingENSN_20_Default_ranged_hashENSN_20_Prime_rehash_policyENSN_17_Hashtable_traitsILb1ELb0ELb1EEEE5clearEv
FNDA:0,_ZNSt10_HashtableINSt7__cxx1112basic_stringIcSt11char_traitsIcESaIcEEESt4pairIKS5_St10unique_ptrI10MooseArrayIN11MetaPhysicL10DualNumberIdNSA_28SemiDynamicSparseNumberArrayIdmNSA_8NWrapperILm50EEEEELb1EEEESt14default_deleteISH_EEESaISL_ENSt8__detail10_Select1stESt8equal_toIS5_ESt4hashIS5_ENSN_18_Mod_range_hashingENSN_20_Default_ranged_hashENSN_20_Prime_rehash_policyENSN_17_Hashtable_traitsILb1ELb0ELb1EEEE5clearEv
FN:2024,_ZNSt10_HashtableINSt7__cxx1112basic_stringIcSt11char_traitsIcESaIcEEESt4pairIKS5_St6vectorIP22MooseVariableFieldBaseSaISA_EEESaISD_ENSt8__detail10_Select1stESt8equal_toIS5_ESt4hashIS5_ENSF_18_Mod_range_hashingENSF_20_Default_ranged_hashENSF_20_Prime_rehash_policyENSF_17_Hashtable_traitsILb1ELb0ELb1EEEE5clearEv
FNDA:0,_ZNSt10_HashtableINSt7__cxx1112basic_stringIcSt11char_traitsIcESaIcEEESt4pairIKS5_St6vectorIP22MooseVariableFieldBaseSaISA_EEESaISD_ENSt8__detail10_Select1stESt8equal_toIS5_ESt4hashIS5_ENSF_18_Mod_range_hashingENSF_20_Default_ranged_hashENSF_20_Prime_rehash_policyENSF_17_Hashtable_traitsILb1ELb0ELb1EEEE5clearEv
FN:2024,_ZNSt10_HashtableINSt7__cxx1112basic_stringIcSt11char_traitsIcESaIcEEESt4pairIKS5_St6vectorISt10unique_ptrI10MooseArrayIdESt14default_deleteISB_EESaISE_EEESaISH_ENSt8__detail10_Select1stESt8equal_toIS5_ESt4hashIS5_ENSJ_18_Mod_range_hashingENSJ_20_Default_ranged_hashENSJ_20_Prime_rehash_policyENSJ_17_Hashtable_traitsILb1ELb0ELb1EEEE5clearEv
FNDA:0,_ZNSt10_HashtableINSt7__cxx1112basic_stringIcSt11char_traitsIcESaIcEEESt4pairIKS5_St6vectorISt10unique_ptrI10MooseArrayIdESt14default_deleteISB_EESaISE_EEESaISH_ENSt8__detail10_Select1stESt8equal_toIS5_ESt4hashIS5_ENSJ_18_Mod_range_hashingENSJ_20_Default_ranged_hashENSJ_20_Prime_rehash_policyENSJ_17_Hashtable_traitsILb1ELb0ELb1EEEE5clearEv
FN:2024,_ZNSt10_HashtableINSt7__cxx1112basic_stringIcSt11char_traitsIcESaIcEEESt4pairIKS5_St10unique_ptrI10MooseArrayIN7libMesh11VectorValueIdEEESt14default_deleteISD_EEESaISH_ENSt8__detail10_Select1stESt8equal_toIS5_ESt4hashIS5_ENSJ_18_Mod_range_hashingENSJ_20_Default_ranged_hashENSJ_20_Prime_rehash_policyENSJ_17_Hashtable_traitsILb1ELb0ELb1EEEE5clearEv
FNDA:0,_ZNSt10_HashtableINSt7__cxx1112basic_stringIcSt11char_traitsIcESaIcEEESt4pairIKS5_St10unique_ptrI10MooseArrayIN7libMesh11VectorValueIdEEESt14default_deleteISD_EEESaISH_ENSt8__detail10_Select1stESt8equal_toIS5_ESt4hashIS5_ENSJ_18_Mod_range_hashingENSJ_20_Default_ranged_hashENSJ_20_Prime_rehash_policyENSJ_17_Hashtable_traitsILb1ELb0ELb1EEEE5clearEv
FN:2024,_ZNSt10_HashtableINSt7__cxx1112basic_stringIcSt11char_traitsIcESaIcEEESt4pairIKS5_St10unique_ptrI10MooseArrayIN5Eigen6MatrixIdLin1ELi1ELi0ELin1ELi1EEEESt14default_deleteISD_EEESaISH_ENSt8__detail10_Select1stESt8equal_toIS5_ESt4hashIS5_ENSJ_18_Mod_range_hashingENSJ_20_Default_ranged_hashENSJ_20_Prime_rehash_policyENSJ_17_Hashtable_traitsILb1ELb0ELb1EEEE5clearEv
FNDA:0,_ZNSt10_HashtableINSt7__cxx1112basic_stringIcSt11char_traitsIcESaIcEEESt4pairIKS5_St10unique_ptrI10MooseArrayIN5Eigen6MatrixIdLin1ELi1ELi0ELin1ELi1EEEESt14default_deleteISD_EEESaISH_ENSt8__detail10_Select1stESt8equal_toIS5_ESt4hashIS5_ENSJ_18_Mod_range_hashingENSJ_20_Default_ranged_hashENSJ_20_Prime_rehash_policyENSJ_17_Hashtable_traitsILb1ELb0ELb1EEEE5clearEv
FN:2024,_ZNSt10_HashtableINSt7__cxx1112basic_stringIcSt11char_traitsIcESaIcEEESt4pairIKS5_St10unique_ptrI10MooseArrayIN7libMesh11VectorValueIN11MetaPhysicL10DualNumberIdNSC_28SemiDynamicSparseNumberArrayIdmNSC_8NWrapperILm50EEEEELb1EEEEEESt14default_deleteISK_EEESaISO_ENSt8__detail10_Select1stESt8equal_toIS5_ESt4hashIS5_ENSQ_18_Mod_range_hashingENSQ_20_Default_ranged_hashENSQ_20_Prime_rehash_policyENSQ_17_Hashtable_traitsILb1ELb0ELb1EEEE5clearEv
FNDA:0,_ZNSt10_HashtableINSt7__cxx1112basic_stringIcSt11char_traitsIcESaIcEEESt4pairIKS5_St10unique_ptrI10MooseArrayIN7libMesh11VectorValueIN11MetaPhysicL10DualNumberIdNSC_28SemiDynamicSparseNumberArrayIdmNSC_8NWrapperILm50EEEEELb1EEEEEESt14default_deleteISK_EEESaISO_ENSt8__detail10_Select1stESt8equal_toIS5_ESt4hashIS5_ENSQ_18_Mod_range_hashingENSQ_20_Default_ranged_hashENSQ_20_Prime_rehash_policyENSQ_17_Hashtable_traitsILb1ELb0ELb1EEEE5clearEv
FN:2024,_ZNSt10_HashtableINSt7__cxx1112basic_stringIcSt11char_traitsIcESaIcEEESt4pairIKS5_St6vectorIjSaIjEEESaISB_ENSt8__detail10_Select1stESt8equal_toIS5_ESt4hashIS5_ENSD_18_Mod_range_hashingENSD_20_Default_ranged_hashENSD_20_Prime_rehash_policyENSD_17_Hashtable_traitsILb1ELb0ELb1EEEE5clearEv
FNDA:0,_ZNSt10_HashtableINSt7__cxx1112basic_stringIcSt11char_traitsIcESaIcEEESt4pairIKS5_St6vectorIjSaIjEEESaISB_ENSt8__detail10_Select1stESt8equal_toIS5_ESt4hashIS5_ENSD_18_Mod_range_hashingENSD_20_Default_ranged_hashENSD_20_Prime_rehash_policyENSD_17_Hashtable_traitsILb1ELb0ELb1EEEE5clearEv
FN:2024,_ZNSt10_HashtableINSt7__cxx1112basic_stringIcSt11char_traitsIcESaIcEEESt4pairIKS5_S5_ESaIS8_ENSt8__detail10_Select1stESt8equal_toIS5_ESt4hashIS5_ENSA_18_Mod_range_hashingENSA_20_Default_ranged_hashENSA_20_Prime_rehash_policyENSA_17_Hashtable_traitsILb1ELb0ELb1EEEE5clearEv
FNDA:0,_ZNSt10_HashtableINSt7__cxx1112basic_stringIcSt11char_traitsIcESaIcEEESt4pairIKS5_S5_ESaIS8_ENSt8__detail10_Select1stESt8equal_toIS5_ESt4hashIS5_ENSA_18_Mod_range_hashingENSA_20_Default_ranged_hashENSA_20_Prime_rehash_policyENSA_17_Hashtable_traitsILb1ELb0ELb1EEEE5clearEv
FNF:20
FNH:0
DA:343,0
DA:367,0
DA:375,0
DA:1348,0
DA:1352,0
DA:1354,0
DA:1348,0
DA:1352,0
DA:1354,0
DA:1348,0
DA:1352,0
DA:1354,0
DA:1348,0
DA:1352,0
DA:1354,0
DA:1348,0
DA:1352,0
DA:1354,0
DA:1348,0
DA:1352,0
DA:1354,0
DA:1348,0
DA:1352,0
DA:1354,0
DA:1348,0
DA:1352,0
DA:1354,0
DA:1348,0
DA:1352,0
DA:1354,0
DA:1348,0
DA:1352,0
DA:1354,0
DA:2024,0
DA:2028,0
DA:2029,0
DA:2030,0
DA:2031,0
DA:2032,0
DA:2024,0
DA:2028,0
DA:2029,0
DA:2030,0
DA:2031,0
DA:2032,0
DA:2024,0
DA:2028,0
DA:2029,0
DA:2030,0
DA:2031,0
DA:2032,0
DA:2024,0
DA:2028,0
DA:2029,0
DA:2030,0
DA:2031,0
DA:2032,0
DA:2024,0
DA:2028,0
DA:2029,0
DA:2030,0
DA:2031,0
DA:2032,0
DA:2024,0
DA:2028,0
DA:2029,0
DA:2030,0
DA:2031,0
DA:2032,0
DA:2024,0
DA:2028,0
DA:2029,0
DA:2030,0
DA:2031,0
DA:2032,0
DA:2024,0
DA:2028,0
DA:2029,0
DA:2030,0
DA:2031,0
DA:2032,0
DA:2024,0
DA:2028,0
DA:2029,0
DA:2030,0
DA:2031,0
DA:2032,0
DA:2024,0
DA:2028,0
DA:2029,0
DA:2030,0
DA:2031,0
DA:2032,0
LF:93
LH:0
end_of_record
SF:/usr/share/miniconda/envs/moose/libmesh/include/libmesh/parameters.h
FN:132,_ZN7libMesh10Parameters14set_attributesERKNSt7__cxx1112basic_stringIcSt11char_traitsIcESaIcEEEb
FNDA:0,_ZN7libMesh10Parameters14set_attributesERKNSt7__cxx1112basic_stringIcSt11char_traitsIcESaIcEEEb
FN:285,_ZNK7libMesh10Parameters9ParameterIdE4typeB5cxx11Ev
FNDA:0,_ZNK7libMesh10Parameters9ParameterIdE4typeB5cxx11Ev
FN:285,_ZNK7libMesh10Parameters9ParameterI12MaterialNameE4typeB5cxx11Ev
FNDA:0,_ZNK7libMesh10Parameters9ParameterI12MaterialNameE4typeB5cxx11Ev
FN:285,_ZNK7libMesh10Parameters9ParameterISt6vectorI20MaterialPropertyNameSaIS3_EEE4typeB5cxx11Ev
FNDA:0,_ZNK7libMesh10Parameters9ParameterISt6vectorI20MaterialPropertyNameSaIS3_EEE4typeB5cxx11Ev
FN:285,_ZNK7libMesh10Parameters9ParameterI9MooseEnumE4typeB5cxx11Ev
FNDA:0,_ZNK7libMesh10Parameters9ParameterI9MooseEnumE4typeB5cxx11Ev
FN:285,_ZNK7libMesh10Parameters9ParameterI20MaterialPropertyNameE4typeB5cxx11Ev
FNDA:0,_ZNK7libMesh10Parameters9ParameterI20MaterialPropertyNameE4typeB5cxx11Ev
FN:285,_ZNK7libMesh10Parameters9ParameterIbE4typeB5cxx11Ev
FNDA:0,_ZNK7libMesh10Parameters9ParameterIbE4typeB5cxx11Ev
FN:285,_ZNK7libMesh10Parameters9ParameterIP13FEProblemBaseE4typeB5cxx11Ev
FNDA:0,_ZNK7libMesh10Parameters9ParameterIP13FEProblemBaseE4typeB5cxx11Ev
FN:293,_ZNK7libMesh10Parameters9ParameterI20MaterialPropertyNameE5printERSo
FNDA:0,_ZNK7libMesh10Parameters9ParameterI20MaterialPropertyNameE5printERSo
FN:293,_ZNK7libMesh10Parameters9ParameterIbE5printERSo
FNDA:0,_ZNK7libMesh10Parameters9ParameterIbE5printERSo
FN:293,_ZNK7libMesh10Parameters9ParameterI9MooseEnumE5printERSo
FNDA:0,_ZNK7libMesh10Parameters9ParameterI9MooseEnumE5printERSo
FN:293,_ZNK7libMesh10Parameters9ParameterIdE5printERSo
FNDA:0,_ZNK7libMesh10Parameters9ParameterIdE5printERSo
FN:293,_ZNK7libMesh10Parameters9ParameterISt6vectorI20MaterialPropertyNameSaIS3_EEE5printERSo
FNDA:0,_ZNK7libMesh10Parameters9ParameterISt6vectorI20MaterialPropertyNameSaIS3_EEE5printERSo
FN:293,_ZNK7libMesh10Parameters9ParameterIP13FEProblemBaseE5printERSo
FNDA:0,_ZNK7libMesh10Parameters9ParameterIP13FEProblemBaseE5printERSo
FN:293,_ZNK7libMesh10Parameters9ParameterI12MaterialNameE5printERSo
FNDA:0,_ZNK7libMesh10Parameters9ParameterI12MaterialNameE5printERSo
FN:301,_ZNK7libMesh10Parameters9ParameterI20MaterialPropertyNameE5cloneEv
FNDA:0,_ZNK7libMesh10Parameters9ParameterI20MaterialPropertyNameE5cloneEv
FN:301,_ZNK7libMesh10Parameters9ParameterIP13FEProblemBaseE5cloneEv
FNDA:0,_ZNK7libMesh10Parameters9ParameterIP13FEProblemBaseE5cloneEv
FN:301,_ZNK7libMesh10Parameters9ParameterIdE5cloneEv
FNDA:0,_ZNK7libMesh10Parameters9ParameterIdE5cloneEv
FN:301,_ZNK7libMesh10Parameters9ParameterISt6vectorI20MaterialPropertyNameSaIS3_EEE5cloneEv
FNDA:0,_ZNK7libMesh10Parameters9ParameterISt6vectorI20MaterialPropertyNameSaIS3_EEE5cloneEv
FN:301,_ZNK7libMesh10Parameters9ParameterI9MooseEnumE5cloneEv
FNDA:0,_ZNK7libMesh10Parameters9ParameterI9MooseEnumE5cloneEv
FN:301,_ZNK7libMesh10Parameters9ParameterI12MaterialNameE5cloneEv
FNDA:0,_ZNK7libMesh10Parameters9ParameterI12MaterialNameE5cloneEv
FN:301,_ZNK7libMesh10Parameters9ParameterIbE5cloneEv
FNDA:0,_ZNK7libMesh10Parameters9ParameterIbE5cloneEv
FN:316,_ZN7libMesh10Parameters5clearEv
FNDA:0,_ZN7libMesh10Parameters5clearEv
FN:332,_ZN7libMesh10ParametersaSERKS0_
FNDA:0,_ZN7libMesh10ParametersaSERKS0_
FN:341,_ZN7libMesh10ParameterspLERKS0_
FNDA:0,_ZN7libMesh10ParameterspLERKS0_
FN:362,_ZN7libMesh10ParametersD2Ev
FNDA:0,_ZN7libMesh10ParametersD2Ev
FN:362,_ZN7libMesh10ParametersD0Ev
FNDA:0,_ZN7libMesh10ParametersD0Ev
FN:370,_ZNK7libMesh10Parameters5printERSo
FNDA:0,_ZNK7libMesh10Parameters5printERSo
FN:405,_ZNK7libMesh10Parameters14have_parameterIbEEbRKNSt7__cxx1112basic_stringIcSt11char_traitsIcESaIcEEE
FNDA:0,_ZNK7libMesh10Parameters14have_parameterIbEEbRKNSt7__cxx1112basic_stringIcSt11char_traitsIcESaIcEEE
FN:405,_ZNK7libMesh10Parameters14have_parameterI20MaterialPropertyNameEEbRKNSt7__cxx1112basic_stringIcSt11char_traitsIcESaIcEEE
FNDA:0,_ZNK7libMesh10Parameters14have_parameterI20MaterialPropertyNameEEbRKNSt7__cxx1112basic_stringIcSt11char_traitsIcESaIcEEE
FN:405,_ZNK7libMesh10Parameters14have_parameterI9MooseEnumEEbRKNSt7__cxx1112basic_stringIcSt11char_traitsIcESaIcEEE
FNDA:0,_ZNK7libMesh10Parameters14have_parameterI9MooseEnumEEbRKNSt7__cxx1112basic_stringIcSt11char_traitsIcESaIcEEE
FN:405,_ZNK7libMesh10Parameters14have_parameterISt6vectorI20MaterialPropertyNameSaIS3_EEEEbRKNSt7__cxx1112basic_stringIcSt11char_traitsIcESaIcEEE
FNDA:0,_ZNK7libMesh10Parameters14have_parameterISt6vectorI20MaterialPropertyNameSaIS3_EEEEbRKNSt7__cxx1112basic_stringIcSt11char_traitsIcESaIcEEE
FN:405,_ZNK7libMesh10Parameters14have_parameterI12MaterialNameEEbRKNSt7__cxx1112basic_stringIcSt11char_traitsIcESaIcEEE
FNDA:0,_ZNK7libMesh10Parameters14have_parameterI12MaterialNameEEbRKNSt7__cxx1112basic_stringIcSt11char_traitsIcESaIcEEE
FN:405,_ZNK7libMesh10Parameters14have_parameterIdEEbRKNSt7__cxx1112basic_stringIcSt11char_traitsIcESaIcEEE
FNDA:0,_ZNK7libMesh10Parameters14have_parameterIdEEbRKNSt7__cxx1112basic_stringIcSt11char_traitsIcESaIcEEE
FN:424,_ZNK7libMesh10Parameters3getI20MaterialPropertyNameEERKT_RKNSt7__cxx1112basic_stringIcSt11char_traitsIcESaIcEEE
FNDA:0,_ZNK7libMesh10Parameters3getI20MaterialPropertyNameEERKT_RKNSt7__cxx1112basic_stringIcSt11char_traitsIcESaIcEEE
FN:424,_ZNK7libMesh10Parameters3getIbEERKT_RKNSt7__cxx1112basic_stringIcSt11char_traitsIcESaIcEEE
FNDA:0,_ZNK7libMesh10Parameters3getIbEERKT_RKNSt7__cxx1112basic_stringIcSt11char_traitsIcESaIcEEE
FN:424,_ZNK7libMesh10Parameters3getISt6vectorI20MaterialPropertyNameSaIS3_EEEERKT_RKNSt7__cxx1112basic_stringIcSt11char_traitsIcESaIcEEE
FNDA:0,_ZNK7libMesh10Parameters3getISt6vectorI20MaterialPropertyNameSaIS3_EEEERKT_RKNSt7__cxx1112basic_stringIcSt11char_traitsIcESaIcEEE
FN:424,_ZNK7libMesh10Parameters3getIdEERKT_RKNSt7__cxx1112basic_stringIcSt11char_traitsIcESaIcEEE
FNDA:0,_ZNK7libMesh10Parameters3getIdEERKT_RKNSt7__cxx1112basic_stringIcSt11char_traitsIcESaIcEEE
FN:452,_ZN7libMesh10Parameters6insertI12MaterialNameEEvRKNSt7__cxx1112basic_stringIcSt11char_traitsIcESaIcEEE
FNDA:0,_ZN7libMesh10Parameters6insertI12MaterialNameEEvRKNSt7__cxx1112basic_stringIcSt11char_traitsIcESaIcEEE
FN:452,_ZN7libMesh10Parameters6insertIdEEvRKNSt7__cxx1112basic_stringIcSt11char_traitsIcESaIcEEE
FNDA:0,_ZN7libMesh10Parameters6insertIdEEvRKNSt7__cxx1112basic_stringIcSt11char_traitsIcESaIcEEE
FN:452,_ZN7libMesh10Parameters6insertISt6vectorI20MaterialPropertyNameSaIS3_EEEEvRKNSt7__cxx1112basic_stringIcSt11char_traitsIcESaIcEEE
FNDA:0,_ZN7libMesh10Parameters6insertISt6vectorI20MaterialPropertyNameSaIS3_EEEEvRKNSt7__cxx1112basic_stringIcSt11char_traitsIcESaIcEEE
FN:452,_ZN7libMesh10Parameters6insertI20MaterialPropertyNameEEvRKNSt7__cxx1112basic_stringIcSt11char_traitsIcESaIcEEE
FNDA:0,_ZN7libMesh10Parameters6insertI20MaterialPropertyNameEEvRKNSt7__cxx1112basic_stringIcSt11char_traitsIcESaIcEEE
FN:556,_ZN7libMesh12print_helperI20MaterialPropertyNameEEvRSoPKSt6vectorIT_SaIS4_EE
FNDA:0,_ZN7libMesh12print_helperI20MaterialPropertyNameEEvRSoPKSt6vectorIT_SaIS4_EE
FNF:43
FNH:0
DA:132,0
DA:200,0
DA:207,0
DA:212,0
DA:285,0
DA:287,0
DA:285,0
DA:287,0
DA:285,0
DA:287,0
DA:285,0
DA:287,0
DA:285,0
DA:287,0
DA:285,0
DA:287,0
DA:285,0
DA:287,0
DA:293,0
DA:296,0
DA:297,0
DA:293,0
DA:296,0
DA:297,0
DA:293,0
DA:297,0
DA:293,0
DA:297,0
DA:293,0
DA:296,0
DA:297,0
DA:293,0
DA:297,0
DA:293,0
DA:296,0
DA:297,0
DA:301,0
DA:303,0
DA:307,0
DA:309,0
DA:301,0
DA:303,0
DA:307,0
DA:309,0
DA:301,0
DA:303,0
DA:309,0
DA:301,0
DA:303,0
DA:307,0
DA:309,0
DA:301,0
DA:303,0
DA:307,0
DA:309,0
DA:301,0
DA:303,0
DA:309,0
DA:301,0
DA:303,0
DA:307,0
DA:309,0
DA:316,0
DA:318,0
DA:322,0
DA:323,0
DA:327,0
DA:332,0
DA:334,0
DA:335,0
DA:337,0
DA:341,0
DA:343,0
DA:345,0
DA:346,0
DA:347,0
DA:350,0
DA:362,0
DA:364,0
DA:365,0
DA:362,0
DA:364,0
DA:365,0
DA:362,0
DA:364,0
DA:370,0
DA:375,0
DA:376,0
DA:380,0
DA:382,0
DA:383,0
DA:387,0
DA:397,0
DA:405,0
DA:409,0
DA:411,0
DA:415,0
DA:405,0
DA:409,0
DA:411,0
DA:415,0
DA:405,0
DA:409,0
DA:411,0
DA:415,0
DA:405,0
DA:409,0
DA:411,0
DA:415,0
DA:405,0
DA:409,0
DA:411,0
DA:415,0
DA:405,0
DA:409,0
DA:411,0
DA:415,0
DA:424,0
DA:426,0
DA:428,0
DA:430,0
DA:432,0
DA:439,0
DA:447,0
DA:424,0
DA:426,0
DA:428,0
DA:430,0
DA:432,0
DA:439,0
DA:447,0
DA:424,0
DA:426,0
DA:428,0
DA:430,0
DA:432,0
DA:439,0
DA:447,0
DA:424,0
DA:426,0
DA:428,0
DA:430,0
DA:432,0
DA:439,0
DA:447,0
DA:452,0
DA:454,0
DA:455,0
DA:457,0
DA:458,0
DA:452,0
DA:454,0
DA:455,0
DA:457,0
DA:458,0
DA:452,0
DA:454,0
DA:455,0
DA:457,0
DA:458,0
DA:452,0
DA:454,0
DA:455,0
DA:457,0
DA:458,0
DA:535,0
DA:556,0
DA:558,0
DA:559,0
DA:560,0
LF:170
LH:0
end_of_record
SF:/usr/share/miniconda/envs/moose/x86_64-conda-linux-gnu/include/c++/9.3.0/bits/stl_tree.h
FN:480,_ZNSt8_Rb_treeI13MooseEnumItemSt4pairIKS0_S0_ESt10_Select1stIS3_ESt4lessIS0_ESaIS3_EE20_Reuse_or_alloc_nodeclIRKS3_EEPSt13_Rb_tree_nodeIS3_EOT_
FNDA:0,_ZNSt8_Rb_treeI13MooseEnumItemSt4pairIKS0_S0_ESt10_Select1stIS3_ESt4lessIS0_ESaIS3_EE20_Reuse_or_alloc_nodeclIRKS3_EEPSt13_Rb_tree_nodeIS3_EOT_
FN:480,_ZNSt8_Rb_treeI13MooseEnumItemS0_St9_IdentityIS0_ESt4lessIS0_ESaIS0_EE20_Reuse_or_alloc_nodeclIRKS0_EEPSt13_Rb_tree_nodeIS0_EOT_
FNDA:0,_ZNSt8_Rb_treeI13MooseEnumItemS0_St9_IdentityIS0_ESt4lessIS0_ESaIS0_EE20_Reuse_or_alloc_nodeclIRKS0_EEPSt13_Rb_tree_nodeIS0_EOT_
FN:496,_ZNSt8_Rb_treeI13MooseEnumItemSt4pairIKS0_S0_ESt10_Select1stIS3_ESt4lessIS0_ESaIS3_EE20_Reuse_or_alloc_node10_M_extractEv
FNDA:0,_ZNSt8_Rb_treeI13MooseEnumItemSt4pairIKS0_S0_ESt10_Select1stIS3_ESt4lessIS0_ESaIS3_EE20_Reuse_or_alloc_node10_M_extractEv
FN:496,_ZNSt8_Rb_treeI13MooseEnumItemS0_St9_IdentityIS0_ESt4lessIS0_ESaIS0_EE20_Reuse_or_alloc_node10_M_extractEv
FNDA:0,_ZNSt8_Rb_treeI13MooseEnumItemS0_St9_IdentityIS0_ESt4lessIS0_ESaIS0_EE20_Reuse_or_alloc_node10_M_extractEv
FN:609,_ZNSt8_Rb_treeINSt7__cxx1112basic_stringIcSt11char_traitsIcESaIcEEESt4pairIKS5_PN7libMesh10Parameters5ValueEESt10_Select1stISC_ESt4lessIS5_ESaISC_EE17_M_construct_nodeIJRKSt21piecewise_construct_tSt5tupleIJRS7_EESN_IJEEEEEvPSt13_Rb_tree_nodeISC_EDpOT_
FNDA:0,_ZNSt8_Rb_treeINSt7__cxx1112basic_stringIcSt11char_traitsIcESaIcEEESt4pairIKS5_PN7libMesh10Parameters5ValueEESt10_Select1stISC_ESt4lessIS5_ESaISC_EE17_M_construct_nodeIJRKSt21piecewise_construct_tSt5tupleIJRS7_EESN_IJEEEEEvPSt13_Rb_tree_nodeISC_EDpOT_
FN:609,_ZNSt8_Rb_treeINSt7__cxx1112basic_stringIcSt11char_traitsIcESaIcEEESt4pairIKS5_N15InputParameters8MetadataEESt10_Select1stISA_ESt4lessIS5_ESaISA_EE17_M_construct_nodeIJRKSt21piecewise_construct_tSt5tupleIJRS7_EESL_IJEEEEEvPSt13_Rb_tree_nodeISA_EDpOT_
FNDA:0,_ZNSt8_Rb_treeINSt7__cxx1112basic_stringIcSt11char_traitsIcESaIcEEESt4pairIKS5_N15InputParameters8MetadataEESt10_Select1stISA_ESt4lessIS5_ESaISA_EE17_M_construct_nodeIJRKSt21piecewise_construct_tSt5tupleIJRS7_EESL_IJEEEEEvPSt13_Rb_tree_nodeISA_EDpOT_
FN:899,_ZNSt8_Rb_treeI13MooseEnumItemS0_St9_IdentityIS0_ESt4lessIS0_ESaIS0_EE7_M_copyINS6_20_Reuse_or_alloc_nodeEEEPSt13_Rb_tree_nodeIS0_ERKS6_RT_
FNDA:0,_ZNSt8_Rb_treeI13MooseEnumItemS0_St9_IdentityIS0_ESt4lessIS0_ESaIS0_EE7_M_copyINS6_20_Reuse_or_alloc_nodeEEEPSt13_Rb_tree_nodeIS0_ERKS6_RT_
FN:899,_ZNSt8_Rb_treeI13MooseEnumItemSt4pairIKS0_S0_ESt10_Select1stIS3_ESt4lessIS0_ESaIS3_EE7_M_copyINS9_20_Reuse_or_alloc_nodeEEEPSt13_Rb_tree_nodeIS3_ERKS9_RT_
FNDA:0,_ZNSt8_Rb_treeI13MooseEnumItemSt4pairIKS0_S0_ESt10_Select1stIS3_ESt4lessIS0_ESaIS3_EE7_M_copyINS9_20_Reuse_or_alloc_nodeEEEPSt13_Rb_tree_nodeIS3_ERKS9_RT_
FN:1281,_ZNSt8_Rb_treeINSt7__cxx1112basic_stringIcSt11char_traitsIcESaIcEEESt4pairIKS5_PN7libMesh10Parameters5ValueEESt10_Select1stISC_ESt4lessIS5_ESaISC_EE11lower_boundERS7_
FNDA:0,_ZNSt8_Rb_treeINSt7__cxx1112basic_stringIcSt11char_traitsIcESaIcEEESt4pairIKS5_PN7libMesh10Parameters5ValueEESt10_Select1stISC_ESt4lessIS5_ESaISC_EE11lower_boundERS7_
FN:1281,_ZNSt8_Rb_treeINSt7__cxx1112basic_stringIcSt11char_traitsIcESaIcEEESt4pairIKS5_N15InputParameters8MetadataEESt10_Select1stISA_ESt4lessIS5_ESaISA_EE11lower_boundERS7_
FNDA:0,_ZNSt8_Rb_treeINSt7__cxx1112basic_stringIcSt11char_traitsIcESaIcEEESt4pairIKS5_N15InputParameters8MetadataEESt10_Select1stISA_ESt4lessIS5_ESaISA_EE11lower_boundERS7_
FN:1285,_ZNKSt8_Rb_treeINSt7__cxx1112basic_stringIcSt11char_traitsIcESaIcEEESt4pairIKS5_N15InputParameters8MetadataEESt10_Select1stISA_ESt4lessIS5_ESaISA_EE11lower_boundERS7_
FNDA:0,_ZNKSt8_Rb_treeINSt7__cxx1112basic_stringIcSt11char_traitsIcESaIcEEESt4pairIKS5_N15InputParameters8MetadataEESt10_Select1stISA_ESt4lessIS5_ESaISA_EE11lower_boundERS7_
FN:1757,_ZNSt8_Rb_treeI13MooseEnumItemSt4pairIKS0_S0_ESt10_Select1stIS3_ESt4lessIS0_ESaIS3_EEaSERKS9_
FNDA:0,_ZNSt8_Rb_treeI13MooseEnumItemSt4pairIKS0_S0_ESt10_Select1stIS3_ESt4lessIS0_ESaIS3_EEaSERKS9_
FN:1757,_ZNSt8_Rb_treeI13MooseEnumItemS0_St9_IdentityIS0_ESt4lessIS0_ESaIS0_EEaSERKS6_
FNDA:0,_ZNSt8_Rb_treeI13MooseEnumItemS0_St9_IdentityIS0_ESt4lessIS0_ESaIS0_EEaSERKS6_
FN:1797,_ZNSt8_Rb_treeINSt7__cxx1112basic_stringIcSt11char_traitsIcESaIcEEES5_St9_IdentityIS5_ESt4lessIS5_ESaIS5_EE10_M_insert_IRKS5_NSB_11_Alloc_nodeEEESt17_Rb_tree_iteratorIS5_EPSt18_Rb_tree_node_baseSJ_OT_RT0_
FNDA:0,_ZNSt8_Rb_treeINSt7__cxx1112basic_stringIcSt11char_traitsIcESaIcEEES5_St9_IdentityIS5_ESt4lessIS5_ESaIS5_EE10_M_insert_IRKS5_NSB_11_Alloc_nodeEEESt17_Rb_tree_iteratorIS5_EPSt18_Rb_tree_node_baseSJ_OT_RT0_
FN:1871,_ZNSt8_Rb_treeI13MooseEnumItemS0_St9_IdentityIS0_ESt4lessIS0_ESaIS0_EE7_M_copyINS6_20_Reuse_or_alloc_nodeEEEPSt13_Rb_tree_nodeIS0_EPKSA_PSt18_Rb_tree_node_baseRT_
FNDA:0,_ZNSt8_Rb_treeI13MooseEnumItemS0_St9_IdentityIS0_ESt4lessIS0_ESaIS0_EE7_M_copyINS6_20_Reuse_or_alloc_nodeEEEPSt13_Rb_tree_nodeIS0_EPKSA_PSt18_Rb_tree_node_baseRT_
FN:1871,_ZNSt8_Rb_treeI13MooseEnumItemSt4pairIKS0_S0_ESt10_Select1stIS3_ESt4lessIS0_ESaIS3_EE7_M_copyINS9_20_Reuse_or_alloc_nodeEEEPSt13_Rb_tree_nodeIS3_EPKSD_PSt18_Rb_tree_node_baseRT_
FNDA:0,_ZNSt8_Rb_treeI13MooseEnumItemSt4pairIKS0_S0_ESt10_Select1stIS3_ESt4lessIS0_ESaIS3_EE7_M_copyINS9_20_Reuse_or_alloc_nodeEEEPSt13_Rb_tree_nodeIS3_EPKSD_PSt18_Rb_tree_node_baseRT_
FN:1907,_ZNSt8_Rb_treeIttSt9_IdentityItESt4lessItESaItEE8_M_eraseEPSt13_Rb_tree_nodeItE
FNDA:0,_ZNSt8_Rb_treeIttSt9_IdentityItESt4lessItESaItEE8_M_eraseEPSt13_Rb_tree_nodeItE
FN:1907,_ZNSt8_Rb_treeIjjSt9_IdentityIjESt4lessIjESaIjEE8_M_eraseEPSt13_Rb_tree_nodeIjE
FNDA:0,_ZNSt8_Rb_treeIjjSt9_IdentityIjESt4lessIjESaIjEE8_M_eraseEPSt13_Rb_tree_nodeIjE
FN:1907,_ZNSt8_Rb_treeI17PostprocessorNameSt4pairIKS0_St10unique_ptrIdSt14default_deleteIdEEESt10_Select1stIS7_ESt4lessIS0_ESaIS7_EE8_M_eraseEPSt13_Rb_tree_nodeIS7_E
FNDA:0,_ZNSt8_Rb_treeI17PostprocessorNameSt4pairIKS0_St10unique_ptrIdSt14default_deleteIdEEESt10_Select1stIS7_ESt4lessIS0_ESaIS7_EE8_M_eraseEPSt13_Rb_tree_nodeIS7_E
FN:1907,_ZNSt8_Rb_treeI10OutputNameS0_St9_IdentityIS0_ESt4lessIS0_ESaIS0_EE8_M_eraseEPSt13_Rb_tree_nodeIS0_E
FNDA:0,_ZNSt8_Rb_treeI10OutputNameS0_St9_IdentityIS0_ESt4lessIS0_ESaIS0_EE8_M_eraseEPSt13_Rb_tree_nodeIS0_E
FN:1907,_ZNSt8_Rb_treeINSt7__cxx1112basic_stringIcSt11char_traitsIcESaIcEEES5_St9_IdentityIS5_ESt4lessIS5_ESaIS5_EE8_M_eraseEPSt13_Rb_tree_nodeIS5_E
FNDA:0,_ZNSt8_Rb_treeINSt7__cxx1112basic_stringIcSt11char_traitsIcESaIcEEES5_St9_IdentityIS5_ESt4lessIS5_ESaIS5_EE8_M_eraseEPSt13_Rb_tree_nodeIS5_E
FN:1907,_ZNSt8_Rb_treeINSt7__cxx1112basic_stringIcSt11char_traitsIcESaIcEEESt4pairIKS5_iESt10_Select1stIS8_ESt4lessIS5_ESaIS8_EE8_M_eraseEPSt13_Rb_tree_nodeIS8_E
FNDA:0,_ZNSt8_Rb_treeINSt7__cxx1112basic_stringIcSt11char_traitsIcESaIcEEESt4pairIKS5_iESt10_Select1stIS8_ESt4lessIS5_ESaIS8_EE8_M_eraseEPSt13_Rb_tree_nodeIS8_E
FN:1907,_ZNSt8_Rb_treeIP22MooseVariableFieldBaseS1_St9_IdentityIS1_ESt4lessIS1_ESaIS1_EE8_M_eraseEPSt13_Rb_tree_nodeIS1_E
FNDA:0,_ZNSt8_Rb_treeIP22MooseVariableFieldBaseS1_St9_IdentityIS1_ESt4lessIS1_ESaIS1_EE8_M_eraseEPSt13_Rb_tree_nodeIS1_E
FN:1907,_ZNSt8_Rb_treeI13MooseEnumItemSt4pairIKS0_S0_ESt10_Select1stIS3_ESt4lessIS0_ESaIS3_EE8_M_eraseEPSt13_Rb_tree_nodeIS3_E
FNDA:0,_ZNSt8_Rb_treeI13MooseEnumItemSt4pairIKS0_S0_ESt10_Select1stIS3_ESt4lessIS0_ESaIS3_EE8_M_eraseEPSt13_Rb_tree_nodeIS3_E
FN:1907,_ZNSt8_Rb_treeIssSt9_IdentityIsESt4lessIsESaIsEE8_M_eraseEPSt13_Rb_tree_nodeIsE
FNDA:0,_ZNSt8_Rb_treeIssSt9_IdentityIsESt4lessIsESaIsEE8_M_eraseEPSt13_Rb_tree_nodeIsE
FN:1907,_ZNSt8_Rb_treeINSt7__cxx1112basic_stringIcSt11char_traitsIcESaIcEEESt4pairIKS5_N15InputParameters8MetadataEESt10_Select1stISA_ESt4lessIS5_ESaISA_EE8_M_eraseEPSt13_Rb_tree_nodeISA_E
FNDA:0,_ZNSt8_Rb_treeINSt7__cxx1112basic_stringIcSt11char_traitsIcESaIcEEESt4pairIKS5_N15InputParameters8MetadataEESt10_Select1stISA_ESt4lessIS5_ESaISA_EE8_M_eraseEPSt13_Rb_tree_nodeISA_E
FN:1907,_ZNSt8_Rb_treeI13MooseEnumItemS0_St9_IdentityIS0_ESt4lessIS0_ESaIS0_EE8_M_eraseEPSt13_Rb_tree_nodeIS0_E
FNDA:0,_ZNSt8_Rb_treeI13MooseEnumItemS0_St9_IdentityIS0_ESt4lessIS0_ESaIS0_EE8_M_eraseEPSt13_Rb_tree_nodeIS0_E
FN:1907,_ZNSt8_Rb_treeINSt7__cxx1112basic_stringIcSt11char_traitsIcESaIcEEESt4pairIKS5_PN7libMesh10Parameters5ValueEESt10_Select1stISC_ESt4lessIS5_ESaISC_EE8_M_eraseEPSt13_Rb_tree_nodeISC_E
FNDA:0,_ZNSt8_Rb_treeINSt7__cxx1112basic_stringIcSt11char_traitsIcESaIcEEESt4pairIKS5_PN7libMesh10Parameters5ValueEESt10_Select1stISC_ESt4lessIS5_ESaISC_EE8_M_eraseEPSt13_Rb_tree_nodeISC_E
FN:2085,_ZNSt8_Rb_treeINSt7__cxx1112basic_stringIcSt11char_traitsIcESaIcEEES5_St9_IdentityIS5_ESt4lessIS5_ESaIS5_EE24_M_get_insert_unique_posERKS5_
FNDA:0,_ZNSt8_Rb_treeINSt7__cxx1112basic_stringIcSt11char_traitsIcESaIcEEES5_St9_IdentityIS5_ESt4lessIS5_ESaIS5_EE24_M_get_insert_unique_posERKS5_
FN:2085,_ZNSt8_Rb_treeIjjSt9_IdentityIjESt4lessIjESaIjEE24_M_get_insert_unique_posERKj
FNDA:0,_ZNSt8_Rb_treeIjjSt9_IdentityIjESt4lessIjESaIjEE24_M_get_insert_unique_posERKj
FN:2085,_ZNSt8_Rb_treeINSt7__cxx1112basic_stringIcSt11char_traitsIcESaIcEEESt4pairIKS5_PN7libMesh10Parameters5ValueEESt10_Select1stISC_ESt4lessIS5_ESaISC_EE24_M_get_insert_unique_posERS7_
FNDA:0,_ZNSt8_Rb_treeINSt7__cxx1112basic_stringIcSt11char_traitsIcESaIcEEESt4pairIKS5_PN7libMesh10Parameters5ValueEESt10_Select1stISC_ESt4lessIS5_ESaISC_EE24_M_get_insert_unique_posERS7_
FN:2085,_ZNSt8_Rb_treeINSt7__cxx1112basic_stringIcSt11char_traitsIcESaIcEEESt4pairIKS5_N15InputParameters8MetadataEESt10_Select1stISA_ESt4lessIS5_ESaISA_EE24_M_get_insert_unique_posERS7_
FNDA:0,_ZNSt8_Rb_treeINSt7__cxx1112basic_stringIcSt11char_traitsIcESaIcEEESt4pairIKS5_N15InputParameters8MetadataEESt10_Select1stISA_ESt4lessIS5_ESaISA_EE24_M_get_insert_unique_posERS7_
FN:2139,_ZNSt8_Rb_treeIjjSt9_IdentityIjESt4lessIjESaIjEE16_M_insert_uniqueIjEESt4pairISt17_Rb_tree_iteratorIjEbEOT_
FNDA:0,_ZNSt8_Rb_treeIjjSt9_IdentityIjESt4lessIjESaIjEE16_M_insert_uniqueIjEESt4pairISt17_Rb_tree_iteratorIjEbEOT_
FN:2139,_ZNSt8_Rb_treeINSt7__cxx1112basic_stringIcSt11char_traitsIcESaIcEEES5_St9_IdentityIS5_ESt4lessIS5_ESaIS5_EE16_M_insert_uniqueIRKS5_EESt4pairISt17_Rb_tree_iteratorIS5_EbEOT_
FNDA:0,_ZNSt8_Rb_treeINSt7__cxx1112basic_stringIcSt11char_traitsIcESaIcEEES5_St9_IdentityIS5_ESt4lessIS5_ESaIS5_EE16_M_insert_uniqueIRKS5_EESt4pairISt17_Rb_tree_iteratorIS5_EbEOT_
FN:2187,_ZNSt8_Rb_treeINSt7__cxx1112basic_stringIcSt11char_traitsIcESaIcEEESt4pairIKS5_PN7libMesh10Parameters5ValueEESt10_Select1stISC_ESt4lessIS5_ESaISC_EE29_M_get_insert_hint_unique_posESt23_Rb_tree_const_iteratorISC_ERS7_
FNDA:0,_ZNSt8_Rb_treeINSt7__cxx1112basic_stringIcSt11char_traitsIcESaIcEEESt4pairIKS5_PN7libMesh10Parameters5ValueEESt10_Select1stISC_ESt4lessIS5_ESaISC_EE29_M_get_insert_hint_unique_posESt23_Rb_tree_const_iteratorISC_ERS7_
FN:2187,_ZNSt8_Rb_treeINSt7__cxx1112basic_stringIcSt11char_traitsIcESaIcEEESt4pairIKS5_N15InputParameters8MetadataEESt10_Select1stISA_ESt4lessIS5_ESaISA_EE29_M_get_insert_hint_unique_posESt23_Rb_tree_const_iteratorISA_ERS7_
FNDA:0,_ZNSt8_Rb_treeINSt7__cxx1112basic_stringIcSt11char_traitsIcESaIcEEESt4pairIKS5_N15InputParameters8MetadataEESt10_Select1stISA_ESt4lessIS5_ESaISA_EE29_M_get_insert_hint_unique_posESt23_Rb_tree_const_iteratorISA_ERS7_
FN:2354,_ZNSt8_Rb_treeINSt7__cxx1112basic_stringIcSt11char_traitsIcESaIcEEESt4pairIKS5_PN7libMesh10Parameters5ValueEESt10_Select1stISC_ESt4lessIS5_ESaISC_EE14_M_insert_nodeEPSt18_Rb_tree_node_baseSK_PSt13_Rb_tree_nodeISC_E
FNDA:0,_ZNSt8_Rb_treeINSt7__cxx1112basic_stringIcSt11char_traitsIcESaIcEEESt4pairIKS5_PN7libMesh10Parameters5ValueEESt10_Select1stISC_ESt4lessIS5_ESaISC_EE14_M_insert_nodeEPSt18_Rb_tree_node_baseSK_PSt13_Rb_tree_nodeISC_E
FN:2354,_ZNSt8_Rb_treeINSt7__cxx1112basic_stringIcSt11char_traitsIcESaIcEEESt4pairIKS5_N15InputParameters8MetadataEESt10_Select1stISA_ESt4lessIS5_ESaISA_EE14_M_insert_nodeEPSt18_Rb_tree_node_baseSI_PSt13_Rb_tree_nodeISA_E
FNDA:0,_ZNSt8_Rb_treeINSt7__cxx1112basic_stringIcSt11char_traitsIcESaIcEEESt4pairIKS5_N15InputParameters8MetadataEESt10_Select1stISA_ESt4lessIS5_ESaISA_EE14_M_insert_nodeEPSt18_Rb_tree_node_baseSI_PSt13_Rb_tree_nodeISA_E
FN:2452,_ZNSt8_Rb_treeINSt7__cxx1112basic_stringIcSt11char_traitsIcESaIcEEESt4pairIKS5_N15InputParameters8MetadataEESt10_Select1stISA_ESt4lessIS5_ESaISA_EE22_M_emplace_hint_uniqueIJRKSt21piecewise_construct_tSt5tupleIJRS7_EESL_IJEEEEESt17_Rb_tree_iteratorISA_ESt23_Rb_tree_const_iteratorISA_EDpOT_
FNDA:0,_ZNSt8_Rb_treeINSt7__cxx1112basic_stringIcSt11char_traitsIcESaIcEEESt4pairIKS5_N15InputParameters8MetadataEESt10_Select1stISA_ESt4lessIS5_ESaISA_EE22_M_emplace_hint_uniqueIJRKSt21piecewise_construct_tSt5tupleIJRS7_EESL_IJEEEEESt17_Rb_tree_iteratorISA_ESt23_Rb_tree_const_iteratorISA_EDpOT_
FN:2452,_ZNSt8_Rb_treeINSt7__cxx1112basic_stringIcSt11char_traitsIcESaIcEEESt4pairIKS5_PN7libMesh10Parameters5ValueEESt10_Select1stISC_ESt4lessIS5_ESaISC_EE22_M_emplace_hint_uniqueIJRKSt21piecewise_construct_tSt5tupleIJRS7_EESN_IJEEEEESt17_Rb_tree_iteratorISC_ESt23_Rb_tree_const_iteratorISC_EDpOT_
FNDA:0,_ZNSt8_Rb_treeINSt7__cxx1112basic_stringIcSt11char_traitsIcESaIcEEESt4pairIKS5_PN7libMesh10Parameters5ValueEESt10_Select1stISC_ESt4lessIS5_ESaISC_EE22_M_emplace_hint_uniqueIJRKSt21piecewise_construct_tSt5tupleIJRS7_EESN_IJEEEEESt17_Rb_tree_iteratorISC_ESt23_Rb_tree_const_iteratorISC_EDpOT_
FN:2504,_ZNSt8_Rb_treeINSt7__cxx1112basic_stringIcSt11char_traitsIcESaIcEEESt4pairIKS5_PN7libMesh10Parameters5ValueEESt10_Select1stISC_ESt4lessIS5_ESaISC_EE12_M_erase_auxESt23_Rb_tree_const_iteratorISC_E
FNDA:0,_ZNSt8_Rb_treeINSt7__cxx1112basic_stringIcSt11char_traitsIcESaIcEEESt4pairIKS5_PN7libMesh10Parameters5ValueEESt10_Select1stISC_ESt4lessIS5_ESaISC_EE12_M_erase_auxESt23_Rb_tree_const_iteratorISC_E
FN:2554,_ZNSt8_Rb_treeINSt7__cxx1112basic_stringIcSt11char_traitsIcESaIcEEESt4pairIKS5_PN7libMesh10Parameters5ValueEESt10_Select1stISC_ESt4lessIS5_ESaISC_EE4findERS7_
FNDA:0,_ZNSt8_Rb_treeINSt7__cxx1112basic_stringIcSt11char_traitsIcESaIcEEESt4pairIKS5_PN7libMesh10Parameters5ValueEESt10_Select1stISC_ESt4lessIS5_ESaISC_EE4findERS7_
FN:2567,_ZNKSt8_Rb_treeINSt7__cxx1112basic_stringIcSt11char_traitsIcESaIcEEESt4pairIKS5_N15InputParameters8MetadataEESt10_Select1stISA_ESt4lessIS5_ESaISA_EE4findERS7_
FNDA:0,_ZNKSt8_Rb_treeINSt7__cxx1112basic_stringIcSt11char_traitsIcESaIcEEESt4pairIKS5_N15InputParameters8MetadataEESt10_Select1stISA_ESt4lessIS5_ESaISA_EE4findERS7_
FN:2567,_ZNKSt8_Rb_treeINSt7__cxx1112basic_stringIcSt11char_traitsIcESaIcEEESt4pairIKS5_PN7libMesh10Parameters5ValueEESt10_Select1stISC_ESt4lessIS5_ESaISC_EE4findERS7_
FNDA:0,_ZNKSt8_Rb_treeINSt7__cxx1112basic_stringIcSt11char_traitsIcESaIcEEESt4pairIKS5_PN7libMesh10Parameters5ValueEESt10_Select1stISC_ESt4lessIS5_ESaISC_EE4findERS7_
FNF:44
FNH:0
DA:114,0
DA:128,0
DA:208,0
DA:209,0
DA:210,0
DA:211,0
DA:287,0
DA:302,0
DA:303,0
DA:348,0
DA:349,0
DA:366,0
DA:367,0
DA:454,0
DA:455,0
DA:457,0
DA:459,0
DA:461,0
DA:462,0
DA:465,0
DA:473,0
DA:480,0
DA:483,0
DA:484,0
DA:487,0
DA:488,0
DA:491,0
DA:480,0
DA:483,0
DA:484,0
DA:487,0
DA:488,0
DA:491,0
DA:496,0
DA:498,0
DA:502,0
DA:503,0
DA:505,0
DA:507,0
DA:509,0
DA:511,0
DA:513,0
DA:514,0
DA:516,0
DA:517,0
DA:521,0
DA:524,0
DA:496,0
DA:498,0
DA:502,0
DA:503,0
DA:505,0
DA:507,0
DA:509,0
DA:511,0
DA:513,0
DA:514,0
DA:516,0
DA:517,0
DA:521,0
DA:524,0
DA:538,0
DA:539,0
DA:609,0
DA:618,0
DA:620,0
DA:622,0
DA:624,0
DA:609,0
DA:618,0
DA:620,0
DA:622,0
DA:624,0
DA:631,0
DA:643,0
DA:658,0
DA:659,0
DA:660,0
DA:661,0
DA:756,0
DA:760,0
DA:899,0
DA:901,0
DA:902,0
DA:903,0
DA:904,0
DA:905,0
DA:899,0
DA:901,0
DA:902,0
DA:903,0
DA:904,0
DA:905,0
DA:995,232
DA:1015,0
DA:1019,0
DA:1220,0
DA:1281,0
DA:1282,0
DA:1281,0
DA:1282,0
DA:1285,0
DA:1286,0
DA:1757,0
DA:1760,0
DA:1782,0
DA:1783,0
DA:1786,0
DA:1757,0
DA:1760,0
DA:1782,0
DA:1783,0
DA:1786,0
DA:1797,0
DA:1806,0
DA:1807,0
DA:1812,0
DA:1813,0
DA:1814,0
DA:1815,0
DA:1871,0
DA:1876,0
DA:1880,0
DA:1881,0
DA:1883,0
DA:1885,0
DA:1888,0
DA:1889,0
DA:1890,0
DA:1891,0
DA:1893,0
DA:1896,0
DA:1898,0
DA:1899,0
DA:1901,0
DA:1871,0
DA:1876,0
DA:1880,0
DA:1881,0
DA:1883,0
DA:1885,0
DA:1888,0
DA:1889,0
DA:1890,0
DA:1891,0
DA:1893,0
DA:1896,0
DA:1898,0
DA:1899,0
DA:1901,0
DA:1907,0
DA:1911,0
DA:1913,0
DA:1914,0
DA:1918,0
DA:1907,0
DA:1911,0
DA:1913,0
DA:1914,0
DA:1915,0
DA:1918,0
DA:1907,0
DA:1911,0
DA:1913,0
DA:1914,0
DA:1918,0
DA:1907,0
DA:1911,0
DA:1913,0
DA:1914,0
DA:1915,0
DA:1918,0
DA:1907,0
DA:1911,0
DA:1913,0
DA:1914,0
DA:1915,0
DA:1918,0
DA:1907,0
DA:1911,0
DA:1913,0
DA:1914,0
DA:1915,0
DA:1918,0
DA:1907,0
DA:1911,0
DA:1913,0
DA:1914,0
DA:1918,0
DA:1907,0
DA:1911,0
DA:1913,0
DA:1914,0
DA:1918,0
DA:1907,0
DA:1911,0
DA:1913,0
DA:1914,0
DA:1918,0
DA:1907,0
DA:1911,0
DA:1913,0
DA:1914,0
DA:1918,0
DA:1907,0
DA:1911,0
DA:1913,0
DA:1914,0
DA:1918,0
DA:1907,0
DA:1911,0
DA:1913,0
DA:1914,0
DA:1915,0
DA:1918,0
DA:1928,0
DA:1929,0
DA:1930,0
DA:1932,0
DA:1944,0
DA:1945,0
DA:1946,0
DA:1948,0
DA:2085,0
DA:2089,0
DA:2092,0
DA:2096,0
DA:2099,0
DA:2101,0
DA:2102,0
DA:2106,0
DA:2107,0
DA:2108,0
DA:2085,0
DA:2089,0
DA:2092,0
DA:2096,0
DA:2099,0
DA:2101,0
DA:2102,0
DA:2106,0
DA:2107,0
DA:2108,0
DA:2085,0
DA:2089,0
DA:2092,0
DA:2095,0
DA:2096,0
DA:2099,0
DA:2101,0
DA:2102,0
DA:2106,0
DA:2107,0
DA:2108,0
DA:2085,0
DA:2089,0
DA:2092,0
DA:2096,0
DA:2099,0
DA:2101,0
DA:2102,0
DA:2106,0
DA:2107,0
DA:2108,0
DA:2139,0
DA:2147,0
DA:2150,0
DA:2153,0
DA:2155,0
DA:2158,0
DA:2139,0
DA:2147,0
DA:2150,0
DA:2153,0
DA:2155,0
DA:2158,0
DA:2187,0
DA:2191,0
DA:2195,0
DA:2197,0
DA:2198,0
DA:2199,0
DA:2201,0
DA:2203,0
DA:2207,0
DA:2208,0
DA:2209,0
DA:2211,0
DA:2212,0
DA:2214,0
DA:2217,0
DA:2219,0
DA:2223,0
DA:2224,0
DA:2225,0
DA:2227,0
DA:2228,0
DA:2230,0
DA:2233,0
DA:2237,0
DA:2187,0
DA:2191,0
DA:2195,0
DA:2197,0
DA:2198,0
DA:2199,0
DA:2201,0
DA:2203,0
DA:2207,0
DA:2208,0
DA:2209,0
DA:2211,0
DA:2212,0
DA:2214,0
DA:2217,0
DA:2219,0
DA:2223,0
DA:2224,0
DA:2225,0
DA:2227,0
DA:2228,0
DA:2230,0
DA:2233,0
DA:2237,0
DA:2354,0
DA:2357,0
DA:2358,0
DA:2361,0
DA:2362,0
DA:2363,0
DA:2364,0
DA:2354,0
DA:2357,0
DA:2358,0
DA:2361,0
DA:2362,0
DA:2363,0
DA:2364,0
DA:2452,0
DA:2459,0
DA:2461,0
DA:2462,0
DA:2465,0
DA:2452,0
DA:2459,0
DA:2461,0
DA:2462,0
DA:2464,0
DA:2465,0
DA:2504,0
DA:2509,0
DA:2510,0
DA:2511,0
DA:2512,0
DA:2513,0
DA:2554,0
DA:2557,0
DA:2559,0
DA:2560,0
DA:2567,0
DA:2570,0
DA:2572,0
DA:2573,0
DA:2567,0
DA:2570,0
DA:2572,0
DA:2573,0
LF:367
LH:1
end_of_record
SF:/home/runner/work/raccoon/raccoon/moose/framework/build/header_symlinks/OutputInterface.h
LF:0
LH:0
end_of_record
SF:/usr/share/miniconda/envs/moose/libmesh/include/libmesh/quadrature.h
DA:129,390748
LF:1
LH:1
end_of_record
SF:/home/runner/work/raccoon/raccoon/moose/framework/build/header_symlinks/MooseTypes.h
DA:880,27
DA:886,0
DA:919,402
DA:922,0
LF:4
LH:2
end_of_record
SF:/home/runner/work/raccoon/raccoon/src/materials/large_deformation_models/CNHIsotropicElasticity.C
FN:11,_ZN22CNHIsotropicElasticity11validParamsEv
FNDA:102,_ZN22CNHIsotropicElasticity11validParamsEv
FN:31,_ZN22CNHIsotropicElasticityC2ERK15InputParameters
FNDA:3,_ZN22CNHIsotropicElasticityC2ERK15InputParameters
FN:55,_ZN22CNHIsotropicElasticity19computeMandelStressERK18RankTwoTensorTemplIN11MetaPhysicL10DualNumberIdNS1_28SemiDynamicSparseNumberArrayIdmNS1_8NWrapperILm50EEEEELb1EEEEb
FNDA:3144,_ZN22CNHIsotropicElasticity19computeMandelStressERK18RankTwoTensorTemplIN11MetaPhysicL10DualNumberIdNS1_28SemiDynamicSparseNumberArrayIdmNS1_8NWrapperILm50EEEEELb1EEEEb
FN:71,_ZN22CNHIsotropicElasticity34computeMandelStressNoDecompositionERK18RankTwoTensorTemplIN11MetaPhysicL10DualNumberIdNS1_28SemiDynamicSparseNumberArrayIdmNS1_8NWrapperILm50EEEEELb1EEEEb
FNDA:3144,_ZN22CNHIsotropicElasticity34computeMandelStressNoDecompositionERK18RankTwoTensorTemplIN11MetaPhysicL10DualNumberIdNS1_28SemiDynamicSparseNumberArrayIdmNS1_8NWrapperILm50EEEEELb1EEEEb
FN:108,_ZN22CNHIsotropicElasticity38computeMandelStressVolDevDecompositionERK18RankTwoTensorTemplIN11MetaPhysicL10DualNumberIdNS1_28SemiDynamicSparseNumberArrayIdmNS1_8NWrapperILm50EEEEELb1EEEEb
FNDA:0,_ZN22CNHIsotropicElasticity38computeMandelStressVolDevDecompositionERK18RankTwoTensorTemplIN11MetaPhysicL10DualNumberIdNS1_28SemiDynamicSparseNumberArrayIdmNS1_8NWrapperILm50EEEEELb1EEEEb
FNF:5
FNH:4
DA:11,102
DA:13,102
DA:14,102
DA:16,204
DA:17,204
DA:19,204
DA:20,204
DA:24,204
DA:25,306
DA:26,306
DA:28,102
DA:31,3
DA:34,6
DA:35,6
DA:37,6
DA:41,3
DA:42,6
DA:43,9
DA:47,3
DA:48,9
DA:50,36
DA:52,3
DA:55,3144
DA:58,3144
DA:60,3144
DA:61,3144
DA:62,0
DA:63,0
DA:65,0
DA:67,3144
DA:71,3144
DA:75,3144
DA:76,3144
DA:78,1048
DA:79,1048
DA:82,2096
DA:84,3144
DA:86,3144
DA:89,9432
DA:90,3144
DA:94,3144
DA:96,2096
DA:97,4192
DA:98,4192
DA:99,2096
DA:100,2096
DA:101,2912
DA:104,3144
DA:108,0
DA:112,0
DA:113,0
DA:115,0
DA:116,0
DA:119,0
DA:121,0
DA:123,0
DA:126,0
DA:127,0
DA:129,0
DA:133,0
DA:135,0
DA:136,0
DA:137,0
DA:138,0
DA:139,0
DA:140,0
DA:143,0
LF:67
LH:45
end_of_record
SF:/usr/share/miniconda/envs/moose/x86_64-conda-linux-gnu/include/c++/9.3.0/ext/atomicity.h
DA:49,0
DA:67,0
DA:68,0
DA:81,0
DA:82,0
DA:84,0
LF:6
LH:0
end_of_record
SF:/home/runner/work/raccoon/raccoon/src/materials/large_deformation_models/LargeDeformationNewtonianViscosity.C
FN:10,_ZN34LargeDeformationNewtonianViscosity11validParamsEv
FNDA:102,_ZN34LargeDeformationNewtonianViscosity11validParamsEv
FN:20,_ZN34LargeDeformationNewtonianViscosityC2ERK15InputParameters
FNDA:3,_ZN34LargeDeformationNewtonianViscosityC2ERK15InputParameters
FN:29,_ZN34LargeDeformationNewtonianViscosity19computeCauchyStressERK18RankTwoTensorTemplIN11MetaPhysicL10DualNumberIdNS1_28SemiDynamicSparseNumberArrayIdmNS1_8NWrapperILm50EEEEELb1EEEERKS0_IdE
FNDA:62224,_ZN34LargeDeformationNewtonianViscosity19computeCauchyStressERK18RankTwoTensorTemplIN11MetaPhysicL10DualNumberIdNS1_28SemiDynamicSparseNumberArrayIdmNS1_8NWrapperILm50EEEEELb1EEEERKS0_IdE
FNF:3
FNH:3
DA:10,102
DA:12,102
DA:13,102
DA:14,204
DA:15,204
DA:17,102
DA:20,3
DA:21,3
DA:23,6
DA:24,9
DA:26,3
DA:29,62224
DA:32,62224
DA:33,62224
DA:34,62224
DA:35,124448
LF:16
LH:16
end_of_record
SF:/home/runner/work/raccoon/raccoon/build/header_symlinks/LargeDeformationJ2PowerLawCreep.h
LF:0
LH:0
end_of_record
SF:/home/runner/work/raccoon/raccoon/moose/framework/build/header_symlinks/DataIO.h
DA:172,0
DA:377,0
DA:378,0
DA:425,0
DA:455,0
DA:649,0
DA:650,0
DA:698,0
DA:727,0
DA:791,0
LF:10
LH:0
end_of_record
SF:/home/runner/work/raccoon/raccoon/moose/framework/build/header_symlinks/VectorPostprocessorInterface.h
FN:311,_ZNK28VectorPostprocessorInterface38addVectorPostprocessorDependencyHelperERK23VectorPostprocessorName
FNDA:0,_ZNK28VectorPostprocessorInterface38addVectorPostprocessorDependencyHelperERK23VectorPostprocessorName
FNF:1
FNH:0
DA:311,0
DA:313,0
LF:2
LH:0
end_of_record
SF:/usr/share/miniconda/envs/moose/libmesh/include/metaphysicl/dualnumber_decl.h
DA:56,24
DA:173,1236580
DA:327,120576
LF:3
LH:3
end_of_record
SF:/home/runner/work/raccoon/raccoon/build/header_symlinks/LargeDeformationPlasticityModel.h
FN:42,_ZN31LargeDeformationPlasticityModel17resetQpPropertiesEv
FNDA:0,_ZN31LargeDeformationPlasticityModel17resetQpPropertiesEv
FN:43,_ZN31LargeDeformationPlasticityModel15resetPropertiesEv
FNDA:27622,_ZN31LargeDeformationPlasticityModel15resetPropertiesEv
FNF:2
FNH:1
DA:42,0
DA:43,27622
LF:2
LH:1
end_of_record
SF:/usr/share/miniconda/envs/moose/x86_64-conda-linux-gnu/include/c++/9.3.0/bits/shared_ptr.h
DA:359,108
DA:718,108
LF:2
LH:2
end_of_record
SF:/usr/share/miniconda/envs/moose/x86_64-conda-linux-gnu/include/c++/9.3.0/bits/locale_facets.h
FN:886,_ZNKSt5ctypeIcE5widenEc
FNDA:0,_ZNKSt5ctypeIcE5widenEc
FN:1098,_ZNKSt5ctypeIcE8do_widenEc
FNDA:0,_ZNKSt5ctypeIcE8do_widenEc
FNF:2
FNH:0
DA:886,0
DA:888,0
DA:889,0
DA:890,0
DA:891,0
DA:1098,0
DA:1099,0
LF:7
LH:0
end_of_record
SF:/usr/share/miniconda/envs/moose/libmesh/include/metaphysicl/dynamicsparsenumberbase.h
FN:280,_ZN11MetaPhysicL23DynamicSparseNumberBaseINS_22DynamicStdArrayWrapperIdNS_8NWrapperILm50EEEEENS1_ImS3_EENS_28SemiDynamicSparseNumberArrayEJdmS3_EE14sparsity_unionIS5_EEvRKT_
FNDA:3043040000,_ZN11MetaPhysicL23DynamicSparseNumberBaseINS_22DynamicStdArrayWrapperIdNS_8NWrapperILm50EEEEENS1_ImS3_EENS_28SemiDynamicSparseNumberArrayEJdmS3_EE14sparsity_unionIS5_EEvRKT_
FN:550,_ZN11MetaPhysicL23DynamicSparseNumberBaseINS_22DynamicStdArrayWrapperIdNS_8NWrapperILm50EEEEENS1_ImS3_EENS_28SemiDynamicSparseNumberArrayEJdmS3_EEpLIJdmS3_EEERNS6_IdmS3_EERKNS6_IDpT_EE
FNDA:3043040000,_ZN11MetaPhysicL23DynamicSparseNumberBaseINS_22DynamicStdArrayWrapperIdNS_8NWrapperILm50EEEEENS1_ImS3_EENS_28SemiDynamicSparseNumberArrayEJdmS3_EEpLIJdmS3_EEERNS6_IdmS3_EERKNS6_IDpT_EE
FN:585,_ZN11MetaPhysicL23DynamicSparseNumberBaseINS_22DynamicStdArrayWrapperIdNS_8NWrapperILm50EEEEENS1_ImS3_EENS_28SemiDynamicSparseNumberArrayEJdmS3_EEmIIJdmS3_EEERNS6_IdmS3_EERKNS6_IDpT_EE
FNDA:129570,_ZN11MetaPhysicL23DynamicSparseNumberBaseINS_22DynamicStdArrayWrapperIdNS_8NWrapperILm50EEEEENS1_ImS3_EENS_28SemiDynamicSparseNumberArrayEJdmS3_EEmIIJdmS3_EEERNS6_IdmS3_EERKNS6_IDpT_EE
FN:725,_ZN11MetaPhysicL7if_elseINS_28SemiDynamicSparseNumberArrayENS_22DynamicStdArrayWrapperIdNS_8NWrapperILm50EEEEENS2_ImS4_EEJdmS4_ES5_S6_JdmS4_ES5_S6_JdmS4_EEENT_IJDpT5_EE6rebindINS_12CompareTypesINT3_10value_typeENT6_10value_typeELb0EvE9supertypeENSC_INT4_10value_typeENT7_10value_typeELb0EvE9supertypeEE5otherERKNS_23DynamicSparseNumberBaseIT0_T1_S7_JDpT2_EEERKNSR_ISD_SJ_S7_JS9_EEERKNSR_ISF_SL_S7_JDpT8_EEE
FNDA:306588,_ZN11MetaPhysicL7if_elseINS_28SemiDynamicSparseNumberArrayENS_22DynamicStdArrayWrapperIdNS_8NWrapperILm50EEEEENS2_ImS4_EEJdmS4_ES5_S6_JdmS4_ES5_S6_JdmS4_EEENT_IJDpT5_EE6rebindINS_12CompareTypesINT3_10value_typeENT6_10value_typeELb0EvE9supertypeENSC_INT4_10value_typeENT7_10value_typeELb0EvE9supertypeEE5otherERKNS_23DynamicSparseNumberBaseIT0_T1_S7_JDpT2_EEERKNSR_ISD_SJ_S7_JS9_EEERKNSR_ISF_SL_S7_JDpT8_EEE
FNF:4
FNH:4
DA:41,1527040000
DA:53,3494930000
DA:95,1290580000
DA:125,3043170000
DA:266,32771
DA:268,28136
DA:269,28136
DA:280,3043040000
DA:302,3458890000
DA:303,415847000
DA:304,415847000
DA:306,424579000
DA:307,8731510
DA:308,8731510
DA:311,2015200000
DA:312,2015200000
DA:313,1599350000
DA:314,1599350000
DA:315,1599350000
DA:316,1599350000
DA:319,1643750000
DA:320,1422000000
DA:321,1422000000
DA:322,1422000000
DA:324,1227900000
DA:329,3043040000
DA:334,194101000
DA:355,1621240000
DA:356,1427130000
DA:357,9508000
DA:358,9508000
DA:359,1422000000
DA:360,1422000000
DA:363,5130000
DA:364,4474770
DA:368,5130000
DA:369,5130000
DA:550,3043040000
DA:553,3043040000
DA:561,6064390000
DA:563,3021350000
DA:564,3021350000
DA:566,5644140000
DA:567,2622790000
DA:568,2622790000
DA:570,2622790000
DA:574,3021350000
DA:577,3043040000
DA:585,129570
DA:588,129570
DA:596,206842
DA:598,77272
DA:599,77272
DA:601,155589
DA:602,78317
DA:603,78317
DA:605,78317
DA:609,77272
DA:612,129570
DA:690,2477350000
DA:691,951101000
DA:702,3888530
DA:703,3110900
DA:725,306588
DA:765,306588
DA:767,0
DA:768,0
DA:770,0
DA:771,0
DA:773,0
DA:774,0
DA:777,0
DA:779,0
DA:780,0
DA:782,0
DA:783,0
DA:785,0
DA:786,0
DA:789,0
DA:790,0
DA:791,0
DA:793,0
DA:795,0
DA:796,0
DA:801,0
DA:802,0
DA:805,0
DA:806,0
DA:807,0
DA:828,306588
DA:830,0
DA:831,0
DA:833,0
DA:835,0
DA:836,0
DA:837,0
DA:838,0
DA:841,0
DA:842,0
DA:845,0
DA:847,0
DA:848,0
DA:850,0
DA:851,0
DA:853,0
DA:854,0
DA:857,0
DA:858,0
DA:859,0
DA:860,0
DA:861,0
DA:862,0
DA:864,0
DA:866,0
DA:867,0
DA:872,0
DA:873,0
DA:876,0
DA:877,0
DA:878,0
DA:879,0
DA:880,0
DA:881,0
DA:894,306588
DA:949,1519880000
DA:955,2810470000
DA:956,1290580000
DA:957,1290580000
DA:971,7456
DA:977,7456
DA:978,0
DA:979,0
DA:992,0
DA:997,0
DA:998,0
DA:999,0
LF:136
LH:73
end_of_record
SF:/usr/share/miniconda/envs/moose/libmesh/include/Eigen/src/Core/util/Memory.h
LF:0
LH:0
end_of_record
SF:/usr/share/miniconda/envs/moose/x86_64-conda-linux-gnu/include/c++/9.3.0/bits/char_traits.h
DA:300,81
DA:335,10882
DA:363,27
DA:365,27
LF:4
LH:4
end_of_record
SF:/usr/share/miniconda/envs/moose/libmesh/include/Eigen/src/Core/PlainObjectBase.h
LF:0
LH:0
end_of_record
SF:/home/runner/work/raccoon/raccoon/moose/framework/build/header_symlinks/ScalarCoupleable.h
LF:0
LH:0
end_of_record
TN:
SF:/usr/share/miniconda/envs/moose/x86_64-conda-linux-gnu/include/c++/9.3.0/bits/stl_uninitialized.h
DA:949,0
LF:1
LH:0
end_of_record
SF:/home/runner/work/raccoon/raccoon/moose/framework/build/header_symlinks/MooseEnumItem.h
FN:23,_ZN13MooseEnumItemD2Ev
FNDA:0,_ZN13MooseEnumItemD2Ev
FNF:1
FNH:0
DA:23,0
LF:1
LH:0
end_of_record
SF:/usr/share/miniconda/envs/moose/x86_64-conda-linux-gnu/include/c++/9.3.0/bits/stl_function.h
DA:1156,241302
LF:1
LH:1
end_of_record
SF:/usr/share/miniconda/envs/moose/libmesh/include/libmesh/reference_counter.h
FN:150,_ZN7libMesh16ReferenceCounterC2Ev
FNDA:245076,_ZN7libMesh16ReferenceCounterC2Ev
FN:171,_ZN7libMesh16ReferenceCounterD2Ev
FNDA:936385,_ZN7libMesh16ReferenceCounterD2Ev
FNF:2
FNH:2
DA:150,245076
DA:153,245076
DA:171,936385
DA:174,936385
LF:4
LH:4
end_of_record
SF:/usr/share/miniconda/envs/moose/x86_64-conda-linux-gnu/include/c++/9.3.0/bits/std_function.h
LF:0
LH:0
end_of_record
SF:/usr/share/miniconda/envs/moose/x86_64-conda-linux-gnu/include/c++/9.3.0/bits/vector.tcc
FN:426,_ZNSt6vectorI20MaterialPropertyNameSaIS0_EE17_M_realloc_insertIJRKS0_EEEvN9__gnu_cxx17__normal_iteratorIPS0_S2_EEDpOT_
FNDA:0,_ZNSt6vectorI20MaterialPropertyNameSaIS0_EE17_M_realloc_insertIJRKS0_EEEvN9__gnu_cxx17__normal_iteratorIPS0_S2_EEDpOT_
FNF:1
FNH:0
DA:426,0
DA:435,0
DA:437,0
DA:438,0
DA:440,0
DA:449,0
DA:450,0
DA:464,0
DA:485,0
DA:487,0
DA:493,0
DA:502,0
DA:503,0
DA:504,0
DA:505,0
LF:15
LH:0
end_of_record
SF:/usr/share/miniconda/envs/moose/x86_64-conda-linux-gnu/include/c++/9.3.0/initializer_list
DA:79,0
LF:1
LH:0
end_of_record
SF:/usr/share/miniconda/envs/moose/x86_64-conda-linux-gnu/include/c++/9.3.0/ext/new_allocator.h
DA:114,0
DA:128,3139
DA:147,0
DA:153,0
LF:4
LH:1
end_of_record
SF:/usr/share/miniconda/envs/moose/x86_64-conda-linux-gnu/include/c++/9.3.0/streambuf
LF:0
LH:0
end_of_record
SF:/usr/share/miniconda/envs/moose/libmesh/include/libmesh/libmesh_exceptions.h
DA:42,0
LF:1
LH:0
end_of_record
SF:/home/runner/work/raccoon/raccoon/moose/framework/build/header_symlinks/MooseTypes.h
DA:919,1001
LF:1
LH:1
end_of_record
SF:/usr/share/miniconda/envs/moose/x86_64-conda-linux-gnu/include/c++/9.3.0/bits/hashtable.h
FN:1348,_ZNSt10_HashtableINSt7__cxx1112basic_stringIcSt11char_traitsIcESaIcEEESt4pairIKS5_S5_ESaIS8_ENSt8__detail10_Select1stESt8equal_toIS5_ESt4hashIS5_ENSA_18_Mod_range_hashingENSA_20_Default_ranged_hashENSA_20_Prime_rehash_policyENSA_17_Hashtable_traitsILb1ELb0ELb1EEEED2Ev
FNDA:0,_ZNSt10_HashtableINSt7__cxx1112basic_stringIcSt11char_traitsIcESaIcEEESt4pairIKS5_S5_ESaIS8_ENSt8__detail10_Select1stESt8equal_toIS5_ESt4hashIS5_ENSA_18_Mod_range_hashingENSA_20_Default_ranged_hashENSA_20_Prime_rehash_policyENSA_17_Hashtable_traitsILb1ELb0ELb1EEEED2Ev
FN:2024,_ZNSt10_HashtableINSt7__cxx1112basic_stringIcSt11char_traitsIcESaIcEEESt4pairIKS5_S5_ESaIS8_ENSt8__detail10_Select1stESt8equal_toIS5_ESt4hashIS5_ENSA_18_Mod_range_hashingENSA_20_Default_ranged_hashENSA_20_Prime_rehash_policyENSA_17_Hashtable_traitsILb1ELb0ELb1EEEE5clearEv
FNDA:0,_ZNSt10_HashtableINSt7__cxx1112basic_stringIcSt11char_traitsIcESaIcEEESt4pairIKS5_S5_ESaIS8_ENSt8__detail10_Select1stESt8equal_toIS5_ESt4hashIS5_ENSA_18_Mod_range_hashingENSA_20_Default_ranged_hashENSA_20_Prime_rehash_policyENSA_17_Hashtable_traitsILb1ELb0ELb1EEEE5clearEv
FNF:2
FNH:0
DA:343,0
DA:367,0
DA:375,0
DA:1348,0
DA:1352,0
DA:1354,0
DA:2024,0
DA:2028,0
DA:2029,0
DA:2030,0
DA:2031,0
DA:2032,0
LF:12
LH:0
end_of_record
SF:/usr/share/miniconda/envs/moose/x86_64-conda-linux-gnu/include/c++/9.3.0/bits/stl_tree.h
FN:609,_ZNSt8_Rb_treeINSt7__cxx1112basic_stringIcSt11char_traitsIcESaIcEEESt4pairIKS5_N15InputParameters8MetadataEESt10_Select1stISA_ESt4lessIS5_ESaISA_EE17_M_construct_nodeIJRKSt21piecewise_construct_tSt5tupleIJRS7_EESL_IJEEEEEvPSt13_Rb_tree_nodeISA_EDpOT_
FNDA:0,_ZNSt8_Rb_treeINSt7__cxx1112basic_stringIcSt11char_traitsIcESaIcEEESt4pairIKS5_N15InputParameters8MetadataEESt10_Select1stISA_ESt4lessIS5_ESaISA_EE17_M_construct_nodeIJRKSt21piecewise_construct_tSt5tupleIJRS7_EESL_IJEEEEEvPSt13_Rb_tree_nodeISA_EDpOT_
FN:609,_ZNSt8_Rb_treeINSt7__cxx1112basic_stringIcSt11char_traitsIcESaIcEEESt4pairIKS5_PN7libMesh10Parameters5ValueEESt10_Select1stISC_ESt4lessIS5_ESaISC_EE17_M_construct_nodeIJRKSt21piecewise_construct_tSt5tupleIJRS7_EESN_IJEEEEEvPSt13_Rb_tree_nodeISC_EDpOT_
FNDA:0,_ZNSt8_Rb_treeINSt7__cxx1112basic_stringIcSt11char_traitsIcESaIcEEESt4pairIKS5_PN7libMesh10Parameters5ValueEESt10_Select1stISC_ESt4lessIS5_ESaISC_EE17_M_construct_nodeIJRKSt21piecewise_construct_tSt5tupleIJRS7_EESN_IJEEEEEvPSt13_Rb_tree_nodeISC_EDpOT_
FN:1281,_ZNSt8_Rb_treeINSt7__cxx1112basic_stringIcSt11char_traitsIcESaIcEEESt4pairIKS5_PN7libMesh10Parameters5ValueEESt10_Select1stISC_ESt4lessIS5_ESaISC_EE11lower_boundERS7_
FNDA:29253,_ZNSt8_Rb_treeINSt7__cxx1112basic_stringIcSt11char_traitsIcESaIcEEESt4pairIKS5_PN7libMesh10Parameters5ValueEESt10_Select1stISC_ESt4lessIS5_ESaISC_EE11lower_boundERS7_
FN:1281,_ZNSt8_Rb_treeINSt7__cxx1112basic_stringIcSt11char_traitsIcESaIcEEESt4pairIKS5_N15InputParameters8MetadataEESt10_Select1stISA_ESt4lessIS5_ESaISA_EE11lower_boundERS7_
FNDA:29449,_ZNSt8_Rb_treeINSt7__cxx1112basic_stringIcSt11char_traitsIcESaIcEEESt4pairIKS5_N15InputParameters8MetadataEESt10_Select1stISA_ESt4lessIS5_ESaISA_EE11lower_boundERS7_
FN:1907,_ZNSt8_Rb_treeINSt7__cxx1112basic_stringIcSt11char_traitsIcESaIcEEESt4pairIKS5_PN7libMesh10Parameters5ValueEESt10_Select1stISC_ESt4lessIS5_ESaISC_EE8_M_eraseEPSt13_Rb_tree_nodeISC_E
FNDA:0,_ZNSt8_Rb_treeINSt7__cxx1112basic_stringIcSt11char_traitsIcESaIcEEESt4pairIKS5_PN7libMesh10Parameters5ValueEESt10_Select1stISC_ESt4lessIS5_ESaISC_EE8_M_eraseEPSt13_Rb_tree_nodeISC_E
FN:1907,_ZNSt8_Rb_treeINSt7__cxx1112basic_stringIcSt11char_traitsIcESaIcEEESt4pairIKS5_N15InputParameters8MetadataEESt10_Select1stISA_ESt4lessIS5_ESaISA_EE8_M_eraseEPSt13_Rb_tree_nodeISA_E
FNDA:0,_ZNSt8_Rb_treeINSt7__cxx1112basic_stringIcSt11char_traitsIcESaIcEEESt4pairIKS5_N15InputParameters8MetadataEESt10_Select1stISA_ESt4lessIS5_ESaISA_EE8_M_eraseEPSt13_Rb_tree_nodeISA_E
FN:1907,_ZNSt8_Rb_treeIttSt9_IdentityItESt4lessItESaItEE8_M_eraseEPSt13_Rb_tree_nodeItE
FNDA:0,_ZNSt8_Rb_treeIttSt9_IdentityItESt4lessItESaItEE8_M_eraseEPSt13_Rb_tree_nodeItE
FN:1907,_ZNSt8_Rb_treeIssSt9_IdentityIsESt4lessIsESaIsEE8_M_eraseEPSt13_Rb_tree_nodeIsE
FNDA:0,_ZNSt8_Rb_treeIssSt9_IdentityIsESt4lessIsESaIsEE8_M_eraseEPSt13_Rb_tree_nodeIsE
FN:1907,_ZNSt8_Rb_treeINSt7__cxx1112basic_stringIcSt11char_traitsIcESaIcEEES5_St9_IdentityIS5_ESt4lessIS5_ESaIS5_EE8_M_eraseEPSt13_Rb_tree_nodeIS5_E
FNDA:0,_ZNSt8_Rb_treeINSt7__cxx1112basic_stringIcSt11char_traitsIcESaIcEEES5_St9_IdentityIS5_ESt4lessIS5_ESaIS5_EE8_M_eraseEPSt13_Rb_tree_nodeIS5_E
FN:1907,_ZNSt8_Rb_treeI13MooseEnumItemS0_St9_IdentityIS0_ESt4lessIS0_ESaIS0_EE8_M_eraseEPSt13_Rb_tree_nodeIS0_E
FNDA:0,_ZNSt8_Rb_treeI13MooseEnumItemS0_St9_IdentityIS0_ESt4lessIS0_ESaIS0_EE8_M_eraseEPSt13_Rb_tree_nodeIS0_E
FN:2085,_ZNSt8_Rb_treeINSt7__cxx1112basic_stringIcSt11char_traitsIcESaIcEEESt4pairIKS5_PN7libMesh10Parameters5ValueEESt10_Select1stISC_ESt4lessIS5_ESaISC_EE24_M_get_insert_unique_posERS7_
FNDA:0,_ZNSt8_Rb_treeINSt7__cxx1112basic_stringIcSt11char_traitsIcESaIcEEESt4pairIKS5_PN7libMesh10Parameters5ValueEESt10_Select1stISC_ESt4lessIS5_ESaISC_EE24_M_get_insert_unique_posERS7_
FN:2085,_ZNSt8_Rb_treeINSt7__cxx1112basic_stringIcSt11char_traitsIcESaIcEEESt4pairIKS5_N15InputParameters8MetadataEESt10_Select1stISA_ESt4lessIS5_ESaISA_EE24_M_get_insert_unique_posERS7_
FNDA:0,_ZNSt8_Rb_treeINSt7__cxx1112basic_stringIcSt11char_traitsIcESaIcEEESt4pairIKS5_N15InputParameters8MetadataEESt10_Select1stISA_ESt4lessIS5_ESaISA_EE24_M_get_insert_unique_posERS7_
FN:2187,_ZNSt8_Rb_treeINSt7__cxx1112basic_stringIcSt11char_traitsIcESaIcEEESt4pairIKS5_N15InputParameters8MetadataEESt10_Select1stISA_ESt4lessIS5_ESaISA_EE29_M_get_insert_hint_unique_posESt23_Rb_tree_const_iteratorISA_ERS7_
FNDA:0,_ZNSt8_Rb_treeINSt7__cxx1112basic_stringIcSt11char_traitsIcESaIcEEESt4pairIKS5_N15InputParameters8MetadataEESt10_Select1stISA_ESt4lessIS5_ESaISA_EE29_M_get_insert_hint_unique_posESt23_Rb_tree_const_iteratorISA_ERS7_
FN:2187,_ZNSt8_Rb_treeINSt7__cxx1112basic_stringIcSt11char_traitsIcESaIcEEESt4pairIKS5_PN7libMesh10Parameters5ValueEESt10_Select1stISC_ESt4lessIS5_ESaISC_EE29_M_get_insert_hint_unique_posESt23_Rb_tree_const_iteratorISC_ERS7_
FNDA:0,_ZNSt8_Rb_treeINSt7__cxx1112basic_stringIcSt11char_traitsIcESaIcEEESt4pairIKS5_PN7libMesh10Parameters5ValueEESt10_Select1stISC_ESt4lessIS5_ESaISC_EE29_M_get_insert_hint_unique_posESt23_Rb_tree_const_iteratorISC_ERS7_
FN:2354,_ZNSt8_Rb_treeINSt7__cxx1112basic_stringIcSt11char_traitsIcESaIcEEESt4pairIKS5_N15InputParameters8MetadataEESt10_Select1stISA_ESt4lessIS5_ESaISA_EE14_M_insert_nodeEPSt18_Rb_tree_node_baseSI_PSt13_Rb_tree_nodeISA_E
FNDA:0,_ZNSt8_Rb_treeINSt7__cxx1112basic_stringIcSt11char_traitsIcESaIcEEESt4pairIKS5_N15InputParameters8MetadataEESt10_Select1stISA_ESt4lessIS5_ESaISA_EE14_M_insert_nodeEPSt18_Rb_tree_node_baseSI_PSt13_Rb_tree_nodeISA_E
FN:2354,_ZNSt8_Rb_treeINSt7__cxx1112basic_stringIcSt11char_traitsIcESaIcEEESt4pairIKS5_PN7libMesh10Parameters5ValueEESt10_Select1stISC_ESt4lessIS5_ESaISC_EE14_M_insert_nodeEPSt18_Rb_tree_node_baseSK_PSt13_Rb_tree_nodeISC_E
FNDA:0,_ZNSt8_Rb_treeINSt7__cxx1112basic_stringIcSt11char_traitsIcESaIcEEESt4pairIKS5_PN7libMesh10Parameters5ValueEESt10_Select1stISC_ESt4lessIS5_ESaISC_EE14_M_insert_nodeEPSt18_Rb_tree_node_baseSK_PSt13_Rb_tree_nodeISC_E
FN:2452,_ZNSt8_Rb_treeINSt7__cxx1112basic_stringIcSt11char_traitsIcESaIcEEESt4pairIKS5_N15InputParameters8MetadataEESt10_Select1stISA_ESt4lessIS5_ESaISA_EE22_M_emplace_hint_uniqueIJRKSt21piecewise_construct_tSt5tupleIJRS7_EESL_IJEEEEESt17_Rb_tree_iteratorISA_ESt23_Rb_tree_const_iteratorISA_EDpOT_
FNDA:0,_ZNSt8_Rb_treeINSt7__cxx1112basic_stringIcSt11char_traitsIcESaIcEEESt4pairIKS5_N15InputParameters8MetadataEESt10_Select1stISA_ESt4lessIS5_ESaISA_EE22_M_emplace_hint_uniqueIJRKSt21piecewise_construct_tSt5tupleIJRS7_EESL_IJEEEEESt17_Rb_tree_iteratorISA_ESt23_Rb_tree_const_iteratorISA_EDpOT_
FN:2452,_ZNSt8_Rb_treeINSt7__cxx1112basic_stringIcSt11char_traitsIcESaIcEEESt4pairIKS5_PN7libMesh10Parameters5ValueEESt10_Select1stISC_ESt4lessIS5_ESaISC_EE22_M_emplace_hint_uniqueIJRKSt21piecewise_construct_tSt5tupleIJRS7_EESN_IJEEEEESt17_Rb_tree_iteratorISC_ESt23_Rb_tree_const_iteratorISC_EDpOT_
FNDA:0,_ZNSt8_Rb_treeINSt7__cxx1112basic_stringIcSt11char_traitsIcESaIcEEESt4pairIKS5_PN7libMesh10Parameters5ValueEESt10_Select1stISC_ESt4lessIS5_ESaISC_EE22_M_emplace_hint_uniqueIJRKSt21piecewise_construct_tSt5tupleIJRS7_EESN_IJEEEEESt17_Rb_tree_iteratorISC_ESt23_Rb_tree_const_iteratorISC_EDpOT_
FN:2504,_ZNSt8_Rb_treeINSt7__cxx1112basic_stringIcSt11char_traitsIcESaIcEEESt4pairIKS5_PN7libMesh10Parameters5ValueEESt10_Select1stISC_ESt4lessIS5_ESaISC_EE12_M_erase_auxESt23_Rb_tree_const_iteratorISC_E
FNDA:0,_ZNSt8_Rb_treeINSt7__cxx1112basic_stringIcSt11char_traitsIcESaIcEEESt4pairIKS5_PN7libMesh10Parameters5ValueEESt10_Select1stISC_ESt4lessIS5_ESaISC_EE12_M_erase_auxESt23_Rb_tree_const_iteratorISC_E
FN:2554,_ZNSt8_Rb_treeINSt7__cxx1112basic_stringIcSt11char_traitsIcESaIcEEESt4pairIKS5_PN7libMesh10Parameters5ValueEESt10_Select1stISC_ESt4lessIS5_ESaISC_EE4findERS7_
FNDA:0,_ZNSt8_Rb_treeINSt7__cxx1112basic_stringIcSt11char_traitsIcESaIcEEESt4pairIKS5_PN7libMesh10Parameters5ValueEESt10_Select1stISC_ESt4lessIS5_ESaISC_EE4findERS7_
FN:2567,_ZNKSt8_Rb_treeINSt7__cxx1112basic_stringIcSt11char_traitsIcESaIcEEESt4pairIKS5_PN7libMesh10Parameters5ValueEESt10_Select1stISC_ESt4lessIS5_ESaISC_EE4findERS7_
FNDA:0,_ZNKSt8_Rb_treeINSt7__cxx1112basic_stringIcSt11char_traitsIcESaIcEEESt4pairIKS5_PN7libMesh10Parameters5ValueEESt10_Select1stISC_ESt4lessIS5_ESaISC_EE4findERS7_
FNF:21
FNH:2
DA:287,0
DA:302,0
DA:303,0
DA:348,58506
DA:349,58506
DA:366,0
DA:367,0
DA:609,0
DA:618,0
DA:620,0
DA:622,0
DA:624,0
DA:609,0
DA:618,0
DA:620,0
DA:622,0
DA:624,0
DA:631,0
DA:643,0
DA:756,58702
DA:760,0
DA:995,0
DA:1015,58702
DA:1019,817157
DA:1220,0
DA:1281,29449
DA:1282,29449
DA:1281,29253
DA:1282,29253
DA:1907,0
DA:1911,0
DA:1913,0
DA:1914,0
DA:1918,0
DA:1907,0
DA:1911,0
DA:1913,0
DA:1914,0
DA:1918,0
DA:1907,0
DA:1911,0
DA:1913,0
DA:1914,0
DA:1915,0
DA:1918,0
DA:1907,0
DA:1911,0
DA:1913,0
DA:1914,0
DA:1918,0
DA:1907,0
DA:1911,0
DA:1913,0
DA:1914,0
DA:1918,0
DA:1907,0
DA:1911,0
DA:1913,0
DA:1914,0
DA:1915,0
DA:1918,0
DA:1928,300004
DA:1929,241302
DA:1930,99546
DA:1932,141756
DA:1944,0
DA:1945,0
DA:1946,0
DA:1948,0
DA:2085,0
DA:2089,0
DA:2092,0
DA:2096,0
DA:2099,0
DA:2101,0
DA:2102,0
DA:2106,0
DA:2107,0
DA:2108,0
DA:2085,0
DA:2089,0
DA:2092,0
DA:2096,0
DA:2099,0
DA:2101,0
DA:2102,0
DA:2106,0
DA:2107,0
DA:2108,0
DA:2187,0
DA:2191,0
DA:2195,0
DA:2197,0
DA:2198,0
DA:2199,0
DA:2201,0
DA:2203,0
DA:2207,0
DA:2208,0
DA:2209,0
DA:2211,0
DA:2212,0
DA:2214,0
DA:2217,0
DA:2219,0
DA:2223,0
DA:2224,0
DA:2225,0
DA:2227,0
DA:2228,0
DA:2230,0
DA:2233,0
DA:2237,0
DA:2187,0
DA:2191,0
DA:2195,0
DA:2197,0
DA:2198,0
DA:2199,0
DA:2201,0
DA:2203,0
DA:2207,0
DA:2208,0
DA:2209,0
DA:2211,0
DA:2212,0
DA:2214,0
DA:2217,0
DA:2219,0
DA:2223,0
DA:2224,0
DA:2225,0
DA:2227,0
DA:2228,0
DA:2230,0
DA:2233,0
DA:2237,0
DA:2354,0
DA:2357,0
DA:2358,0
DA:2361,0
DA:2362,0
DA:2363,0
DA:2364,0
DA:2354,0
DA:2357,0
DA:2358,0
DA:2361,0
DA:2362,0
DA:2363,0
DA:2364,0
DA:2452,0
DA:2459,0
DA:2461,0
DA:2462,0
DA:2465,0
DA:2452,0
DA:2459,0
DA:2461,0
DA:2462,0
DA:2464,0
DA:2465,0
DA:2504,0
DA:2509,0
DA:2510,0
DA:2511,0
DA:2512,0
DA:2513,0
DA:2554,0
DA:2557,0
DA:2559,0
DA:2560,0
DA:2567,0
DA:2570,0
DA:2572,0
DA:2573,0
LF:176
LH:13
end_of_record
SF:/usr/share/miniconda/envs/moose/libmesh/include/libmesh/parameters.h
FN:132,_ZN7libMesh10Parameters14set_attributesERKNSt7__cxx1112basic_stringIcSt11char_traitsIcESaIcEEEb
FNDA:0,_ZN7libMesh10Parameters14set_attributesERKNSt7__cxx1112basic_stringIcSt11char_traitsIcESaIcEEEb
FN:285,_ZNK7libMesh10Parameters9ParameterINSt7__cxx1112basic_stringIcSt11char_traitsIcESaIcEEEE4typeEv
FNDA:16566,_ZNK7libMesh10Parameters9ParameterINSt7__cxx1112basic_stringIcSt11char_traitsIcESaIcEEEE4typeEv
FN:293,_ZNK7libMesh10Parameters9ParameterINSt7__cxx1112basic_stringIcSt11char_traitsIcESaIcEEEE5printERSo
FNDA:4496,_ZNK7libMesh10Parameters9ParameterINSt7__cxx1112basic_stringIcSt11char_traitsIcESaIcEEEE5printERSo
FN:301,_ZNK7libMesh10Parameters9ParameterINSt7__cxx1112basic_stringIcSt11char_traitsIcESaIcEEEE5cloneEv
FNDA:215823,_ZNK7libMesh10Parameters9ParameterINSt7__cxx1112basic_stringIcSt11char_traitsIcESaIcEEEE5cloneEv
FN:316,_ZN7libMesh10Parameters5clearEv
FNDA:0,_ZN7libMesh10Parameters5clearEv
FN:332,_ZN7libMesh10ParametersaSERKS0_
FNDA:0,_ZN7libMesh10ParametersaSERKS0_
FN:341,_ZN7libMesh10ParameterspLERKS0_
FNDA:0,_ZN7libMesh10ParameterspLERKS0_
FN:362,_ZN7libMesh10ParametersD0Ev
FNDA:0,_ZN7libMesh10ParametersD0Ev
FN:362,_ZN7libMesh10ParametersD2Ev
FNDA:0,_ZN7libMesh10ParametersD2Ev
FN:370,_ZNK7libMesh10Parameters5printERSo
FNDA:0,_ZNK7libMesh10Parameters5printERSo
FN:405,_ZNK7libMesh10Parameters14have_parameterI20MaterialPropertyNameEEbRKNSt7__cxx1112basic_stringIcSt11char_traitsIcESaIcEEE
FNDA:0,_ZNK7libMesh10Parameters14have_parameterI20MaterialPropertyNameEEbRKNSt7__cxx1112basic_stringIcSt11char_traitsIcESaIcEEE
FN:405,_ZNK7libMesh10Parameters14have_parameterINSt7__cxx1112basic_stringIcSt11char_traitsIcESaIcEEEEEbRKS7_
FNDA:29683,_ZNK7libMesh10Parameters14have_parameterINSt7__cxx1112basic_stringIcSt11char_traitsIcESaIcEEEEEbRKS7_
FN:424,_ZNK7libMesh10Parameters3getI20MaterialPropertyNameEERKT_RKNSt7__cxx1112basic_stringIcSt11char_traitsIcESaIcEEE
FNDA:0,_ZNK7libMesh10Parameters3getI20MaterialPropertyNameEERKT_RKNSt7__cxx1112basic_stringIcSt11char_traitsIcESaIcEEE
FN:424,_ZNK7libMesh10Parameters3getINSt7__cxx1112basic_stringIcSt11char_traitsIcESaIcEEEEERKT_RKS7_
FNDA:234,_ZNK7libMesh10Parameters3getINSt7__cxx1112basic_stringIcSt11char_traitsIcESaIcEEEEERKT_RKS7_
FN:452,_ZN7libMesh10Parameters6insertINSt7__cxx1112basic_stringIcSt11char_traitsIcESaIcEEEEEvRKS7_
FNDA:29449,_ZN7libMesh10Parameters6insertINSt7__cxx1112basic_stringIcSt11char_traitsIcESaIcEEEEEvRKS7_
FNF:15
FNH:6
DA:132,0
DA:200,245076
DA:207,234
DA:285,16566
DA:287,16566
DA:293,4496
DA:297,4496
DA:301,215823
DA:303,215823
DA:307,215823
DA:309,215823
DA:316,0
DA:318,0
DA:322,0
DA:323,0
DA:327,0
DA:332,0
DA:334,0
DA:335,0
DA:337,0
DA:341,0
DA:343,0
DA:345,0
DA:346,0
DA:347,0
DA:350,0
DA:362,0
DA:364,0
DA:365,0
DA:362,0
DA:364,0
DA:365,0
DA:362,0
DA:364,0
DA:370,0
DA:375,0
DA:376,0
DA:380,0
DA:382,0
DA:383,0
DA:387,0
DA:397,0
DA:405,0
DA:409,0
DA:411,0
DA:415,0
DA:405,29683
DA:409,29683
DA:411,430
DA:415,430
DA:424,0
DA:426,0
DA:428,0
DA:430,0
DA:432,0
DA:439,0
DA:447,0
DA:424,234
DA:426,234
DA:428,0
DA:430,0
DA:432,0
DA:439,0
DA:447,234
DA:452,29449
DA:454,29449
DA:455,58506
DA:457,29449
DA:458,29449
LF:69
LH:22
end_of_record
SF:/usr/share/miniconda/envs/moose/x86_64-conda-linux-gnu/include/c++/9.3.0/bits/stl_pair.h
LF:0
LH:0
end_of_record
SF:/home/runner/work/raccoon/raccoon/src/interfaces/BaseNameInterface.C
FN:8,_ZN17BaseNameInterface11validParamsEv
FNDA:2838,_ZN17BaseNameInterface11validParamsEv
FN:18,_ZN17BaseNameInterfaceC2ERK15InputParameters
FNDA:278,_ZN17BaseNameInterfaceC2ERK15InputParameters
FN:25,_ZNK17BaseNameInterface15prependBaseNameE20MaterialPropertyNameb
FNDA:992,_ZNK17BaseNameInterface15prependBaseNameE20MaterialPropertyNameb
FN:33,_ZNK17BaseNameInterface15prependBaseNameERKSt6vectorI20MaterialPropertyNameSaIS1_EE
FNDA:27,_ZNK17BaseNameInterface15prependBaseNameERKSt6vectorI20MaterialPropertyNameSaIS1_EE
FNF:4
FNH:4
DA:8,2838
DA:10,2838
DA:11,5676
DA:15,2838
DA:18,278
DA:20,278
DA:22,278
DA:25,992
DA:27,992
DA:28,1098
DA:29,886
DA:33,27
DA:36,27
DA:37,0
DA:38,27
LF:15
LH:14
end_of_record
SF:/usr/share/miniconda/envs/moose/x86_64-conda-linux-gnu/include/c++/9.3.0/bits/locale_facets.h
FN:886,_ZNKSt5ctypeIcE5widenEc
FNDA:0,_ZNKSt5ctypeIcE5widenEc
FN:1098,_ZNKSt5ctypeIcE8do_widenEc
FNDA:0,_ZNKSt5ctypeIcE8do_widenEc
FNF:2
FNH:0
DA:886,0
DA:888,0
DA:889,0
DA:890,0
DA:891,0
DA:1098,0
DA:1099,0
LF:7
LH:0
end_of_record
SF:/usr/share/miniconda/envs/moose/x86_64-conda-linux-gnu/include/c++/9.3.0/bits/char_traits.h
DA:300,245076
DA:335,6232
DA:363,0
DA:365,0
LF:4
LH:2
end_of_record
SF:/usr/share/miniconda/envs/moose/libmesh/include/libmesh/threads_pthread.h
DA:149,1181460
DA:150,1181460
DA:527,245076
DA:541,936385
LF:4
LH:4
end_of_record
SF:/usr/share/miniconda/envs/moose/x86_64-conda-linux-gnu/include/c++/9.3.0/bits/stl_vector.h
FN:622,_ZNSt6vectorIdSaIdEEC2ESt16initializer_listIdERKS0_
FNDA:0,_ZNSt6vectorIdSaIdEEC2ESt16initializer_listIdERKS0_
FN:675,_ZNSt6vectorISt5tupleIJNSt7__cxx1112basic_stringIcSt11char_traitsIcESaIcEEEN5Moose23RelationshipManagerTypeESt8functionIFvRK15InputParametersRSA_EEEESaISG_EED2Ev
FNDA:0,_ZNSt6vectorISt5tupleIJNSt7__cxx1112basic_stringIcSt11char_traitsIcESaIcEEEN5Moose23RelationshipManagerTypeESt8functionIFvRK15InputParametersRSA_EEEESaISG_EED2Ev
FN:675,_ZNSt6vectorI20MaterialPropertyNameSaIS0_EED2Ev
FNDA:1032,_ZNSt6vectorI20MaterialPropertyNameSaIS0_EED2Ev
FN:675,_ZNSt6vectorINSt7__cxx1112basic_stringIcSt11char_traitsIcESaIcEEESaIS5_EED2Ev
FNDA:0,_ZNSt6vectorINSt7__cxx1112basic_stringIcSt11char_traitsIcESaIcEEESaIS5_EED2Ev
FN:1184,_ZNSt6vectorI20MaterialPropertyNameSaIS0_EE9push_backERKS0_
FNDA:0,_ZNSt6vectorI20MaterialPropertyNameSaIS0_EE9push_backERKS0_
FN:1753,_ZNKSt6vectorI20MaterialPropertyNameSaIS0_EE12_M_check_lenEmPKc
FNDA:0,_ZNKSt6vectorI20MaterialPropertyNameSaIS0_EE12_M_check_lenEmPKc
FNF:6
FNH:1
DA:94,0
DA:95,27
DA:333,1032
DA:334,0
DA:350,1032
DA:622,0
DA:626,0
DA:628,0
DA:675,0
DA:677,0
DA:680,0
DA:675,1032
DA:677,1032
DA:680,1032
DA:675,0
DA:677,0
DA:680,0
DA:916,0
DA:1184,0
DA:1186,0
DA:1191,0
DA:1195,0
DA:1196,0
DA:1753,0
DA:1755,0
DA:1756,0
DA:1758,0
DA:1759,0
LF:28
LH:6
end_of_record
SF:/usr/share/miniconda/envs/moose/x86_64-conda-linux-gnu/include/c++/9.3.0/bits/stl_construct.h
DA:107,1041
LF:1
LH:1
end_of_record
SF:/usr/share/miniconda/envs/moose/x86_64-conda-linux-gnu/include/c++/9.3.0/bits/basic_string.tcc
FN:206,_ZNSt7__cxx1112basic_stringIcSt11char_traitsIcESaIcEE12_M_constructIPcEEvT_S7_St20forward_iterator_tag
FNDA:0,_ZNSt7__cxx1112basic_stringIcSt11char_traitsIcESaIcEE12_M_constructIPcEEvT_S7_St20forward_iterator_tag
FN:206,_ZNSt7__cxx1112basic_stringIcSt11char_traitsIcESaIcEE12_M_constructIPKcEEvT_S8_St20forward_iterator_tag
FNDA:0,_ZNSt7__cxx1112basic_stringIcSt11char_traitsIcESaIcEE12_M_constructIPKcEEvT_S8_St20forward_iterator_tag
FNF:2
FNH:0
DA:206,0
DA:211,0
DA:212,0
DA:215,0
DA:217,0
DA:219,0
DA:220,0
DA:225,0
DA:232,0
DA:233,0
DA:206,0
DA:211,0
DA:212,0
DA:215,0
DA:217,0
DA:219,0
DA:220,0
DA:225,0
DA:232,0
DA:233,0
LF:20
LH:0
end_of_record
SF:/usr/share/miniconda/envs/moose/x86_64-conda-linux-gnu/include/c++/9.3.0/bits/stl_algobase.h
DA:227,0
DA:228,0
LF:2
LH:0
end_of_record
SF:/usr/share/miniconda/envs/moose/x86_64-conda-linux-gnu/include/c++/9.3.0/bits/stl_map.h
FN:490,_ZNSt3mapINSt7__cxx1112basic_stringIcSt11char_traitsIcESaIcEEEN15InputParameters8MetadataESt4lessIS5_ESaISt4pairIKS5_S7_EEEixERSB_
FNDA:29449,_ZNSt3mapINSt7__cxx1112basic_stringIcSt11char_traitsIcESaIcEEEN15InputParameters8MetadataESt4lessIS5_ESaISt4pairIKS5_S7_EEEixERSB_
FN:490,_ZNSt3mapINSt7__cxx1112basic_stringIcSt11char_traitsIcESaIcEEEPN7libMesh10Parameters5ValueESt4lessIS5_ESaISt4pairIKS5_S9_EEEixERSD_
FNDA:29253,_ZNSt3mapINSt7__cxx1112basic_stringIcSt11char_traitsIcESaIcEEEPN7libMesh10Parameters5ValueESt4lessIS5_ESaISt4pairIKS5_S9_EEEixERSD_
FNF:2
FNH:2
DA:300,0
DA:355,0
DA:364,0
DA:464,0
DA:490,29449
DA:497,29449
DA:499,29253
DA:505,29449
DA:490,29253
DA:497,29253
DA:499,29253
DA:505,29253
DA:1037,0
DA:1169,0
DA:1194,817391
DA:1258,58702
LF:16
LH:10
end_of_record
SF:/usr/share/miniconda/envs/moose/x86_64-conda-linux-gnu/include/c++/9.3.0/ext/aligned_buffer.h
DA:65,0
LF:1
LH:0
end_of_record
SF:/usr/share/miniconda/envs/moose/x86_64-conda-linux-gnu/include/c++/9.3.0/iostream
LF:0
LH:0
end_of_record
SF:/usr/share/miniconda/envs/moose/libmesh/include/libmesh/ostream_proxy.h
DA:116,0
DA:123,0
LF:2
LH:0
end_of_record
SF:/usr/share/miniconda/envs/moose/x86_64-conda-linux-gnu/include/c++/9.3.0/bits/stl_iterator.h
DA:829,0
DA:830,0
DA:992,0
LF:3
LH:0
end_of_record
SF:/usr/share/miniconda/envs/moose/x86_64-conda-linux-gnu/include/c++/9.3.0/bits/stl_set.h
FN:281,_ZNSt3setIsSt4lessIsESaIsEED2Ev
FNDA:0,_ZNSt3setIsSt4lessIsESaIsEED2Ev
FN:281,_ZNSt3setItSt4lessItESaItEED2Ev
FNDA:0,_ZNSt3setItSt4lessItESaItEED2Ev
FNF:2
FNH:0
DA:281,0
DA:281,0
DA:281,0
LF:3
LH:0
end_of_record
SF:/usr/share/miniconda/envs/moose/x86_64-conda-linux-gnu/include/c++/9.3.0/bits/hashtable_policy.h
DA:2149,0
LF:1
LH:0
end_of_record
SF:/usr/share/miniconda/envs/moose/x86_64-conda-linux-gnu/include/c++/9.3.0/bits/stl_iterator_base_funcs.h
DA:104,0
LF:1
LH:0
end_of_record
SF:/usr/share/miniconda/envs/moose/x86_64-conda-linux-gnu/include/c++/9.3.0/bits/unordered_map.h
DA:102,0
LF:1
LH:0
end_of_record
SF:/usr/share/miniconda/envs/moose/x86_64-conda-linux-gnu/include/c++/9.3.0/sstream
DA:678,0
DA:832,0
LF:2
LH:0
end_of_record
SF:/usr/share/miniconda/envs/moose/libmesh/include/timpi/message_tag.h
LF:0
LH:0
end_of_record
SF:/usr/share/miniconda/envs/moose/x86_64-conda-linux-gnu/include/c++/9.3.0/bits/alloc_traits.h
DA:470,9
DA:484,0
DA:497,0
LF:3
LH:1
end_of_record
SF:/usr/share/miniconda/envs/moose/x86_64-conda-linux-gnu/include/c++/9.3.0/bits/basic_string.h
FN:525,_ZNSt7__cxx1112basic_stringIcSt11char_traitsIcESaIcEEC2IS3_EEPKcRKS3_
FNDA:6232,_ZNSt7__cxx1112basic_stringIcSt11char_traitsIcESaIcEEC2IS3_EEPKcRKS3_
FN:6020,_ZStplIcSt11char_traitsIcESaIcEENSt7__cxx1112basic_stringIT_T0_T1_EERKS8_SA_
FNDA:723973,_ZStplIcSt11char_traitsIcESaIcEENSt7__cxx1112basic_stringIT_T0_T1_EERKS8_SA_
FN:6057,_ZStplIcSt11char_traitsIcESaIcEENSt7__cxx1112basic_stringIT_T0_T1_EERKS8_PKS5_
FNDA:0,_ZStplIcSt11char_traitsIcESaIcEENSt7__cxx1112basic_stringIT_T0_T1_EERKS8_PKS5_
FNF:3
FNH:2
DA:156,6232
DA:157,6232
DA:159,245076
DA:160,970041
DA:179,0
DA:183,245076
DA:193,976273
DA:203,9
DA:211,0
DA:217,0
DA:222,6955
DA:231,4117
DA:237,3130
DA:247,6232
DA:348,0
DA:349,0
DA:431,245076
DA:448,0
DA:451,992
DA:525,6232
DA:527,6232
DA:552,0
DA:555,0
DA:563,0
DA:569,0
DA:658,0
DA:1222,723973
DA:1366,245272
DA:2313,4496
DA:6020,723973
DA:6025,723973
DA:6057,0
DA:6061,0
DA:6062,0
DA:6229,291388
DA:6421,4496
LF:36
LH:22
end_of_record
SF:/usr/share/miniconda/envs/moose/x86_64-conda-linux-gnu/include/c++/9.3.0/tuple
FN:1670,_ZNSt4pairIKNSt7__cxx1112basic_stringIcSt11char_traitsIcESaIcEEEN15InputParameters8MetadataEEC2IJRS6_EJLm0EEJEJEEERSt5tupleIJDpT_EERSC_IJDpT1_EESt12_Index_tupleIJXspT0_EEESL_IJXspT2_EEE
FNDA:0,_ZNSt4pairIKNSt7__cxx1112basic_stringIcSt11char_traitsIcESaIcEEEN15InputParameters8MetadataEEC2IJRS6_EJLm0EEJEJEEERSt5tupleIJDpT_EERSC_IJDpT1_EESt12_Index_tupleIJXspT0_EEESL_IJXspT2_EEE
FNF:1
FNH:0
DA:125,58506
DA:126,58506
DA:334,0
DA:523,0
DA:1658,0
DA:1663,0
DA:1670,0
DA:1674,0
DA:1675,0
LF:9
LH:2
end_of_record
SF:/home/runner/work/raccoon/raccoon/build/header_symlinks/BaseNameInterface.h
FN:15,_ZN17BaseNameInterfaceD0Ev
FNDA:0,_ZN17BaseNameInterfaceD0Ev
FN:15,_ZN17BaseNameInterfaceD2Ev
FNDA:0,_ZN17BaseNameInterfaceD2Ev
FNF:2
FNH:0
DA:15,0
DA:15,0
LF:2
LH:0
end_of_record
SF:/home/runner/work/raccoon/raccoon/moose/framework/build/header_symlinks/InputParameters.h
FN:59,_ZN15InputParametersD0Ev
FNDA:0,_ZN15InputParametersD0Ev
FN:59,_ZN15InputParametersD2Ev
FNDA:0,_ZN15InputParametersD2Ev
FN:1264,_ZN15InputParameters8addParamINSt7__cxx1112basic_stringIcSt11char_traitsIcESaIcEEEEEvRKS6_S8_
FNDA:29449,_ZN15InputParameters8addParamINSt7__cxx1112basic_stringIcSt11char_traitsIcESaIcEEEEEvRKS6_S8_
FN:1398,_ZNK15InputParameters19checkConsistentTypeINSt7__cxx1112basic_stringIcSt11char_traitsIcESaIcEEEEEvRKS6_
FNDA:787474,_ZNK15InputParameters19checkConsistentTypeINSt7__cxx1112basic_stringIcSt11char_traitsIcESaIcEEEEEvRKS6_
FNF:4
FNH:2
DA:59,0
DA:59,0
DA:1264,29449
DA:1266,29449
DA:1267,29449
DA:1269,29449
DA:1270,29449
DA:1271,29449
DA:1398,787474
DA:1402,787474
DA:1403,0
DA:1408,0
DA:1410,787474
LF:13
LH:9
end_of_record
SF:/home/runner/work/raccoon/raccoon/moose/framework/build/header_symlinks/MooseError.h
FN:154,_ZN5moose8internal14mooseStreamAllINSt7__cxx1112basic_stringIcSt11char_traitsIcESaIcEEEJRA2_KcEEEvRNS2_19basic_ostringstreamIcS5_S6_EEOT_DpOT0_
FNDA:0,_ZN5moose8internal14mooseStreamAllINSt7__cxx1112basic_stringIcSt11char_traitsIcESaIcEEEJRA2_KcEEEvRNS2_19basic_ostringstreamIcS5_S6_EEOT_DpOT0_
FN:154,_ZN5moose8internal14mooseStreamAllINSt7__cxx1112basic_stringIcSt11char_traitsIcESaIcEEEJRA45_KcS7_RA2_S8_EEEvRNS2_19basic_ostringstreamIcS5_S6_EEOT_DpOT0_
FNDA:0,_ZN5moose8internal14mooseStreamAllINSt7__cxx1112basic_stringIcSt11char_traitsIcESaIcEEEJRA45_KcS7_RA2_S8_EEEvRNS2_19basic_ostringstreamIcS5_S6_EEOT_DpOT0_
FN:154,_ZN5moose8internal14mooseStreamAllIRKNSt7__cxx1112basic_stringIcSt11char_traitsIcESaIcEEEJRA14_KcS7_RA45_SA_S7_RA2_SA_EEEvRNS2_19basic_ostringstreamIcS5_S6_EEOT_DpOT0_
FNDA:0,_ZN5moose8internal14mooseStreamAllIRKNSt7__cxx1112basic_stringIcSt11char_traitsIcESaIcEEEJRA14_KcS7_RA45_SA_S7_RA2_SA_EEEvRNS2_19basic_ostringstreamIcS5_S6_EEOT_DpOT0_
FN:236,_Z10mooseErrorIJRA30_KcRKNSt7__cxx1112basic_stringIcSt11char_traitsIcESaIcEEERA14_S0_S8_RA45_S0_S8_RA2_S0_EEvDpOT_
FNDA:0,_Z10mooseErrorIJRA30_KcRKNSt7__cxx1112basic_stringIcSt11char_traitsIcESaIcEEERA14_S0_S8_RA45_S0_S8_RA2_S0_EEvDpOT_
FNF:4
FNH:0
DA:154,0
DA:156,0
DA:157,0
DA:158,0
DA:154,0
DA:156,0
DA:157,0
DA:158,0
DA:154,0
DA:156,0
DA:157,0
DA:158,0
DA:156,0
DA:157,0
DA:158,0
DA:236,0
DA:238,0
DA:240,0
LF:18
LH:0
end_of_record
SF:/usr/share/miniconda/envs/moose/libmesh/include/libmesh/reference_counted_object.h
DA:75,245076
LF:1
LH:1
end_of_record
SF:/usr/share/miniconda/envs/moose/x86_64-conda-linux-gnu/include/c++/9.3.0/ostream
DA:113,0
DA:518,0
DA:570,0
LF:3
LH:0
end_of_record
TN:
SF:/usr/share/miniconda/envs/moose/libmesh/include/libmesh/tensor_value.h
DA:165,45418500
DA:166,45418500
DA:255,0
LF:3
LH:2
end_of_record
SF:/usr/share/miniconda/envs/moose/libmesh/include/metaphysicl/dynamicsparsenumberbase_decl.h
FN:47,_ZN11MetaPhysicL23DynamicSparseNumberBaseINS_22DynamicStdArrayWrapperIdNS_8NWrapperILm50EEEEENS1_ImS3_EENS_28SemiDynamicSparseNumberArrayEJdmS3_EEaSEOS7_
FNDA:385860000,_ZN11MetaPhysicL23DynamicSparseNumberBaseINS_22DynamicStdArrayWrapperIdNS_8NWrapperILm50EEEEENS1_ImS3_EENS_28SemiDynamicSparseNumberArrayEJdmS3_EEaSEOS7_
FN:70,_ZN11MetaPhysicL23DynamicSparseNumberBaseINS_22DynamicStdArrayWrapperIdNS_8NWrapperILm50EEEEENS1_ImS3_EENS_28SemiDynamicSparseNumberArrayEJdmS3_EEC2EOS7_
FNDA:0,_ZN11MetaPhysicL23DynamicSparseNumberBaseINS_22DynamicStdArrayWrapperIdNS_8NWrapperILm50EEEEENS1_ImS3_EENS_28SemiDynamicSparseNumberArrayEJdmS3_EEC2EOS7_
FNF:2
FNH:1
DA:47,1333850000
DA:70,0
DA:77,12321300
LF:3
LH:2
end_of_record
SF:/usr/share/miniconda/envs/moose/x86_64-conda-linux-gnu/include/c++/9.3.0/bits/stl_uninitialized.h
DA:82,7699270
DA:544,8857700
DA:927,2318810
DA:928,2318810
DA:929,18
LF:5
LH:5
end_of_record
SF:/usr/share/miniconda/envs/moose/x86_64-conda-linux-gnu/include/c++/9.3.0/bits/stl_function.h
DA:1156,0
LF:1
LH:0
end_of_record
SF:/usr/share/miniconda/envs/moose/x86_64-conda-linux-gnu/include/c++/9.3.0/bits/vector.tcc
FN:611,_ZNSt6vectorIN11MetaPhysicL10DualNumberIdNS0_28SemiDynamicSparseNumberArrayIdmNS0_8NWrapperILm50EEEEELb1EEESaIS6_EE17_M_default_appendEm
FNDA:385862,_ZNSt6vectorIN11MetaPhysicL10DualNumberIdNS0_28SemiDynamicSparseNumberArrayIdmNS0_8NWrapperILm50EEEEELb1EEESaIS6_EE17_M_default_appendEm
FN:611,_ZNSt6vectorIdSaIdEE17_M_default_appendEm
FNDA:2472680,_ZNSt6vectorIdSaIdEE17_M_default_appendEm
FNF:2
FNH:2
DA:611,385862
DA:614,385862
DA:616,385862
DA:617,385862
DA:618,385862
DA:620,385862
DA:621,0
DA:623,385862
DA:626,1659
DA:633,384203
DA:635,384203
DA:656,384203
DA:659,384203
DA:671,384203
DA:678,384203
DA:679,384203
DA:680,384203
DA:683,385862
DA:611,2472680
DA:614,2472680
DA:616,2472680
DA:617,2472680
DA:618,2472680
DA:620,2472680
DA:621,0
DA:623,2472680
DA:626,153872
DA:633,2318810
DA:635,2318810
DA:640,2318810
DA:648,2318810
DA:678,2318810
DA:679,2318810
DA:680,2318810
DA:683,2472680
LF:35
LH:33
end_of_record
SF:/home/runner/work/raccoon/raccoon/moose/framework/build/header_symlinks/RankTwoTensor.h
FN:629,_ZNK18RankTwoTensorTemplIdEmlIdEES_IN7libMesh12CompareTypesIdT_E9supertypeEERKNS2_10TypeTensorIS4_EE
FNDA:0,_ZNK18RankTwoTensorTemplIdEmlIdEES_IN7libMesh12CompareTypesIdT_E9supertypeEERKNS2_10TypeTensorIS4_EE
FN:629,_ZNK18RankTwoTensorTemplIN11MetaPhysicL10DualNumberIdNS0_28SemiDynamicSparseNumberArrayIdmNS0_8NWrapperILm50EEEEELb1EEEEmlIS6_EES_IN7libMesh12CompareTypesIS6_T_E9supertypeEERKNS9_10TypeTensorISB_EE
FNDA:0,_ZNK18RankTwoTensorTemplIN11MetaPhysicL10DualNumberIdNS0_28SemiDynamicSparseNumberArrayIdmNS0_8NWrapperILm50EEEEELb1EEEEmlIS6_EES_IN7libMesh12CompareTypesIS6_T_E9supertypeEERKNS9_10TypeTensorISB_EE
FN:708,_ZNK18RankTwoTensorTemplIN11MetaPhysicL10DualNumberIdNS0_28SemiDynamicSparseNumberArrayIdmNS0_8NWrapperILm50EEEEELb1EEEE14givensRotationIS6_EENSt9enable_ifIXsrN10MooseUtils10IsLikeRealIT_EE5valueES7_E4typeEjjj
FNDA:13798600,_ZNK18RankTwoTensorTemplIN11MetaPhysicL10DualNumberIdNS0_28SemiDynamicSparseNumberArrayIdmNS0_8NWrapperILm50EEEEELb1EEEE14givensRotationIS6_EENSt9enable_ifIXsrN10MooseUtils10IsLikeRealIT_EE5valueES7_E4typeEjjj
FN:708,_ZNK18RankTwoTensorTemplIdE14givensRotationIdEENSt9enable_ifIXsrN10MooseUtils10IsLikeRealIT_EE5valueES0_E4typeEjjj
FNDA:0,_ZNK18RankTwoTensorTemplIdE14givensRotationIdEENSt9enable_ifIXsrN10MooseUtils10IsLikeRealIT_EE5valueES0_E4typeEjjj
FNF:4
FNH:1
DA:74,2212070
DA:629,0
DA:632,0
DA:629,0
DA:632,0
DA:708,13798600
DA:711,13798600
DA:712,13798600
DA:714,30285900
DA:716,3994440
DA:719,9804210
DA:721,8735260
DA:722,8735260
DA:723,8735260
DA:724,8735260
DA:725,17470500
DA:729,1068940
DA:730,1068940
DA:731,1068940
DA:732,1068940
DA:733,2137890
DA:736,13798600
DA:737,13798600
DA:738,13798600
DA:739,27597300
DA:740,13798600
DA:742,13798600
DA:708,0
DA:711,0
DA:712,0
DA:714,0
DA:716,0
DA:719,0
DA:721,0
DA:722,0
DA:723,0
DA:724,0
DA:725,0
DA:729,0
DA:730,0
DA:731,0
DA:732,0
DA:733,0
DA:736,0
DA:737,0
DA:738,0
DA:739,0
DA:740,0
DA:742,0
LF:49
LH:23
end_of_record
SF:/usr/share/miniconda/envs/moose/libmesh/include/libmesh/libmesh_exceptions.h
DA:82,0
LF:1
LH:0
end_of_record
SF:/home/runner/work/raccoon/raccoon/moose/framework/build/header_symlinks/Conversion.h
FN:61,_ZN5Moose9stringifyIdEENSt7__cxx1112basic_stringIcSt11char_traitsIcESaIcEEERKT_
FNDA:0,_ZN5Moose9stringifyIdEENSt7__cxx1112basic_stringIcSt11char_traitsIcESaIcEEERKT_
FN:135,_ZN5Moose9stringifyISt6vectorJdSaIdEEEENSt7__cxx1112basic_stringIcSt11char_traitsIcESaIcEEERKT_IJDpT0_EERKS8_SG_b
FNDA:0,_ZN5Moose9stringifyISt6vectorJdSaIdEEEENSt7__cxx1112basic_stringIcSt11char_traitsIcESaIcEEERKT_IJDpT0_EERKS8_SG_b
FNF:2
FNH:0
DA:61,0
DA:63,0
DA:64,0
DA:65,0
DA:135,0
DA:141,0
DA:143,0
DA:144,0
DA:145,0
DA:146,0
DA:147,0
DA:149,0
LF:12
LH:0
end_of_record
SF:/usr/share/miniconda/envs/moose/x86_64-conda-linux-gnu/include/c++/9.3.0/iomanip
DA:240,0
LF:1
LH:0
end_of_record
SF:/usr/share/miniconda/envs/moose/x86_64-conda-linux-gnu/include/c++/9.3.0/streambuf
LF:0
LH:0
end_of_record
SF:/usr/share/miniconda/envs/moose/x86_64-conda-linux-gnu/include/c++/9.3.0/ext/new_allocator.h
DA:114,0
DA:128,4040800
LF:2
LH:1
end_of_record
SF:/home/runner/work/raccoon/raccoon/moose/framework/build/header_symlinks/MooseTypes.h
LF:0
LH:0
end_of_record
SF:/usr/share/miniconda/envs/moose/x86_64-conda-linux-gnu/include/c++/9.3.0/bits/stl_tree.h
FN:609,_ZNSt8_Rb_treeINSt7__cxx1112basic_stringIcSt11char_traitsIcESaIcEEESt4pairIKS5_PN7libMesh10Parameters5ValueEESt10_Select1stISC_ESt4lessIS5_ESaISC_EE17_M_construct_nodeIJRKSt21piecewise_construct_tSt5tupleIJRS7_EESN_IJEEEEEvPSt13_Rb_tree_nodeISC_EDpOT_
FNDA:0,_ZNSt8_Rb_treeINSt7__cxx1112basic_stringIcSt11char_traitsIcESaIcEEESt4pairIKS5_PN7libMesh10Parameters5ValueEESt10_Select1stISC_ESt4lessIS5_ESaISC_EE17_M_construct_nodeIJRKSt21piecewise_construct_tSt5tupleIJRS7_EESN_IJEEEEEvPSt13_Rb_tree_nodeISC_EDpOT_
FN:1281,_ZNSt8_Rb_treeINSt7__cxx1112basic_stringIcSt11char_traitsIcESaIcEEESt4pairIKS5_PN7libMesh10Parameters5ValueEESt10_Select1stISC_ESt4lessIS5_ESaISC_EE11lower_boundERS7_
FNDA:0,_ZNSt8_Rb_treeINSt7__cxx1112basic_stringIcSt11char_traitsIcESaIcEEESt4pairIKS5_PN7libMesh10Parameters5ValueEESt10_Select1stISC_ESt4lessIS5_ESaISC_EE11lower_boundERS7_
FN:1907,_ZNSt8_Rb_treeIssSt9_IdentityIsESt4lessIsESaIsEE8_M_eraseEPSt13_Rb_tree_nodeIsE
FNDA:0,_ZNSt8_Rb_treeIssSt9_IdentityIsESt4lessIsESaIsEE8_M_eraseEPSt13_Rb_tree_nodeIsE
FN:1907,_ZNSt8_Rb_treeIttSt9_IdentityItESt4lessItESaItEE8_M_eraseEPSt13_Rb_tree_nodeItE
FNDA:0,_ZNSt8_Rb_treeIttSt9_IdentityItESt4lessItESaItEE8_M_eraseEPSt13_Rb_tree_nodeItE
FN:1907,_ZNSt8_Rb_treeINSt7__cxx1112basic_stringIcSt11char_traitsIcESaIcEEESt4pairIKS5_PN7libMesh10Parameters5ValueEESt10_Select1stISC_ESt4lessIS5_ESaISC_EE8_M_eraseEPSt13_Rb_tree_nodeISC_E
FNDA:0,_ZNSt8_Rb_treeINSt7__cxx1112basic_stringIcSt11char_traitsIcESaIcEEESt4pairIKS5_PN7libMesh10Parameters5ValueEESt10_Select1stISC_ESt4lessIS5_ESaISC_EE8_M_eraseEPSt13_Rb_tree_nodeISC_E
FN:2085,_ZNSt8_Rb_treeINSt7__cxx1112basic_stringIcSt11char_traitsIcESaIcEEESt4pairIKS5_PN7libMesh10Parameters5ValueEESt10_Select1stISC_ESt4lessIS5_ESaISC_EE24_M_get_insert_unique_posERS7_
FNDA:0,_ZNSt8_Rb_treeINSt7__cxx1112basic_stringIcSt11char_traitsIcESaIcEEESt4pairIKS5_PN7libMesh10Parameters5ValueEESt10_Select1stISC_ESt4lessIS5_ESaISC_EE24_M_get_insert_unique_posERS7_
FN:2187,_ZNSt8_Rb_treeINSt7__cxx1112basic_stringIcSt11char_traitsIcESaIcEEESt4pairIKS5_PN7libMesh10Parameters5ValueEESt10_Select1stISC_ESt4lessIS5_ESaISC_EE29_M_get_insert_hint_unique_posESt23_Rb_tree_const_iteratorISC_ERS7_
FNDA:0,_ZNSt8_Rb_treeINSt7__cxx1112basic_stringIcSt11char_traitsIcESaIcEEESt4pairIKS5_PN7libMesh10Parameters5ValueEESt10_Select1stISC_ESt4lessIS5_ESaISC_EE29_M_get_insert_hint_unique_posESt23_Rb_tree_const_iteratorISC_ERS7_
FN:2354,_ZNSt8_Rb_treeINSt7__cxx1112basic_stringIcSt11char_traitsIcESaIcEEESt4pairIKS5_PN7libMesh10Parameters5ValueEESt10_Select1stISC_ESt4lessIS5_ESaISC_EE14_M_insert_nodeEPSt18_Rb_tree_node_baseSK_PSt13_Rb_tree_nodeISC_E
FNDA:0,_ZNSt8_Rb_treeINSt7__cxx1112basic_stringIcSt11char_traitsIcESaIcEEESt4pairIKS5_PN7libMesh10Parameters5ValueEESt10_Select1stISC_ESt4lessIS5_ESaISC_EE14_M_insert_nodeEPSt18_Rb_tree_node_baseSK_PSt13_Rb_tree_nodeISC_E
FN:2452,_ZNSt8_Rb_treeINSt7__cxx1112basic_stringIcSt11char_traitsIcESaIcEEESt4pairIKS5_PN7libMesh10Parameters5ValueEESt10_Select1stISC_ESt4lessIS5_ESaISC_EE22_M_emplace_hint_uniqueIJRKSt21piecewise_construct_tSt5tupleIJRS7_EESN_IJEEEEESt17_Rb_tree_iteratorISC_ESt23_Rb_tree_const_iteratorISC_EDpOT_
FNDA:0,_ZNSt8_Rb_treeINSt7__cxx1112basic_stringIcSt11char_traitsIcESaIcEEESt4pairIKS5_PN7libMesh10Parameters5ValueEESt10_Select1stISC_ESt4lessIS5_ESaISC_EE22_M_emplace_hint_uniqueIJRKSt21piecewise_construct_tSt5tupleIJRS7_EESN_IJEEEEESt17_Rb_tree_iteratorISC_ESt23_Rb_tree_const_iteratorISC_EDpOT_
FN:2504,_ZNSt8_Rb_treeINSt7__cxx1112basic_stringIcSt11char_traitsIcESaIcEEESt4pairIKS5_PN7libMesh10Parameters5ValueEESt10_Select1stISC_ESt4lessIS5_ESaISC_EE12_M_erase_auxESt23_Rb_tree_const_iteratorISC_E
FNDA:0,_ZNSt8_Rb_treeINSt7__cxx1112basic_stringIcSt11char_traitsIcESaIcEEESt4pairIKS5_PN7libMesh10Parameters5ValueEESt10_Select1stISC_ESt4lessIS5_ESaISC_EE12_M_erase_auxESt23_Rb_tree_const_iteratorISC_E
FN:2554,_ZNSt8_Rb_treeINSt7__cxx1112basic_stringIcSt11char_traitsIcESaIcEEESt4pairIKS5_PN7libMesh10Parameters5ValueEESt10_Select1stISC_ESt4lessIS5_ESaISC_EE4findERS7_
FNDA:0,_ZNSt8_Rb_treeINSt7__cxx1112basic_stringIcSt11char_traitsIcESaIcEEESt4pairIKS5_PN7libMesh10Parameters5ValueEESt10_Select1stISC_ESt4lessIS5_ESaISC_EE4findERS7_
FNF:11
FNH:0
DA:287,0
DA:302,0
DA:303,0
DA:348,0
DA:349,0
DA:366,0
DA:367,0
DA:609,0
DA:618,0
DA:620,0
DA:622,0
DA:624,0
DA:631,0
DA:756,0
DA:995,0
DA:1015,0
DA:1019,0
DA:1220,0
DA:1281,0
DA:1282,0
DA:1907,0
DA:1911,0
DA:1913,0
DA:1914,0
DA:1918,0
DA:1907,0
DA:1911,0
DA:1913,0
DA:1914,0
DA:1918,0
DA:1907,0
DA:1911,0
DA:1913,0
DA:1914,0
DA:1915,0
DA:1918,0
DA:1928,0
DA:1929,0
DA:1930,0
DA:1932,0
DA:2085,0
DA:2089,0
DA:2092,0
DA:2096,0
DA:2099,0
DA:2101,0
DA:2102,0
DA:2106,0
DA:2107,0
DA:2108,0
DA:2187,0
DA:2191,0
DA:2195,0
DA:2197,0
DA:2198,0
DA:2199,0
DA:2201,0
DA:2203,0
DA:2207,0
DA:2208,0
DA:2209,0
DA:2211,0
DA:2212,0
DA:2214,0
DA:2217,0
DA:2219,0
DA:2223,0
DA:2224,0
DA:2225,0
DA:2227,0
DA:2228,0
DA:2230,0
DA:2233,0
DA:2237,0
DA:2354,0
DA:2357,0
DA:2358,0
DA:2361,0
DA:2362,0
DA:2363,0
DA:2364,0
DA:2452,0
DA:2459,0
DA:2461,0
DA:2462,0
DA:2464,0
DA:2465,0
DA:2504,0
DA:2509,0
DA:2510,0
DA:2511,0
DA:2512,0
DA:2513,0
DA:2554,0
DA:2557,0
DA:2559,0
DA:2560,0
LF:97
LH:0
end_of_record
SF:/usr/share/miniconda/envs/moose/libmesh/include/libmesh/parameters.h
FN:132,_ZN7libMesh10Parameters14set_attributesERKNSt7__cxx1112basic_stringIcSt11char_traitsIcESaIcEEEb
FNDA:0,_ZN7libMesh10Parameters14set_attributesERKNSt7__cxx1112basic_stringIcSt11char_traitsIcESaIcEEEb
FN:316,_ZN7libMesh10Parameters5clearEv
FNDA:0,_ZN7libMesh10Parameters5clearEv
FN:332,_ZN7libMesh10ParametersaSERKS0_
FNDA:0,_ZN7libMesh10ParametersaSERKS0_
FN:341,_ZN7libMesh10ParameterspLERKS0_
FNDA:0,_ZN7libMesh10ParameterspLERKS0_
FN:362,_ZN7libMesh10ParametersD0Ev
FNDA:0,_ZN7libMesh10ParametersD0Ev
FN:362,_ZN7libMesh10ParametersD2Ev
FNDA:0,_ZN7libMesh10ParametersD2Ev
FNF:6
FNH:0
DA:132,0
DA:316,0
DA:318,0
DA:322,0
DA:323,0
DA:327,0
DA:332,0
DA:334,0
DA:335,0
DA:337,0
DA:341,0
DA:343,0
DA:345,0
DA:346,0
DA:347,0
DA:350,0
DA:362,0
DA:364,0
DA:365,0
DA:362,0
DA:364,0
DA:365,0
LF:22
LH:0
end_of_record
SF:/usr/share/miniconda/envs/moose/libmesh/include/metaphysicl/dualnumber_decl.h
DA:56,11435200
DA:173,0
DA:327,40011100
LF:3
LH:2
end_of_record
SF:/home/runner/work/raccoon/raccoon/moose/framework/build/header_symlinks/RankTwoTensorImplementation.h
FN:53,_ZN18RankTwoTensorTemplIN11MetaPhysicL10DualNumberIdNS0_28SemiDynamicSparseNumberArrayIdmNS0_8NWrapperILm50EEEEELb1EEEEC2Ev
FNDA:15497100,_ZN18RankTwoTensorTemplIN11MetaPhysicL10DualNumberIdNS0_28SemiDynamicSparseNumberArrayIdmNS0_8NWrapperILm50EEEEELb1EEEEC2Ev
FN:62,_ZN18RankTwoTensorTemplIN11MetaPhysicL10DualNumberIdNS0_28SemiDynamicSparseNumberArrayIdmNS0_8NWrapperILm50EEEEELb1EEEEC2ENS7_10InitMethodE
FNDA:29921400,_ZN18RankTwoTensorTemplIN11MetaPhysicL10DualNumberIdNS0_28SemiDynamicSparseNumberArrayIdmNS0_8NWrapperILm50EEEEELb1EEEEC2ENS7_10InitMethodE
FN:62,_ZN18RankTwoTensorTemplIdEC2ENS0_10InitMethodE
FNDA:0,_ZN18RankTwoTensorTemplIdEC2ENS0_10InitMethodE
FN:146,_ZN18RankTwoTensorTemplIN11MetaPhysicL10DualNumberIdNS0_28SemiDynamicSparseNumberArrayIdmNS0_8NWrapperILm50EEEEELb1EEEE19fillFromInputVectorERKSt6vectorIS6_SaIS6_EENS7_10FillMethodE
FNDA:2612070,_ZN18RankTwoTensorTemplIN11MetaPhysicL10DualNumberIdNS0_28SemiDynamicSparseNumberArrayIdmNS0_8NWrapperILm50EEEEELb1EEEE19fillFromInputVectorERKSt6vectorIS6_SaIS6_EENS7_10FillMethodE
FN:301,_ZNK18RankTwoTensorTemplIN11MetaPhysicL10DualNumberIdNS0_28SemiDynamicSparseNumberArrayIdmNS0_8NWrapperILm50EEEEELb1EEEE9transposeEv
FNDA:44971800,_ZNK18RankTwoTensorTemplIN11MetaPhysicL10DualNumberIdNS0_28SemiDynamicSparseNumberArrayIdmNS0_8NWrapperILm50EEEEELb1EEEE9transposeEv
FN:620,_ZNK18RankTwoTensorTemplIdE7inverseEv
FNDA:0,_ZNK18RankTwoTensorTemplIdE7inverseEv
FN:784,_ZNK18RankTwoTensorTemplIdE5printERSo
FNDA:0,_ZNK18RankTwoTensorTemplIdE5printERSo
FN:797,_ZNK18RankTwoTensorTemplIdE9printRealERSo
FNDA:0,_ZNK18RankTwoTensorTemplIdE9printRealERSo
FN:804,_ZNK18RankTwoTensorTemplIN11MetaPhysicL10DualNumberIdNS0_28SemiDynamicSparseNumberArrayIdmNS0_8NWrapperILm50EEEEELb1EEEE9printRealERSo
FNDA:0,_ZNK18RankTwoTensorTemplIN11MetaPhysicL10DualNumberIdNS0_28SemiDynamicSparseNumberArrayIdmNS0_8NWrapperILm50EEEEELb1EEEE9printRealERSo
FN:817,_ZNK18RankTwoTensorTemplIN11MetaPhysicL10DualNumberIdNS0_28SemiDynamicSparseNumberArrayIdmNS0_8NWrapperILm50EEEEELb1EEEE13printDualRealEjRSo
FNDA:0,_ZNK18RankTwoTensorTemplIN11MetaPhysicL10DualNumberIdNS0_28SemiDynamicSparseNumberArrayIdmNS0_8NWrapperILm50EEEEELb1EEEE13printDualRealEjRSo
FN:835,_ZN18RankTwoTensorTemplIN11MetaPhysicL10DualNumberIdNS0_28SemiDynamicSparseNumberArrayIdmNS0_8NWrapperILm50EEEEELb1EEEE5addIaERKS6_
FNDA:30315800,_ZN18RankTwoTensorTemplIN11MetaPhysicL10DualNumberIdNS0_28SemiDynamicSparseNumberArrayIdmNS0_8NWrapperILm50EEEEELb1EEEE5addIaERKS6_
FN:881,_ZNK18RankTwoTensorTemplIdE4syevEPKcRSt6vectorIdSaIdEES6_
FNDA:0,_ZNK18RankTwoTensorTemplIdE4syevEPKcRSt6vectorIdSaIdEES6_
FN:922,_ZNK18RankTwoTensorTemplIdE20symmetricEigenvaluesERSt6vectorIdSaIdEE
FNDA:0,_ZNK18RankTwoTensorTemplIdE20symmetricEigenvaluesERSt6vectorIdSaIdEE
FN:939,_ZNK18RankTwoTensorTemplIdE32symmetricEigenvaluesEigenvectorsERSt6vectorIdSaIdEERS0_
FNDA:0,_ZNK18RankTwoTensorTemplIdE32symmetricEigenvaluesEigenvectorsERSt6vectorIdSaIdEERS0_
FN:952,_ZNK18RankTwoTensorTemplIN11MetaPhysicL10DualNumberIdNS0_28SemiDynamicSparseNumberArrayIdmNS0_8NWrapperILm50EEEEELb1EEEE32symmetricEigenvaluesEigenvectorsERSt6vectorIS6_SaIS6_EERS7_
FNDA:2212070,_ZNK18RankTwoTensorTemplIN11MetaPhysicL10DualNumberIdNS0_28SemiDynamicSparseNumberArrayIdmNS0_8NWrapperILm50EEEEELb1EEEE32symmetricEigenvaluesEigenvectorsERSt6vectorIS6_SaIS6_EERS7_
FN:1018,_ZNK18RankTwoTensorTemplIN11MetaPhysicL10DualNumberIdNS0_28SemiDynamicSparseNumberArrayIdmNS0_8NWrapperILm50EEEEELb1EEEE10hessenbergERS7_S8_
FNDA:2212070,_ZNK18RankTwoTensorTemplIN11MetaPhysicL10DualNumberIdNS0_28SemiDynamicSparseNumberArrayIdmNS0_8NWrapperILm50EEEEELb1EEEE10hessenbergERS7_S8_
FN:1034,_ZNK18RankTwoTensorTemplIN11MetaPhysicL10DualNumberIdNS0_28SemiDynamicSparseNumberArrayIdmNS0_8NWrapperILm50EEEEELb1EEEE2QRERS7_S8_j
FNDA:7162440,_ZNK18RankTwoTensorTemplIN11MetaPhysicL10DualNumberIdNS0_28SemiDynamicSparseNumberArrayIdmNS0_8NWrapperILm50EEEEELb1EEEE2QRERS7_S8_j
FN:1069,_ZNK18RankTwoTensorTemplIdE2QRERS0_S1_j
FNDA:0,_ZNK18RankTwoTensorTemplIdE2QRERS0_S1_j
FN:1170,_ZNK18RankTwoTensorTemplIdE26getRUDecompositionRotationERS0_
FNDA:0,_ZNK18RankTwoTensorTemplIdE26getRUDecompositionRotationERS0_
FNF:19
FNH:8
DA:53,15497100
DA:57,154971000
DA:58,139474000
DA:59,15497100
DA:62,0
DA:64,0
DA:71,0
DA:72,0
DA:75,0
DA:76,0
DA:78,0
DA:62,29921400
DA:64,29921400
DA:71,119686000
DA:72,89764300
DA:75,0
DA:76,0
DA:78,29921400
DA:146,2612070
DA:148,2612070
DA:149,0
DA:151,2612070
DA:155,0
DA:156,0
DA:157,0
DA:158,0
DA:162,2612070
DA:163,2612070
DA:164,2612070
DA:165,2612070
DA:167,0
DA:168,0
DA:169,0
DA:170,0
DA:171,0
DA:172,0
DA:173,0
DA:174,0
DA:176,0
DA:177,0
DA:178,0
DA:179,0
DA:180,0
DA:181,0
DA:182,0
DA:183,0
DA:184,0
DA:185,0
DA:186,0
DA:188,0
DA:189,0
DA:192,2612070
DA:301,44971800
DA:303,44971800
DA:310,0
DA:620,0
DA:622,0
DA:784,0
DA:787,0
DA:789,0
DA:790,0
DA:793,0
DA:797,0
DA:799,0
DA:800,0
DA:804,0
DA:807,0
DA:809,0
DA:810,0
DA:813,0
DA:817,0
DA:820,0
DA:822,0
DA:824,0
DA:825,0
DA:826,0
DA:827,0
DA:831,0
DA:835,30315800
DA:837,121263000
DA:838,0
DA:839,30315800
DA:881,0
DA:885,0
DA:886,0
DA:889,0
DA:890,0
DA:892,0
DA:894,0
DA:895,0
DA:898,0
DA:903,0
DA:905,0
DA:906,0
DA:907,0
DA:910,0
DA:922,0
DA:925,0
DA:926,0
DA:939,0
DA:943,0
DA:945,0
DA:946,0
DA:947,0
DA:948,0
DA:952,2212070
DA:957,2212070
DA:958,2212070
DA:959,2212070
DA:962,6636200
DA:966,7162440
DA:967,7162440
DA:968,7162440
DA:969,7162440
DA:970,7162440
DA:971,7162440
DA:972,7162440
DA:974,8848270
DA:975,6636200
DA:978,6636200
DA:981,4424140
DA:982,11060300
DA:983,6636200
DA:986,1121680
DA:988,4424140
DA:990,1116600
DA:991,1116600
DA:992,4466400
DA:994,3349800
DA:995,3349800
DA:996,3349800
DA:1000,2212070
DA:1008,0
DA:1010,0
DA:1011,0
DA:1018,2212070
DA:1025,2212070
DA:1027,2212070
DA:1028,2212070
DA:1029,2212070
DA:1034,7162440
DA:1040,7162440
DA:1042,16536900
DA:1043,20961100
DA:1045,11586600
DA:1050,11586600
DA:1051,14778100
DA:1052,11587400
DA:1054,3190720
DA:1055,3190720
DA:1056,0
DA:1059,11586600
DA:1060,11586600
DA:1061,11586600
DA:1062,11586600
DA:1063,23173100
DA:1065,7162440
DA:1069,0
DA:1075,0
DA:1076,0
DA:1078,0
DA:1079,0
DA:1080,0
DA:1081,0
DA:1083,0
DA:1170,0
DA:1178,0
DA:1180,0
DA:1182,0
DA:1183,0
DA:1184,0
DA:1186,0
DA:1188,0
DA:1189,0
DA:1195,0
DA:1196,0
DA:1198,0
DA:1199,0
DA:1200,0
DA:1202,0
DA:1203,0
LF:181
LH:70
end_of_record
SF:/usr/share/miniconda/envs/moose/x86_64-conda-linux-gnu/include/c++/9.3.0/bits/locale_facets.h
FN:886,_ZNKSt5ctypeIcE5widenEc
FNDA:0,_ZNKSt5ctypeIcE5widenEc
FN:1098,_ZNKSt5ctypeIcE8do_widenEc
FNDA:0,_ZNKSt5ctypeIcE8do_widenEc
FNF:2
FNH:0
DA:886,0
DA:888,0
DA:889,0
DA:890,0
DA:891,0
DA:1098,0
DA:1099,0
LF:7
LH:0
end_of_record
SF:/usr/share/miniconda/envs/moose/libmesh/include/metaphysicl/dynamicsparsenumberbase.h
FN:136,_ZNK11MetaPhysicL23DynamicSparseNumberBaseINS_22DynamicStdArrayWrapperIdNS_8NWrapperILm50EEEEENS1_ImS3_EENS_28SemiDynamicSparseNumberArrayEJdmS3_EE19runtime_index_queryEm
FNDA:0,_ZNK11MetaPhysicL23DynamicSparseNumberBaseINS_22DynamicStdArrayWrapperIdNS_8NWrapperILm50EEEEENS1_ImS3_EENS_28SemiDynamicSparseNumberArrayEJdmS3_EE19runtime_index_queryEm
FN:280,_ZN11MetaPhysicL23DynamicSparseNumberBaseINS_22DynamicStdArrayWrapperIdNS_8NWrapperILm50EEEEENS1_ImS3_EENS_28SemiDynamicSparseNumberArrayEJdmS3_EE14sparsity_unionIS5_EEvRKT_
FNDA:53505800,_ZN11MetaPhysicL23DynamicSparseNumberBaseINS_22DynamicStdArrayWrapperIdNS_8NWrapperILm50EEEEENS1_ImS3_EENS_28SemiDynamicSparseNumberArrayEJdmS3_EE14sparsity_unionIS5_EEvRKT_
FN:550,_ZN11MetaPhysicL23DynamicSparseNumberBaseINS_22DynamicStdArrayWrapperIdNS_8NWrapperILm50EEEEENS1_ImS3_EENS_28SemiDynamicSparseNumberArrayEJdmS3_EEpLIJdmS3_EEERNS6_IdmS3_EERKNS6_IDpT_EE
FNDA:53505800,_ZN11MetaPhysicL23DynamicSparseNumberBaseINS_22DynamicStdArrayWrapperIdNS_8NWrapperILm50EEEEENS1_ImS3_EENS_28SemiDynamicSparseNumberArrayEJdmS3_EEpLIJdmS3_EEERNS6_IdmS3_EERKNS6_IDpT_EE
FN:585,_ZN11MetaPhysicL23DynamicSparseNumberBaseINS_22DynamicStdArrayWrapperIdNS_8NWrapperILm50EEEEENS1_ImS3_EENS_28SemiDynamicSparseNumberArrayEJdmS3_EEmIIJdmS3_EEERNS6_IdmS3_EERKNS6_IDpT_EE
FNDA:0,_ZN11MetaPhysicL23DynamicSparseNumberBaseINS_22DynamicStdArrayWrapperIdNS_8NWrapperILm50EEEEENS1_ImS3_EENS_28SemiDynamicSparseNumberArrayEJdmS3_EEmIIJdmS3_EEERNS6_IdmS3_EERKNS6_IDpT_EE
FNF:4
FNH:2
DA:41,47695000
DA:53,1016150000
DA:95,0
DA:125,53505800
DA:136,0
DA:140,0
DA:142,0
DA:144,0
DA:185,0
DA:186,0
DA:188,0
DA:266,36048300
DA:268,15087200
DA:269,15087200
DA:280,53505800
DA:302,66288400
DA:303,12782600
DA:304,12782600
DA:306,12782600
DA:307,0
DA:308,0
DA:311,70800300
DA:312,70800300
DA:313,58017600
DA:314,58017600
DA:315,58017600
DA:316,58017600
DA:319,20768800
DA:320,9154590
DA:321,9154590
DA:322,9154590
DA:324,7986180
DA:329,53505800
DA:334,1752620
DA:355,15484500
DA:356,13731900
DA:357,9027980
DA:358,9027980
DA:359,9154590
DA:360,9154590
DA:363,4577300
DA:364,4577300
DA:368,4577300
DA:369,4577300
DA:550,53505800
DA:553,53505800
DA:561,120678000
DA:563,67172200
DA:564,67172200
DA:566,125555000
DA:567,58382700
DA:568,58382700
DA:570,58382700
DA:574,67172200
DA:577,53505800
DA:585,0
DA:588,0
DA:596,0
DA:598,0
DA:599,0
DA:601,0
DA:602,0
DA:603,0
DA:605,0
DA:609,0
DA:612,0
DA:690,66844500
DA:691,40110600
DA:702,0
DA:703,0
DA:949,0
DA:955,0
DA:956,0
DA:957,0
DA:971,0
DA:977,0
DA:978,0
DA:979,0
DA:992,0
DA:997,0
DA:998,0
DA:999,0
LF:82
LH:47
end_of_record
SF:/usr/share/miniconda/envs/moose/x86_64-conda-linux-gnu/include/c++/9.3.0/bits/char_traits.h
DA:300,0
DA:335,0
DA:363,0
DA:365,0
LF:4
LH:0
end_of_record
SF:/usr/share/miniconda/envs/moose/x86_64-conda-linux-gnu/include/c++/9.3.0/bits/basic_string.tcc
FN:206,_ZNSt7__cxx1112basic_stringIcSt11char_traitsIcESaIcEE12_M_constructIPcEEvT_S7_St20forward_iterator_tag
FNDA:0,_ZNSt7__cxx1112basic_stringIcSt11char_traitsIcESaIcEE12_M_constructIPcEEvT_S7_St20forward_iterator_tag
FN:206,_ZNSt7__cxx1112basic_stringIcSt11char_traitsIcESaIcEE12_M_constructIPKcEEvT_S8_St20forward_iterator_tag
FNDA:0,_ZNSt7__cxx1112basic_stringIcSt11char_traitsIcESaIcEE12_M_constructIPKcEEvT_S8_St20forward_iterator_tag
FNF:2
FNH:0
DA:206,0
DA:211,0
DA:212,0
DA:215,0
DA:217,0
DA:219,0
DA:220,0
DA:225,0
DA:232,0
DA:233,0
DA:206,0
DA:211,0
DA:212,0
DA:215,0
DA:217,0
DA:219,0
DA:220,0
DA:225,0
DA:232,0
DA:233,0
LF:20
LH:0
end_of_record
SF:/usr/share/miniconda/envs/moose/x86_64-conda-linux-gnu/include/c++/9.3.0/bits/stl_construct.h
DA:75,5486410
LF:1
LH:1
end_of_record
SF:/usr/share/miniconda/envs/moose/libmesh/include/metaphysicl/semidynamicsparsenumberarray_decl.h
DA:34,1045170000
DA:56,0
LF:2
LH:1
end_of_record
SF:/usr/share/miniconda/envs/moose/x86_64-conda-linux-gnu/include/c++/9.3.0/bits/stl_vector.h
FN:507,_ZNSt6vectorIN11MetaPhysicL10DualNumberIdNS0_28SemiDynamicSparseNumberArrayIdmNS0_8NWrapperILm50EEEEELb1EEESaIS6_EEC2EmRKS7_
FNDA:1828660,_ZNSt6vectorIN11MetaPhysicL10DualNumberIdNS0_28SemiDynamicSparseNumberArrayIdmNS0_8NWrapperILm50EEEEELb1EEESaIS6_EEC2EmRKS7_
FN:507,_ZNSt6vectorIdSaIdEEC2EmRKS0_
FNDA:0,_ZNSt6vectorIdSaIdEEC2EmRKS0_
FN:550,_ZNSt6vectorIN11MetaPhysicL10DualNumberIdNS0_28SemiDynamicSparseNumberArrayIdmNS0_8NWrapperILm50EEEEELb1EEESaIS6_EEC2ERKS8_
FNDA:1828660,_ZNSt6vectorIN11MetaPhysicL10DualNumberIdNS0_28SemiDynamicSparseNumberArrayIdmNS0_8NWrapperILm50EEEEELb1EEESaIS6_EEC2ERKS8_
FN:934,_ZNSt6vectorIN11MetaPhysicL10DualNumberIdNS0_28SemiDynamicSparseNumberArrayIdmNS0_8NWrapperILm50EEEEELb1EEESaIS6_EE6resizeEm
FNDA:2212070,_ZNSt6vectorIN11MetaPhysicL10DualNumberIdNS0_28SemiDynamicSparseNumberArrayIdmNS0_8NWrapperILm50EEEEELb1EEESaIS6_EE6resizeEm
FN:934,_ZNSt6vectorIdSaIdEE6resizeEm
FNDA:0,_ZNSt6vectorIdSaIdEE6resizeEm
FN:1753,_ZNKSt6vectorIN11MetaPhysicL10DualNumberIdNS0_28SemiDynamicSparseNumberArrayIdmNS0_8NWrapperILm50EEEEELb1EEESaIS6_EE12_M_check_lenEmPKc
FNDA:384203,_ZNKSt6vectorIN11MetaPhysicL10DualNumberIdNS0_28SemiDynamicSparseNumberArrayIdmNS0_8NWrapperILm50EEEEELb1EEESaIS6_EE12_M_check_lenEmPKc
FN:1753,_ZNKSt6vectorIdSaIdEE12_M_check_lenEmPKc
FNDA:2318810,_ZNKSt6vectorIdSaIdEE12_M_check_lenEmPKc
FNF:7
FNH:5
DA:94,4040730
DA:95,383408
DA:350,2703010
DA:358,1828660
DA:359,1828660
DA:360,1828660
DA:507,1828660
DA:509,1828660
DA:507,0
DA:509,0
DA:550,1828660
DA:552,1828660
DA:554,1828660
DA:555,1828660
DA:558,1828660
DA:677,4040730
DA:916,7299270
DA:934,2212070
DA:936,2212070
DA:937,383408
DA:938,1828660
DA:939,0
DA:940,2212070
DA:934,0
DA:936,0
DA:937,0
DA:938,0
DA:939,0
DA:940,0
DA:1043,18813100
DA:1061,2612070
DA:1602,1828660
DA:1753,384203
DA:1755,384203
DA:1756,0
DA:1758,384203
DA:1759,384203
DA:1753,2318810
DA:1755,2318810
DA:1756,0
DA:1758,2318810
DA:1759,2318810
DA:1766,1828660
DA:1767,0
DA:1791,0
DA:1795,0
LF:46
LH:32
end_of_record
SF:/usr/share/miniconda/envs/moose/libmesh/include/metaphysicl/dynamic_std_array_wrapper.h
FN:54,_ZN11MetaPhysicL22DynamicStdArrayWrapperImNS_8NWrapperILm50EEEEC2ERKS3_
FNDA:12321300,_ZN11MetaPhysicL22DynamicStdArrayWrapperImNS_8NWrapperILm50EEEEC2ERKS3_
FN:54,_ZN11MetaPhysicL22DynamicStdArrayWrapperIdNS_8NWrapperILm50EEEEC2ERKS3_
FNDA:12321300,_ZN11MetaPhysicL22DynamicStdArrayWrapperIdNS_8NWrapperILm50EEEEC2ERKS3_
FN:71,_ZN11MetaPhysicL22DynamicStdArrayWrapperImNS_8NWrapperILm50EEEEaSERKS3_
FNDA:947986000,_ZN11MetaPhysicL22DynamicStdArrayWrapperImNS_8NWrapperILm50EEEEaSERKS3_
FN:71,_ZN11MetaPhysicL22DynamicStdArrayWrapperIdNS_8NWrapperILm50EEEEaSERKS3_
FNDA:947986000,_ZN11MetaPhysicL22DynamicStdArrayWrapperIdNS_8NWrapperILm50EEEEaSERKS3_
FNF:4
FNH:4
DA:54,12321300
DA:56,12321300
DA:59,12321300
DA:54,12321300
DA:56,12321300
DA:59,12321300
DA:62,0
DA:64,0
DA:67,0
DA:68,0
DA:71,947986000
DA:73,947986000
DA:76,947986000
DA:71,947986000
DA:73,947986000
DA:76,947986000
DA:82,771719000
DA:85,802371000
DA:86,30651800
DA:90,1025950000
DA:99,784502000
DA:105,2107580000
DA:125,20961100
DA:131,1752620
DA:137,1752620
DA:142,1752620
LF:26
LH:22
end_of_record
SF:/home/runner/work/raccoon/raccoon/src/utils/RaccoonUtils.C
FN:14,_ZN12RaccoonUtils8MacaulayEN11MetaPhysicL10DualNumberIdNS0_28SemiDynamicSparseNumberArrayIdmNS0_8NWrapperILm50EEEEELb1EEEb
FNDA:7766500,_ZN12RaccoonUtils8MacaulayEN11MetaPhysicL10DualNumberIdNS0_28SemiDynamicSparseNumberArrayIdmNS0_8NWrapperILm50EEEEELb1EEEb
FN:22,_ZN12RaccoonUtils8MacaulayERKSt6vectorIN11MetaPhysicL10DualNumberIdNS1_28SemiDynamicSparseNumberArrayIdmNS1_8NWrapperILm50EEEEELb1EEESaIS7_EEb
FNDA:1828660,_ZN12RaccoonUtils8MacaulayERKSt6vectorIN11MetaPhysicL10DualNumberIdNS1_28SemiDynamicSparseNumberArrayIdmNS1_8NWrapperILm50EEEEELb1EEESaIS7_EEb
FN:31,_ZN12RaccoonUtils21spectralDecompositionERK18RankTwoTensorTemplIN11MetaPhysicL10DualNumberIdNS1_28SemiDynamicSparseNumberArrayIdmNS1_8NWrapperILm50EEEEELb1EEEE
FNDA:1828660,_ZN12RaccoonUtils21spectralDecompositionERK18RankTwoTensorTemplIN11MetaPhysicL10DualNumberIdNS1_28SemiDynamicSparseNumberArrayIdmNS1_8NWrapperILm50EEEEELb1EEEE
FN:43,_ZN12RaccoonUtils3logERK18RankTwoTensorTemplIN11MetaPhysicL10DualNumberIdNS1_28SemiDynamicSparseNumberArrayIdmNS1_8NWrapperILm50EEEEELb1EEEE
FNDA:268608,_ZN12RaccoonUtils3logERK18RankTwoTensorTemplIN11MetaPhysicL10DualNumberIdNS1_28SemiDynamicSparseNumberArrayIdmNS1_8NWrapperILm50EEEEELb1EEEE
FN:55,_ZN12RaccoonUtils3expERK18RankTwoTensorTemplIN11MetaPhysicL10DualNumberIdNS1_28SemiDynamicSparseNumberArrayIdmNS1_8NWrapperILm50EEEEELb1EEEE
FNDA:114800,_ZN12RaccoonUtils3expERK18RankTwoTensorTemplIN11MetaPhysicL10DualNumberIdNS1_28SemiDynamicSparseNumberArrayIdmNS1_8NWrapperILm50EEEEELb1EEEE
FNF:5
FNH:5
DA:14,7766500
DA:16,7766500
DA:17,0
DA:18,7766500
DA:22,1828660
DA:24,1828660
DA:25,7314640
DA:26,10972000
DA:27,1828660
DA:31,1828660
DA:33,1828660
DA:34,1828660
DA:35,1828660
DA:37,1828660
DA:38,1828660
DA:39,3657320
DA:43,268608
DA:46,268608
DA:47,268608
DA:48,1074430
DA:49,1611650
DA:50,268608
DA:51,537216
DA:55,114800
DA:58,114800
DA:59,114800
DA:60,459200
DA:61,688800
DA:62,114800
DA:63,229600
LF:30
LH:29
end_of_record
SF:/usr/share/miniconda/envs/moose/x86_64-conda-linux-gnu/include/c++/9.3.0/bits/stl_set.h
FN:281,_ZNSt3setIsSt4lessIsESaIsEED2Ev
FNDA:0,_ZNSt3setIsSt4lessIsESaIsEED2Ev
FN:281,_ZNSt3setItSt4lessItESaItEED2Ev
FNDA:0,_ZNSt3setItSt4lessItESaItEED2Ev
FNF:2
FNH:0
DA:281,0
DA:281,0
LF:2
LH:0
end_of_record
SF:/usr/share/miniconda/envs/moose/x86_64-conda-linux-gnu/include/c++/9.3.0/bits/stl_iterator.h
DA:206,32041100
DA:207,13731900
DA:255,1752620
DA:807,2212070
DA:829,5485980
DA:830,6636200
LF:6
LH:6
end_of_record
SF:/usr/share/miniconda/envs/moose/x86_64-conda-linux-gnu/include/c++/9.3.0/bits/stl_algobase.h
DA:227,2703010
DA:228,2702940
DA:384,1920620000
DA:385,1920620000
DA:386,222899000
DA:770,20439100
DA:771,22911800
DA:772,20439100
DA:974,0
DA:976,0
DA:979,0
DA:982,0
DA:983,0
LF:13
LH:8
end_of_record
SF:/usr/share/miniconda/envs/moose/libmesh/include/libmesh/type_tensor.h
FN:520,_ZN7libMesh10TypeTensorIN11MetaPhysicL10DualNumberIdNS1_28SemiDynamicSparseNumberArrayIdmNS1_8NWrapperILm50EEEEELb1EEEEC2Ev
FNDA:0,_ZN7libMesh10TypeTensorIN11MetaPhysicL10DualNumberIdNS1_28SemiDynamicSparseNumberArrayIdmNS1_8NWrapperILm50EEEEELb1EEEEC2Ev
FN:543,_ZN7libMesh10TypeTensorIN11MetaPhysicL10DualNumberIdNS1_28SemiDynamicSparseNumberArrayIdmNS1_8NWrapperILm50EEEEELb1EEEEC2ERKS7_SA_SA_SA_SA_SA_SA_SA_SA_
FNDA:44971800,_ZN7libMesh10TypeTensorIN11MetaPhysicL10DualNumberIdNS1_28SemiDynamicSparseNumberArrayIdmNS1_8NWrapperILm50EEEEELb1EEEEC2ERKS7_SA_SA_SA_SA_SA_SA_SA_SA_
FN:1075,_ZNK7libMesh10TypeTensorIdE7inverseEv
FNDA:0,_ZNK7libMesh10TypeTensorIdE7inverseEv
FN:1228,_ZNK7libMesh10TypeTensorIdEmlIdEENS0_INS_12CompareTypesIdT_E9supertypeEEERKNS0_IS4_EE
FNDA:0,_ZNK7libMesh10TypeTensorIdEmlIdEENS0_INS_12CompareTypesIdT_E9supertypeEEERKNS0_IS4_EE
FN:1228,_ZNK7libMesh10TypeTensorIN11MetaPhysicL10DualNumberIdNS1_28SemiDynamicSparseNumberArrayIdmNS1_8NWrapperILm50EEEEELb1EEEEmlIS7_EENS0_INS_12CompareTypesIS7_T_E9supertypeEEERKNS0_ISB_EE
FNDA:0,_ZNK7libMesh10TypeTensorIN11MetaPhysicL10DualNumberIdNS1_28SemiDynamicSparseNumberArrayIdmNS1_8NWrapperILm50EEEEELb1EEEEmlIS7_EENS0_INS_12CompareTypesIS7_T_E9supertypeEEERKNS0_ISB_EE
FNF:5
FNH:1
DA:68,1194420000
DA:520,0
DA:522,0
DA:525,0
DA:526,0
DA:527,0
DA:531,0
DA:532,0
DA:533,0
DA:534,0
DA:535,0
DA:537,0
DA:543,44971800
DA:551,449718000
DA:553,44971800
DA:567,44971800
DA:568,44971800
DA:569,44971800
DA:570,44971800
DA:571,44971800
DA:572,44971800
DA:573,44971800
DA:574,44971800
DA:583,44971800
DA:728,13798600
DA:748,261305000
DA:1059,44971800
DA:1060,44971800
DA:1061,44971800
DA:1062,44971800
DA:1063,44971800
DA:1064,44971800
DA:1065,44971800
DA:1066,44971800
DA:1067,44971800
DA:1075,0
DA:1104,0
DA:1105,0
DA:1106,0
DA:1108,0
DA:1110,0
DA:1111,0
DA:1114,0
DA:1115,0
DA:1116,0
DA:1228,0
DA:1231,0
DA:1232,0
DA:1233,0
DA:1234,0
DA:1236,0
DA:1228,0
DA:1230,0
DA:1231,0
DA:1232,0
DA:1233,0
DA:1234,0
DA:1236,0
DA:1335,419080000
DA:1336,377172000
LF:60
LH:26
end_of_record
SF:/usr/share/miniconda/envs/moose/x86_64-conda-linux-gnu/include/c++/9.3.0/iostream
LF:0
LH:0
end_of_record
SF:/usr/share/miniconda/envs/moose/x86_64-conda-linux-gnu/include/c++/9.3.0/bits/stl_map.h
FN:490,_ZNSt3mapINSt7__cxx1112basic_stringIcSt11char_traitsIcESaIcEEEPN7libMesh10Parameters5ValueESt4lessIS5_ESaISt4pairIKS5_S9_EEEixERSD_
FNDA:0,_ZNSt3mapINSt7__cxx1112basic_stringIcSt11char_traitsIcESaIcEEEPN7libMesh10Parameters5ValueESt4lessIS5_ESaISt4pairIKS5_S9_EEEixERSD_
FNF:1
FNH:0
DA:300,0
DA:355,0
DA:364,0
DA:464,0
DA:490,0
DA:497,0
DA:499,0
DA:505,0
DA:1037,0
DA:1169,0
DA:1258,0
LF:11
LH:0
end_of_record
SF:/usr/share/miniconda/envs/moose/x86_64-conda-linux-gnu/include/c++/9.3.0/bits/std_abs.h
DA:72,74548500
LF:1
LH:1
end_of_record
SF:/usr/share/miniconda/envs/moose/libmesh/include/timpi/message_tag.h
LF:0
LH:0
end_of_record
SF:/usr/share/miniconda/envs/moose/libmesh/include/metaphysicl/dualnumber.h
FN:73,_ZNK11MetaPhysicL10DualNumberIdNS_28SemiDynamicSparseNumberArrayIdmNS_8NWrapperILm50EEEEELb1EEngEv
FNDA:20961100,_ZNK11MetaPhysicL10DualNumberIdNS_28SemiDynamicSparseNumberArrayIdmNS_8NWrapperILm50EEEEELb1EEngEv
FN:97,_ZN11MetaPhysicL10DualNumberIdNS_28SemiDynamicSparseNumberArrayIdmNS_8NWrapperILm50EEEEELb1EEaSERKS5_
FNDA:1134180000,_ZN11MetaPhysicL10DualNumberIdNS_28SemiDynamicSparseNumberArrayIdmNS_8NWrapperILm50EEEEELb1EEaSERKS5_
FN:136,_ZN11MetaPhysicL10DualNumberIdNS_28SemiDynamicSparseNumberArrayIdmNS_8NWrapperILm50EEEEELb1EEC2ERKS5_
FNDA:478748000,_ZN11MetaPhysicL10DualNumberIdNS_28SemiDynamicSparseNumberArrayIdmNS_8NWrapperILm50EEEEELb1EEC2ERKS5_
FN:214,_ZN11MetaPhysicL10DualNumberIdNS_28SemiDynamicSparseNumberArrayIdmNS_8NWrapperILm50EEEEELb1EEC2IdEERKT_NSt9enable_ifIXsrSt14is_convertibleIS7_dE5valueEPvE4typeE
FNDA:37179100,_ZN11MetaPhysicL10DualNumberIdNS_28SemiDynamicSparseNumberArrayIdmNS_8NWrapperILm50EEEEELb1EEC2IdEERKT_NSt9enable_ifIXsrSt14is_convertibleIS7_dE5valueEPvE4typeE
FN:224,_ZN11MetaPhysicL10DualNumberIdNS_28SemiDynamicSparseNumberArrayIdmNS_8NWrapperILm50EEEEELb1EEC2IdS4_EERKT_RKT0_
FNDA:20961100,_ZN11MetaPhysicL10DualNumberIdNS_28SemiDynamicSparseNumberArrayIdmNS_8NWrapperILm50EEEEELb1EEC2IdS4_EERKT_RKT0_
FN:259,_ZN11MetaPhysicL26derivative_multiply_helperIdNS_28SemiDynamicSparseNumberArrayIdmNS_8NWrapperILm50EEEEELb1EEEvRNS_10DualNumberIT_T0_XT1_EEERKS8_
FNDA:0,_ZN11MetaPhysicL26derivative_multiply_helperIdNS_28SemiDynamicSparseNumberArrayIdmNS_8NWrapperILm50EEEEELb1EEEvRNS_10DualNumberIT_T0_XT1_EEERKS8_
FN:310,_ZN11MetaPhysicL26derivative_division_helperIdNS_28SemiDynamicSparseNumberArrayIdmNS_8NWrapperILm50EEEEELb1EEEvRNS_10DualNumberIT_T0_XT1_EEERKS8_
FNDA:0,_ZN11MetaPhysicL26derivative_division_helperIdNS_28SemiDynamicSparseNumberArrayIdmNS_8NWrapperILm50EEEEELb1EEEvRNS_10DualNumberIT_T0_XT1_EEERKS8_
FN:464,_ZN11MetaPhysicLplIddNS_28SemiDynamicSparseNumberArrayIdmNS_8NWrapperILm50EEEEELb1EEENS_8PlusTypeINS_10DualNumberIT0_T1_XT2_EEET_Lb1EvE9supertypeERKSA_RKS9_
FNDA:9804210,_ZN11MetaPhysicLplIddNS_28SemiDynamicSparseNumberArrayIdmNS_8NWrapperILm50EEEEELb1EEENS_8PlusTypeINS_10DualNumberIT0_T1_XT2_EEET_Lb1EvE9supertypeERKSA_RKS9_
FN:464,_ZN11MetaPhysicLplIdNS_28SemiDynamicSparseNumberArrayIdmNS_8NWrapperILm50EEEEEdS4_Lb1EEENS_8PlusTypeINS_10DualNumberIT_T0_XT3_EEENS6_IT1_T2_XT3_EEELb0EvE9supertypeERKS9_RKSC_
FNDA:7766500,_ZN11MetaPhysicLplIdNS_28SemiDynamicSparseNumberArrayIdmNS_8NWrapperILm50EEEEEdS4_Lb1EEENS_8PlusTypeINS_10DualNumberIT_T0_XT3_EEENS6_IT1_T2_XT3_EEELb0EvE9supertypeERKS9_RKSC_
FN:468,_ZN11MetaPhysicLmlIdNS_28SemiDynamicSparseNumberArrayIdmNS_8NWrapperILm50EEEEEdS4_Lb1EEENS_14MultipliesTypeINS_10DualNumberIT_T0_XT3_EEENS6_IT1_T2_XT3_EEELb0EvE9supertypeERKS9_RKSC_
FNDA:19608400,_ZN11MetaPhysicLmlIdNS_28SemiDynamicSparseNumberArrayIdmNS_8NWrapperILm50EEEEEdS4_Lb1EEENS_14MultipliesTypeINS_10DualNumberIT_T0_XT3_EEENS6_IT1_T2_XT3_EEELb0EvE9supertypeERKS9_RKSC_
FN:468,_ZN11MetaPhysicLmlIddNS_28SemiDynamicSparseNumberArrayIdmNS_8NWrapperILm50EEEEELb1EEENS_14MultipliesTypeINS_10DualNumberIT0_T1_XT2_EEET_Lb1EvE9supertypeERKSA_RKS9_
FNDA:17570700,_ZN11MetaPhysicLmlIddNS_28SemiDynamicSparseNumberArrayIdmNS_8NWrapperILm50EEEEELb1EEENS_14MultipliesTypeINS_10DualNumberIT0_T1_XT2_EEET_Lb1EvE9supertypeERKSA_RKS9_
FN:473,_ZN11MetaPhysicLdvIdNS_28SemiDynamicSparseNumberArrayIdmNS_8NWrapperILm50EEEEEdS4_Lb1EEENS_11DividesTypeINS_10DualNumberIT_T0_XT3_EEENS6_IT1_T2_XT3_EEELb0EvE9supertypeERKS9_RKSC_
FNDA:9804210,_ZN11MetaPhysicLdvIdNS_28SemiDynamicSparseNumberArrayIdmNS_8NWrapperILm50EEEEEdS4_Lb1EEENS_11DividesTypeINS_10DualNumberIT_T0_XT3_EEENS6_IT1_T2_XT3_EEELb0EvE9supertypeERKS9_RKSC_
FN:473,_ZN11MetaPhysicLdvIddNS_28SemiDynamicSparseNumberArrayIdmNS_8NWrapperILm50EEEEELb1EEENS_11DividesTypeINS_10DualNumberIT0_T1_XT2_EEET_Lb1EvE9supertypeERKSA_RKS9_
FNDA:9804210,_ZN11MetaPhysicLdvIddNS_28SemiDynamicSparseNumberArrayIdmNS_8NWrapperILm50EEEEELb1EEENS_11DividesTypeINS_10DualNumberIT0_T1_XT2_EEET_Lb1EvE9supertypeERKSA_RKS9_
FN:627,_ZSt4sqrtIdN11MetaPhysicL28SemiDynamicSparseNumberArrayIdmNS0_8NWrapperILm50EEEEELb1EENS0_10DualNumberIT_T0_XT1_EEEOS8_
FNDA:9804210,_ZSt4sqrtIdN11MetaPhysicL28SemiDynamicSparseNumberArrayIdmNS0_8NWrapperILm50EEEEELb1EENS0_10DualNumberIT_T0_XT1_EEEOS8_
FN:628,_ZSt3expIdN11MetaPhysicL28SemiDynamicSparseNumberArrayIdmNS0_8NWrapperILm50EEEEELb1EENS0_10DualNumberIT_T0_XT1_EEERKS8_
FNDA:344400,_ZSt3expIdN11MetaPhysicL28SemiDynamicSparseNumberArrayIdmNS0_8NWrapperILm50EEEEELb1EENS0_10DualNumberIT_T0_XT1_EEERKS8_
FN:629,_ZSt3logIdN11MetaPhysicL28SemiDynamicSparseNumberArrayIdmNS0_8NWrapperILm50EEEEELb1EENS0_10DualNumberIT_T0_XT1_EEERKS8_
FNDA:805824,_ZSt3logIdN11MetaPhysicL28SemiDynamicSparseNumberArrayIdmNS0_8NWrapperILm50EEEEELb1EENS0_10DualNumberIT_T0_XT1_EEERKS8_
FN:640,_ZSt3absIdN11MetaPhysicL28SemiDynamicSparseNumberArrayIdmNS0_8NWrapperILm50EEEEELb1EENS0_10DualNumberIT_T0_XT1_EEERKS8_
FNDA:34537400,_ZSt3absIdN11MetaPhysicL28SemiDynamicSparseNumberArrayIdmNS0_8NWrapperILm50EEEEELb1EENS0_10DualNumberIT_T0_XT1_EEERKS8_
FNF:17
FNH:15
DA:63,63888100
DA:73,41922200
DA:97,1134180000
DA:99,1134180000
DA:101,1134180000
DA:104,1134180000
DA:112,40043300
DA:114,40043300
DA:136,478748000
DA:137,478748000
DA:139,478748000
DA:141,478748000
DA:146,9804210
DA:148,9804210
DA:189,7988870
DA:190,6338760
DA:191,4688660
DA:214,86564700
DA:215,86564700
DA:217,86564700
DA:218,50904800
DA:219,37179100
DA:224,20961100
DA:226,20961100
DA:228,20961100
DA:229,12321300
DA:230,20961100
DA:259,0
DA:262,0
DA:265,0
DA:266,0
DA:269,0
DA:270,0
DA:310,0
DA:313,0
DA:316,0
DA:317,0
DA:318,0
DA:321,0
DA:322,0
DA:464,9804210
DA:464,7766500
DA:464,90947300
DA:468,19608400
DA:468,17570700
DA:473,9804210
DA:473,9804210
DA:510,16966600
DA:512,20434800
DA:627,15564300
DA:628,344400
DA:629,805824
DA:640,34537400
LF:53
LH:40
end_of_record
SF:/usr/share/miniconda/envs/moose/x86_64-conda-linux-gnu/include/c++/9.3.0/tuple
DA:125,0
DA:126,0
DA:334,0
DA:1670,0
DA:1674,0
LF:5
LH:0
end_of_record
SF:/usr/share/miniconda/envs/moose/x86_64-conda-linux-gnu/include/c++/9.3.0/bits/basic_string.h
FN:525,_ZNSt7__cxx1112basic_stringIcSt11char_traitsIcESaIcEEC2IS3_EEPKcRKS3_
FNDA:0,_ZNSt7__cxx1112basic_stringIcSt11char_traitsIcESaIcEEC2IS3_EEPKcRKS3_
FN:6020,_ZStplIcSt11char_traitsIcESaIcEENSt7__cxx1112basic_stringIT_T0_T1_EERKS8_SA_
FNDA:0,_ZStplIcSt11char_traitsIcESaIcEENSt7__cxx1112basic_stringIT_T0_T1_EERKS8_SA_
FN:6085,_ZStplIcSt11char_traitsIcESaIcEENSt7__cxx1112basic_stringIT_T0_T1_EEOS8_RKS8_
FNDA:0,_ZStplIcSt11char_traitsIcESaIcEENSt7__cxx1112basic_stringIT_T0_T1_EEOS8_RKS8_
FN:6097,_ZStplIcSt11char_traitsIcESaIcEENSt7__cxx1112basic_stringIT_T0_T1_EEOS8_S9_
FNDA:0,_ZStplIcSt11char_traitsIcESaIcEENSt7__cxx1112basic_stringIT_T0_T1_EEOS8_S9_
FNF:4
FNH:0
DA:156,0
DA:157,0
DA:159,0
DA:160,0
DA:179,0
DA:183,0
DA:193,0
DA:203,0
DA:211,0
DA:217,0
DA:222,0
DA:231,0
DA:237,0
DA:247,0
DA:348,0
DA:349,0
DA:448,0
DA:451,0
DA:525,0
DA:527,0
DA:555,0
DA:563,0
DA:569,0
DA:995,0
DA:1178,0
DA:1222,0
DA:1641,0
DA:2313,0
DA:6020,0
DA:6025,0
DA:6085,0
DA:6087,0
DA:6097,0
DA:6100,0
DA:6102,0
DA:6104,0
DA:6229,0
DA:6421,0
LF:38
LH:0
end_of_record
SF:/usr/share/miniconda/envs/moose/x86_64-conda-linux-gnu/include/c++/9.3.0/bits/alloc_traits.h
DA:470,4040800
LF:1
LH:1
end_of_record
SF:/usr/share/miniconda/envs/moose/libmesh/include/metaphysicl/semidynamicsparsenumberarray.h
DA:84,0
DA:85,0
LF:2
LH:0
end_of_record
SF:/usr/share/miniconda/envs/moose/x86_64-conda-linux-gnu/include/c++/9.3.0/sstream
DA:678,0
LF:1
LH:0
end_of_record
SF:/usr/share/miniconda/envs/moose/x86_64-conda-linux-gnu/include/c++/9.3.0/bits/stl_iterator_base_funcs.h
DA:104,0
DA:180,0
DA:181,0
DA:185,0
LF:4
LH:0
end_of_record
SF:/home/runner/work/raccoon/raccoon/moose/framework/build/header_symlinks/MooseError.h
FN:154,_ZN5moose8internal14mooseStreamAllIRA54_KcJRiEEEvRNSt7__cxx1119basic_ostringstreamIcSt11char_traitsIcESaIcEEEOT_DpOT0_
FNDA:0,_ZN5moose8internal14mooseStreamAllIRA54_KcJRiEEEvRNSt7__cxx1119basic_ostringstreamIcSt11char_traitsIcESaIcEEEOT_DpOT0_
FN:154,_ZN5moose8internal14mooseStreamAllIRA127_KcJRiEEEvRNSt7__cxx1119basic_ostringstreamIcSt11char_traitsIcESaIcEEEOT_DpOT0_
FNDA:0,_ZN5moose8internal14mooseStreamAllIRA127_KcJRiEEEvRNSt7__cxx1119basic_ostringstreamIcSt11char_traitsIcESaIcEEEOT_DpOT0_
FN:154,_ZN5moose8internal14mooseStreamAllIRA80_KcJNSt7__cxx1112basic_stringIcSt11char_traitsIcESaIcEEERA54_S2_RiEEEvRNS5_19basic_ostringstreamIcS8_S9_EEOT_DpOT0_
FNDA:0,_ZN5moose8internal14mooseStreamAllIRA80_KcJNSt7__cxx1112basic_stringIcSt11char_traitsIcESaIcEEERA54_S2_RiEEEvRNS5_19basic_ostringstreamIcS8_S9_EEOT_DpOT0_
FN:236,_Z10mooseErrorIJRA51_KcEEvDpOT_
FNDA:0,_Z10mooseErrorIJRA51_KcEEvDpOT_
FN:236,_Z10mooseErrorIJRA115_KcEEvDpOT_
FNDA:0,_Z10mooseErrorIJRA115_KcEEvDpOT_
FN:236,_Z10mooseErrorIJRA34_KcRN18RankTwoTensorTemplIN11MetaPhysicL10DualNumberIdNS4_28SemiDynamicSparseNumberArrayIdmNS4_8NWrapperILm50EEEEELb1EEEE10FillMethodERA32_S0_EEvDpOT_
FNDA:0,_Z10mooseErrorIJRA34_KcRN18RankTwoTensorTemplIN11MetaPhysicL10DualNumberIdNS4_28SemiDynamicSparseNumberArrayIdmNS4_8NWrapperILm50EEEEELb1EEEE10FillMethodERA32_S0_EEvDpOT_
FN:236,_Z10mooseErrorIJRA127_KcRiEEvDpOT_
FNDA:0,_Z10mooseErrorIJRA127_KcRiEEvDpOT_
FN:236,_Z10mooseErrorIJRA80_KcNSt7__cxx1112basic_stringIcSt11char_traitsIcESaIcEEERA54_S0_RiEEvDpOT_
FNDA:0,_Z10mooseErrorIJRA80_KcNSt7__cxx1112basic_stringIcSt11char_traitsIcESaIcEEERA54_S0_RiEEvDpOT_
FNF:8
FNH:0
DA:154,0
DA:156,0
DA:157,0
DA:158,0
DA:154,0
DA:156,0
DA:157,0
DA:158,0
DA:154,0
DA:156,0
DA:157,0
DA:158,0
DA:156,0
DA:157,0
DA:158,0
DA:236,0
DA:238,0
DA:240,0
DA:236,0
DA:238,0
DA:240,0
DA:236,0
DA:238,0
DA:240,0
DA:236,0
DA:238,0
DA:239,0
DA:240,0
DA:236,0
DA:238,0
DA:239,0
DA:240,0
LF:32
LH:0
end_of_record
SF:/usr/share/miniconda/envs/moose/x86_64-conda-linux-gnu/include/c++/9.3.0/ostream
DA:113,0
DA:221,0
DA:518,0
LF:3
LH:0
end_of_record
SF:/usr/share/miniconda/envs/moose/x86_64-conda-linux-gnu/include/c++/9.3.0/array
DA:56,0
DA:135,14535300
DA:139,186966000
DA:235,2692330000
DA:239,2027630000
LF:5
LH:4
end_of_record
SF:/usr/share/miniconda/envs/moose/x86_64-conda-linux-gnu/include/c++/9.3.0/bits/ios_base.h
DA:731,0
LF:1
LH:0
end_of_record
TN:
SF:/usr/share/miniconda/envs/moose/libmesh/include/libmesh/threads_pthread.h
DA:149,25268
DA:150,25268
DA:527,8964
DA:541,16304
LF:4
LH:4
end_of_record
SF:/usr/share/miniconda/envs/moose/x86_64-conda-linux-gnu/include/c++/9.3.0/bits/basic_string.tcc
FN:206,_ZNSt7__cxx1112basic_stringIcSt11char_traitsIcESaIcEE12_M_constructIPcEEvT_S7_St20forward_iterator_tag
FNDA:0,_ZNSt7__cxx1112basic_stringIcSt11char_traitsIcESaIcEE12_M_constructIPcEEvT_S7_St20forward_iterator_tag
FN:206,_ZNSt7__cxx1112basic_stringIcSt11char_traitsIcESaIcEE12_M_constructIPKcEEvT_S8_St20forward_iterator_tag
FNDA:0,_ZNSt7__cxx1112basic_stringIcSt11char_traitsIcESaIcEE12_M_constructIPKcEEvT_S8_St20forward_iterator_tag
FNF:2
FNH:0
DA:206,0
DA:211,0
DA:212,0
DA:215,0
DA:217,0
DA:219,0
DA:220,0
DA:225,0
DA:232,0
DA:233,0
DA:206,0
DA:211,0
DA:212,0
DA:215,0
DA:217,0
DA:219,0
DA:220,0
DA:225,0
DA:232,0
DA:233,0
LF:20
LH:0
end_of_record
SF:/home/runner/work/raccoon/raccoon/moose/framework/build/header_symlinks/ConsoleStream.h
FN:105,_ZNK13ConsoleStreamlsIA16_cEERKS_RKT_
FNDA:0,_ZNK13ConsoleStreamlsIA16_cEERKS_RKT_
FN:105,_ZNK13ConsoleStreamlsIA41_cEERKS_RKT_
FNDA:0,_ZNK13ConsoleStreamlsIA41_cEERKS_RKT_
FN:105,_ZNK13ConsoleStreamlsIdEERKS_RKT_
FNDA:507,_ZNK13ConsoleStreamlsIdEERKS_RKT_
FN:105,_ZNK13ConsoleStreamlsIFRSt8ios_baseS2_EEERKS_RKT_
FNDA:895,_ZNK13ConsoleStreamlsIFRSt8ios_baseS2_EEERKS_RKT_
FN:105,_ZNK13ConsoleStreamlsIA23_cEERKS_RKT_
FNDA:0,_ZNK13ConsoleStreamlsIA23_cEERKS_RKT_
FN:105,_ZNK13ConsoleStreamlsIPKcEERKS_RKT_
FNDA:5588,_ZNK13ConsoleStreamlsIPKcEERKS_RKT_
FNF:6
FNH:3
DA:105,0
DA:109,0
DA:110,0
DA:105,0
DA:109,0
DA:110,0
DA:105,507
DA:109,507
DA:110,507
DA:105,895
DA:109,895
DA:110,895
DA:105,0
DA:109,0
DA:110,0
DA:105,5588
DA:109,5588
DA:110,5588
LF:18
LH:9
end_of_record
SF:/usr/share/miniconda/envs/moose/x86_64-conda-linux-gnu/include/c++/9.3.0/bits/stl_vector.h
FN:622,_ZNSt6vectorIdSaIdEEC2ESt16initializer_listIdERKS0_
FNDA:0,_ZNSt6vectorIdSaIdEEC2ESt16initializer_listIdERKS0_
FN:675,_ZNSt6vectorISt5tupleIJNSt7__cxx1112basic_stringIcSt11char_traitsIcESaIcEEEN5Moose23RelationshipManagerTypeESt8functionIFvRK15InputParametersRSA_EEEESaISG_EED2Ev
FNDA:0,_ZNSt6vectorISt5tupleIJNSt7__cxx1112basic_stringIcSt11char_traitsIcESaIcEEEN5Moose23RelationshipManagerTypeESt8functionIFvRK15InputParametersRSA_EEEESaISG_EED2Ev
FN:675,_ZNSt6vectorIS_ISt4pairIhhESaIS1_EESaIS3_EED2Ev
FNDA:0,_ZNSt6vectorIS_ISt4pairIhhESaIS1_EESaIS3_EED2Ev
FN:675,_ZNSt6vectorISt10unique_ptrI10MooseArrayIdESt14default_deleteIS2_EESaIS5_EED2Ev
FNDA:0,_ZNSt6vectorISt10unique_ptrI10MooseArrayIdESt14default_deleteIS2_EESaIS5_EED2Ev
FN:675,_ZNSt6vectorIS_IaSaIaEESaIS1_EED2Ev
FNDA:0,_ZNSt6vectorIS_IaSaIaEESaIS1_EED2Ev
FN:675,_ZNSt6vectorIS_IS_ISt4pairIhhESaIS1_EESaIS3_EESaIS5_EED2Ev
FNDA:0,_ZNSt6vectorIS_IS_ISt4pairIhhESaIS1_EESaIS3_EESaIS5_EED2Ev
FN:675,_ZNSt6vectorI15AuxVariableNameSaIS0_EED2Ev
FNDA:0,_ZNSt6vectorI15AuxVariableNameSaIS0_EED2Ev
FN:675,_ZNSt6vectorIS_IS_IaSaIaEESaIS1_EESaIS3_EED2Ev
FNDA:0,_ZNSt6vectorIS_IS_IaSaIaEESaIS1_EESaIS3_EED2Ev
FN:675,_ZNSt6vectorIS_IS_IS_ISt4pairIhhESaIS1_EESaIS3_EESaIS5_EESaIS7_EED2Ev
FNDA:0,_ZNSt6vectorIS_IS_IS_ISt4pairIhhESaIS1_EESaIS3_EESaIS5_EESaIS7_EED2Ev
FN:675,_ZNSt6vectorINSt7__cxx1112basic_stringIcSt11char_traitsIcESaIcEEESaIS5_EED2Ev
FNDA:0,_ZNSt6vectorINSt7__cxx1112basic_stringIcSt11char_traitsIcESaIcEEESaIS5_EED2Ev
FNF:10
FNH:0
DA:94,0
DA:95,0
DA:333,0
DA:334,0
DA:350,0
DA:622,0
DA:626,0
DA:628,0
DA:675,0
DA:677,0
DA:680,0
DA:675,0
DA:677,0
DA:680,0
DA:675,0
DA:677,0
DA:680,0
DA:675,0
DA:677,0
DA:680,0
DA:675,0
DA:677,0
DA:680,0
DA:675,0
DA:677,0
DA:680,0
DA:675,0
DA:677,0
DA:680,0
DA:675,0
DA:677,0
DA:680,0
DA:675,0
DA:677,0
DA:680,0
LF:35
LH:0
end_of_record
SF:/usr/share/miniconda/envs/moose/x86_64-conda-linux-gnu/include/c++/9.3.0/bits/stl_construct.h
DA:98,0
DA:107,0
LF:2
LH:0
end_of_record
SF:/home/runner/work/raccoon/raccoon/moose/framework/build/header_symlinks/Registry.h
FN:137,_ZN5moose8internal15callValidParamsI23ModeISurfingDirichletBCEEDTcmcl20callValidParamsInnerIT_ELi0EEclL_Z20emptyInputParametersvEEEv
FNDA:98,_ZN5moose8internal15callValidParamsI23ModeISurfingDirichletBCEEDTcmcl20callValidParamsInnerIT_ELi0EEclL_Z20emptyInputParametersvEEEv
FN:137,_ZN5moose8internal15callValidParamsI27LoadingUnloadingDirichletBCEEDTcmcl20callValidParamsInnerIT_ELi0EEclL_Z20emptyInputParametersvEEEv
FNDA:98,_ZN5moose8internal15callValidParamsI27LoadingUnloadingDirichletBCEEDTcmcl20callValidParamsInnerIT_ELi0EEclL_Z20emptyInputParametersvEEEv
FN:144,_ZN5moose8internal8buildObjI23ModeISurfingDirichletBCEESt10shared_ptrI11MooseObjectERK15InputParameters
FNDA:0,_ZN5moose8internal8buildObjI23ModeISurfingDirichletBCEESt10shared_ptrI11MooseObjectERK15InputParameters
FN:144,_ZN5moose8internal8buildObjI27LoadingUnloadingDirichletBCEESt10shared_ptrI11MooseObjectERK15InputParameters
FNDA:0,_ZN5moose8internal8buildObjI27LoadingUnloadingDirichletBCEESt10shared_ptrI11MooseObjectERK15InputParameters
FN:204,_ZN8Registry3addI23ModeISurfingDirichletBCEEcRK13RegistryEntry
FNDA:32,_ZN8Registry3addI23ModeISurfingDirichletBCEEcRK13RegistryEntry
FN:204,_ZN8Registry3addI27LoadingUnloadingDirichletBCEEcRK13RegistryEntry
FNDA:32,_ZN8Registry3addI27LoadingUnloadingDirichletBCEEcRK13RegistryEntry
FNF:6
FNH:4
DA:137,98
DA:139,98
DA:137,98
DA:139,98
DA:144,0
DA:146,0
DA:144,0
DA:146,0
DA:204,32
DA:206,64
DA:207,32
DA:208,32
DA:209,32
DA:210,32
DA:204,32
DA:206,64
DA:207,32
DA:208,32
DA:209,32
DA:210,32
LF:20
LH:16
end_of_record
SF:/usr/share/miniconda/envs/moose/x86_64-conda-linux-gnu/include/c++/9.3.0/typeinfo
DA:100,0
DA:123,0
DA:124,0
LF:3
LH:0
end_of_record
SF:/usr/share/miniconda/envs/moose/x86_64-conda-linux-gnu/include/c++/9.3.0/bits/stl_algobase.h
LF:0
LH:0
end_of_record
SF:/home/runner/work/raccoon/raccoon/moose/framework/build/header_symlinks/BoundaryCondition.h
FN:53,_ZN17BoundaryCondition11shouldApplyEv
FNDA:0,_ZN17BoundaryCondition11shouldApplyEv
FNF:1
FNH:0
DA:53,0
LF:1
LH:0
end_of_record
SF:/home/runner/work/raccoon/raccoon/moose/framework/build/header_symlinks/MooseArray.h
DA:278,0
LF:1
LH:0
end_of_record
SF:/usr/share/miniconda/envs/moose/x86_64-conda-linux-gnu/include/c++/9.3.0/ext/aligned_buffer.h
DA:65,0
DA:104,0
LF:2
LH:0
end_of_record
SF:/usr/share/miniconda/envs/moose/x86_64-conda-linux-gnu/include/c++/9.3.0/iostream
LF:0
LH:0
end_of_record
SF:/usr/share/miniconda/envs/moose/x86_64-conda-linux-gnu/include/c++/9.3.0/bits/stl_map.h
FN:490,_ZNSt3mapINSt7__cxx1112basic_stringIcSt11char_traitsIcESaIcEEEN15InputParameters8MetadataESt4lessIS5_ESaISt4pairIKS5_S7_EEEixERSB_
FNDA:3334,_ZNSt3mapINSt7__cxx1112basic_stringIcSt11char_traitsIcESaIcEEEN15InputParameters8MetadataESt4lessIS5_ESaISt4pairIKS5_S7_EEEixERSB_
FN:490,_ZNSt3mapINSt7__cxx1112basic_stringIcSt11char_traitsIcESaIcEEEPN7libMesh10Parameters5ValueESt4lessIS5_ESaISt4pairIKS5_S9_EEEixERSD_
FNDA:0,_ZNSt3mapINSt7__cxx1112basic_stringIcSt11char_traitsIcESaIcEEEPN7libMesh10Parameters5ValueESt4lessIS5_ESaISt4pairIKS5_S9_EEEixERSD_
FNF:2
FNH:1
DA:300,0
DA:355,0
DA:364,0
DA:464,0
DA:490,3334
DA:497,3334
DA:499,3334
DA:505,3334
DA:490,0
DA:497,0
DA:499,0
DA:505,0
DA:1037,0
DA:1169,0
DA:1194,24014
DA:1258,3334
LF:16
LH:6
end_of_record
SF:/home/runner/work/raccoon/raccoon/moose/framework/build/header_symlinks/PostprocessorInterface.h
FN:139,_ZNK22PostprocessorInterface32addPostprocessorDependencyHelperERK17PostprocessorName
FNDA:0,_ZNK22PostprocessorInterface32addPostprocessorDependencyHelperERK17PostprocessorName
FNF:1
FNH:0
DA:139,0
LF:1
LH:0
end_of_record
SF:/usr/share/miniconda/envs/moose/libmesh/include/libmesh/ostream_proxy.h
DA:116,0
DA:123,0
LF:2
LH:0
end_of_record
SF:/usr/share/miniconda/envs/moose/x86_64-conda-linux-gnu/include/c++/9.3.0/bits/stl_set.h
FN:281,_ZNSt3setIsSt4lessIsESaIsEED2Ev
FNDA:0,_ZNSt3setIsSt4lessIsESaIsEED2Ev
FN:281,_ZNSt3setItSt4lessItESaItEED2Ev
FNDA:0,_ZNSt3setItSt4lessItESaItEED2Ev
FNF:2
FNH:0
DA:281,0
DA:281,0
DA:281,0
LF:3
LH:0
end_of_record
SF:/usr/share/miniconda/envs/moose/x86_64-conda-linux-gnu/include/c++/9.3.0/bits/unordered_map.h
DA:102,0
LF:1
LH:0
end_of_record
SF:/usr/share/miniconda/envs/moose/x86_64-conda-linux-gnu/include/c++/9.3.0/sstream
DA:678,0
DA:832,0
LF:2
LH:0
end_of_record
SF:/usr/share/miniconda/envs/moose/x86_64-conda-linux-gnu/include/c++/9.3.0/bits/hashtable_policy.h
DA:2149,0
LF:1
LH:0
end_of_record
SF:/home/runner/work/raccoon/raccoon/moose/framework/build/header_symlinks/MeshChangedInterface.h
FN:39,_ZN20MeshChangedInterface11meshChangedEv
FNDA:0,_ZN20MeshChangedInterface11meshChangedEv
FNF:1
FNH:0
DA:39,0
LF:1
LH:0
end_of_record
SF:/usr/share/miniconda/envs/moose/libmesh/include/Eigen/src/Core/Matrix.h
LF:0
LH:0
end_of_record
SF:/usr/share/miniconda/envs/moose/x86_64-conda-linux-gnu/include/c++/9.3.0/bits/stl_iterator_base_funcs.h
DA:104,0
LF:1
LH:0
end_of_record
SF:/usr/share/miniconda/envs/moose/libmesh/include/libmesh/vector_value.h
LF:0
LH:0
end_of_record
SF:/home/runner/work/raccoon/raccoon/moose/framework/build/header_symlinks/NodalBCBase.h
FN:43,_ZNK11NodalBCBase13checkNodalVarEv
FNDA:0,_ZNK11NodalBCBase13checkNodalVarEv
FNF:1
FNH:0
DA:43,0
LF:1
LH:0
end_of_record
SF:/usr/share/miniconda/envs/moose/x86_64-conda-linux-gnu/include/c++/9.3.0/bits/unique_ptr.h
FN:555,_ZNSt10unique_ptrIA_N11MetaPhysicL10DualNumberIdNS0_28SemiDynamicSparseNumberArrayIdmNS0_8NWrapperILm50EEEEELb1EEESt14default_deleteIS7_EED2Ev
FNDA:0,_ZNSt10unique_ptrIA_N11MetaPhysicL10DualNumberIdNS0_28SemiDynamicSparseNumberArrayIdmNS0_8NWrapperILm50EEEEELb1EEESt14default_deleteIS7_EED2Ev
FN:555,_ZNSt10unique_ptrIA_N7libMesh11TensorValueIdEESt14default_deleteIS3_EED2Ev
FNDA:0,_ZNSt10unique_ptrIA_N7libMesh11TensorValueIdEESt14default_deleteIS3_EED2Ev
FN:555,_ZNSt10unique_ptrIA_N7libMesh11TensorValueIN11MetaPhysicL10DualNumberIdNS2_28SemiDynamicSparseNumberArrayIdmNS2_8NWrapperILm50EEEEELb1EEEEESt14default_deleteISA_EED2Ev
FNDA:0,_ZNSt10unique_ptrIA_N7libMesh11TensorValueIN11MetaPhysicL10DualNumberIdNS2_28SemiDynamicSparseNumberArrayIdmNS2_8NWrapperILm50EEEEELb1EEEEESt14default_deleteISA_EED2Ev
FN:555,_ZNSt10unique_ptrIA_N7libMesh11VectorValueIN11MetaPhysicL10DualNumberIdNS2_28SemiDynamicSparseNumberArrayIdmNS2_8NWrapperILm50EEEEELb1EEEEESt14default_deleteISA_EED2Ev
FNDA:0,_ZNSt10unique_ptrIA_N7libMesh11VectorValueIN11MetaPhysicL10DualNumberIdNS2_28SemiDynamicSparseNumberArrayIdmNS2_8NWrapperILm50EEEEELb1EEEEESt14default_deleteISA_EED2Ev
FN:555,_ZNSt10unique_ptrIA_N7libMesh11VectorValueIdEESt14default_deleteIS3_EED2Ev
FNDA:0,_ZNSt10unique_ptrIA_N7libMesh11VectorValueIdEESt14default_deleteIS3_EED2Ev
FNF:5
FNH:0
DA:115,0
DA:116,0
DA:291,0
DA:292,0
DA:294,0
DA:555,0
DA:558,0
DA:561,0
DA:555,0
DA:558,0
DA:561,0
DA:555,0
DA:558,0
DA:561,0
DA:555,0
DA:558,0
DA:561,0
DA:555,0
DA:558,0
DA:561,0
LF:20
LH:0
end_of_record
SF:/usr/share/miniconda/envs/moose/libmesh/include/timpi/message_tag.h
LF:0
LH:0
end_of_record
SF:/home/runner/work/raccoon/raccoon/moose/framework/build/header_symlinks/MooseVariableDependencyInterface.h
LF:0
LH:0
end_of_record
SF:/usr/share/miniconda/envs/moose/x86_64-conda-linux-gnu/include/c++/9.3.0/tuple
FN:1670,_ZNSt4pairIKNSt7__cxx1112basic_stringIcSt11char_traitsIcESaIcEEEN15InputParameters8MetadataEEC2IJRS6_EJLm0EEJEJEEERSt5tupleIJDpT_EERSC_IJDpT1_EESt12_Index_tupleIJXspT0_EEESL_IJXspT2_EEE
FNDA:0,_ZNSt4pairIKNSt7__cxx1112basic_stringIcSt11char_traitsIcESaIcEEEN15InputParameters8MetadataEEC2IJRS6_EJLm0EEJEJEEERSt5tupleIJDpT_EERSC_IJDpT1_EESt12_Index_tupleIJXspT0_EEESL_IJXspT2_EEE
FNF:1
FNH:0
DA:125,3334
DA:126,3334
DA:334,0
DA:523,0
DA:1658,0
DA:1663,0
DA:1670,0
DA:1674,0
DA:1675,0
LF:9
LH:2
end_of_record
SF:/usr/share/miniconda/envs/moose/x86_64-conda-linux-gnu/include/c++/9.3.0/bits/basic_string.h
FN:525,_ZNSt7__cxx1112basic_stringIcSt11char_traitsIcESaIcEEC2IS3_EEPKcRKS3_
FNDA:2832,_ZNSt7__cxx1112basic_stringIcSt11char_traitsIcESaIcEEC2IS3_EEPKcRKS3_
FNF:1
FNH:1
DA:156,2832
DA:157,2832
DA:159,5002
DA:160,5002
DA:179,0
DA:183,5002
DA:193,7834
DA:203,0
DA:211,0
DA:217,0
DA:222,2352
DA:231,1764
DA:237,1568
DA:247,2832
DA:348,0
DA:349,0
DA:431,5002
DA:448,0
DA:451,0
DA:525,2832
DA:527,2832
DA:658,0
DA:1366,6408
DA:2313,31
DA:6229,20298
DA:6421,31
LF:26
LH:17
end_of_record
SF:/usr/share/miniconda/envs/moose/x86_64-conda-linux-gnu/include/c++/9.3.0/bits/alloc_traits.h
DA:470,0
LF:1
LH:0
end_of_record
SF:/usr/share/miniconda/envs/moose/x86_64-conda-linux-gnu/include/c++/9.3.0/bits/shared_ptr_base.h
FN:131,_ZNSt16_Sp_counted_baseILN9__gnu_cxx12_Lock_policyE2EE10_M_destroyEv
FNDA:0,_ZNSt16_Sp_counted_baseILN9__gnu_cxx12_Lock_policyE2EE10_M_destroyEv
FN:148,_ZNSt16_Sp_counted_baseILN9__gnu_cxx12_Lock_policyE2EE10_M_releaseEv
FNDA:0,_ZNSt16_Sp_counted_baseILN9__gnu_cxx12_Lock_policyE2EE10_M_releaseEv
FN:404,_ZNSt15_Sp_counted_ptrIDnLN9__gnu_cxx12_Lock_policyE2EE10_M_disposeEv
FNDA:0,_ZNSt15_Sp_counted_ptrIDnLN9__gnu_cxx12_Lock_policyE2EE10_M_disposeEv
FN:552,_ZNSt23_Sp_counted_ptr_inplaceI27LoadingUnloadingDirichletBCSaIS0_ELN9__gnu_cxx12_Lock_policyE2EED0Ev
FNDA:0,_ZNSt23_Sp_counted_ptr_inplaceI27LoadingUnloadingDirichletBCSaIS0_ELN9__gnu_cxx12_Lock_policyE2EED0Ev
FN:552,_ZNSt23_Sp_counted_ptr_inplaceI23ModeISurfingDirichletBCSaIS0_ELN9__gnu_cxx12_Lock_policyE2EED2Ev
FNDA:0,_ZNSt23_Sp_counted_ptr_inplaceI23ModeISurfingDirichletBCSaIS0_ELN9__gnu_cxx12_Lock_policyE2EED2Ev
FN:552,_ZNSt23_Sp_counted_ptr_inplaceI23ModeISurfingDirichletBCSaIS0_ELN9__gnu_cxx12_Lock_policyE2EED0Ev
FNDA:0,_ZNSt23_Sp_counted_ptr_inplaceI23ModeISurfingDirichletBCSaIS0_ELN9__gnu_cxx12_Lock_policyE2EED0Ev
FN:552,_ZNSt23_Sp_counted_ptr_inplaceI27LoadingUnloadingDirichletBCSaIS0_ELN9__gnu_cxx12_Lock_policyE2EED2Ev
FNDA:0,_ZNSt23_Sp_counted_ptr_inplaceI27LoadingUnloadingDirichletBCSaIS0_ELN9__gnu_cxx12_Lock_policyE2EED2Ev
FN:552,_ZNSt23_Sp_counted_ptr_inplaceINSt13__future_base13_State_baseV2ESaIS1_ELN9__gnu_cxx12_Lock_policyE2EED2Ev
FNDA:0,_ZNSt23_Sp_counted_ptr_inplaceINSt13__future_base13_State_baseV2ESaIS1_ELN9__gnu_cxx12_Lock_policyE2EED2Ev
FN:552,_ZNSt23_Sp_counted_ptr_inplaceINSt13__future_base13_State_baseV2ESaIS1_ELN9__gnu_cxx12_Lock_policyE2EED0Ev
FNDA:0,_ZNSt23_Sp_counted_ptr_inplaceINSt13__future_base13_State_baseV2ESaIS1_ELN9__gnu_cxx12_Lock_policyE2EED0Ev
FN:552,_ZNSt23_Sp_counted_ptr_inplaceISt5mutexSaIS0_ELN9__gnu_cxx12_Lock_policyE2EED2Ev
FNDA:0,_ZNSt23_Sp_counted_ptr_inplaceISt5mutexSaIS0_ELN9__gnu_cxx12_Lock_policyE2EED2Ev
FN:552,_ZNSt23_Sp_counted_ptr_inplaceISt5mutexSaIS0_ELN9__gnu_cxx12_Lock_policyE2EED0Ev
FNDA:0,_ZNSt23_Sp_counted_ptr_inplaceISt5mutexSaIS0_ELN9__gnu_cxx12_Lock_policyE2EED0Ev
FN:555,_ZNSt23_Sp_counted_ptr_inplaceI27LoadingUnloadingDirichletBCSaIS0_ELN9__gnu_cxx12_Lock_policyE2EE10_M_disposeEv
FNDA:0,_ZNSt23_Sp_counted_ptr_inplaceI27LoadingUnloadingDirichletBCSaIS0_ELN9__gnu_cxx12_Lock_policyE2EE10_M_disposeEv
FN:555,_ZNSt23_Sp_counted_ptr_inplaceI23ModeISurfingDirichletBCSaIS0_ELN9__gnu_cxx12_Lock_policyE2EE10_M_disposeEv
FNDA:0,_ZNSt23_Sp_counted_ptr_inplaceI23ModeISurfingDirichletBCSaIS0_ELN9__gnu_cxx12_Lock_policyE2EE10_M_disposeEv
FN:555,_ZNSt23_Sp_counted_ptr_inplaceINSt13__future_base13_State_baseV2ESaIS1_ELN9__gnu_cxx12_Lock_policyE2EE10_M_disposeEv
FNDA:0,_ZNSt23_Sp_counted_ptr_inplaceINSt13__future_base13_State_baseV2ESaIS1_ELN9__gnu_cxx12_Lock_policyE2EE10_M_disposeEv
FN:555,_ZNSt23_Sp_counted_ptr_inplaceISt5mutexSaIS0_ELN9__gnu_cxx12_Lock_policyE2EE10_M_disposeEv
FNDA:0,_ZNSt23_Sp_counted_ptr_inplaceISt5mutexSaIS0_ELN9__gnu_cxx12_Lock_policyE2EE10_M_disposeEv
FN:562,_ZNSt23_Sp_counted_ptr_inplaceI27LoadingUnloadingDirichletBCSaIS0_ELN9__gnu_cxx12_Lock_policyE2EE10_M_destroyEv
FNDA:0,_ZNSt23_Sp_counted_ptr_inplaceI27LoadingUnloadingDirichletBCSaIS0_ELN9__gnu_cxx12_Lock_policyE2EE10_M_destroyEv
FN:562,_ZNSt23_Sp_counted_ptr_inplaceISt5mutexSaIS0_ELN9__gnu_cxx12_Lock_policyE2EE10_M_destroyEv
FNDA:0,_ZNSt23_Sp_counted_ptr_inplaceISt5mutexSaIS0_ELN9__gnu_cxx12_Lock_policyE2EE10_M_destroyEv
FN:562,_ZNSt23_Sp_counted_ptr_inplaceI23ModeISurfingDirichletBCSaIS0_ELN9__gnu_cxx12_Lock_policyE2EE10_M_destroyEv
FNDA:0,_ZNSt23_Sp_counted_ptr_inplaceI23ModeISurfingDirichletBCSaIS0_ELN9__gnu_cxx12_Lock_policyE2EE10_M_destroyEv
FN:562,_ZNSt23_Sp_counted_ptr_inplaceINSt13__future_base13_State_baseV2ESaIS1_ELN9__gnu_cxx12_Lock_policyE2EE10_M_destroyEv
FNDA:0,_ZNSt23_Sp_counted_ptr_inplaceINSt13__future_base13_State_baseV2ESaIS1_ELN9__gnu_cxx12_Lock_policyE2EE10_M_destroyEv
FN:575,_ZNSt23_Sp_counted_ptr_inplaceI27LoadingUnloadingDirichletBCSaIS0_ELN9__gnu_cxx12_Lock_policyE2EE14_M_get_deleterERKSt9type_info
