TN:
SF:/home/runner/work/raccoon/raccoon/src/auxkernels/ConditionalBoundsAux.C
FN:6,_ZN20ConditionalBoundsAux11validParamsEv
FN:21,_ZN20ConditionalBoundsAuxC2ERK15InputParameters
FN:29,_ZN20ConditionalBoundsAux8getBoundEv
FNDA:100,_ZN20ConditionalBoundsAux11validParamsEv
FNDA:4424,_ZN20ConditionalBoundsAux8getBoundEv
FNDA:1,_ZN20ConditionalBoundsAuxC2ERK15InputParameters
FNF:3
FNH:3
DA:6,100
DA:8,100
DA:9,100
DA:13,200
DA:14,200
DA:16,200
DA:17,100
DA:18,100
DA:21,1
DA:23,1
DA:24,3
DA:26,1
DA:29,4424
DA:31,4424
DA:32,4424
DA:35,4336
LF:16
LH:16
end_of_record
TN:
SF:/home/runner/work/raccoon/raccoon/src/base/raccoonApp.C
FN:13,_ZN10raccoonApp11validParamsEv
FN:23,_ZN10raccoonAppC2E15InputParameters
FN:28,_ZN10raccoonAppD0Ev
FN:28,_ZN10raccoonAppD2Ev
FN:36,_ZN10raccoonApp11registerAllER7FactoryR13ActionFactoryR6Syntax
FN:46,_ZN10raccoonApp12registerAppsEv
FN:55,raccoonApp__registerAll
FN:60,raccoonApp__registerApps
FNDA:0,raccoonApp__registerAll
FNDA:0,raccoonApp__registerApps
FNDA:47,_ZN10raccoonApp11validParamsEv
FNDA:0,_ZN10raccoonApp12registerAppsEv
FNDA:0,_ZN10raccoonAppD0Ev
FNDA:47,_ZN10raccoonApp11registerAllER7FactoryR13ActionFactoryR6Syntax
FNDA:0,_ZN10raccoonAppD2Ev
FNDA:0,_ZN10raccoonAppC2E15InputParameters
FNF:8
FNH:2
DA:13,47
DA:15,47
DA:16,47
DA:19,47
DA:20,47
DA:23,0
DA:25,0
DA:26,0
DA:28,0
DA:36,47
DA:38,47
DA:39,141
DA:40,141
DA:42,47
DA:43,47
DA:46,0
DA:48,0
DA:49,0
DA:55,0
DA:57,0
DA:58,0
DA:60,0
DA:62,0
DA:63,0
LF:24
LH:11
end_of_record
TN:
SF:/home/runner/work/raccoon/raccoon/src/bcs/LoadingUnloadingDirichletBC.C
FN:10,_ZN27LoadingUnloadingDirichletBC11validParamsEv
FN:35,_ZN27LoadingUnloadingDirichletBCC2ERK15InputParameters
FN:48,_ZN27LoadingUnloadingDirichletBC13timestepSetupEv
FN:89,_ZN27LoadingUnloadingDirichletBC14computeQpValueEv
FNDA:0,_ZN27LoadingUnloadingDirichletBC14computeQpValueEv
FNDA:98,_ZN27LoadingUnloadingDirichletBC11validParamsEv
FNDA:0,_ZN27LoadingUnloadingDirichletBCC2ERK15InputParameters
FNDA:0,_ZN27LoadingUnloadingDirichletBC13timestepSetupEv
FNF:4
FNH:1
DA:10,98
DA:12,98
DA:13,98
DA:19,196
DA:23,196
DA:25,196
DA:26,196
DA:28,196
DA:32,98
DA:35,0
DA:38,0
DA:39,0
DA:40,0
DA:41,0
DA:42,0
DA:43,0
DA:45,0
DA:48,0
DA:50,0
DA:51,0
DA:52,0
DA:54,0
DA:55,0
DA:56,0
DA:59,0
DA:61,0
DA:62,0
DA:64,0
DA:65,0
DA:66,0
DA:67,0
DA:68,0
DA:69,0
DA:70,0
DA:75,0
DA:78,0
DA:79,0
DA:80,0
DA:82,0
DA:83,0
DA:85,0
DA:86,0
DA:89,0
DA:91,0
LF:44
LH:9
end_of_record
TN:
SF:/home/runner/work/raccoon/raccoon/src/bcs/ModeISurfingDirichletBC.C
FN:10,_ZN23ModeISurfingDirichletBC11validParamsEv
FN:30,_ZN23ModeISurfingDirichletBCC2ERK15InputParameters
FN:42,_ZN23ModeISurfingDirichletBC17computeQpResidualEv
FNDA:0,_ZN23ModeISurfingDirichletBCC2ERK15InputParameters
FNDA:0,_ZN23ModeISurfingDirichletBC17computeQpResidualEv
FNDA:98,_ZN23ModeISurfingDirichletBC11validParamsEv
FNF:3
FNH:1
DA:10,98
DA:12,98
DA:13,98
DA:18,98
DA:19,98
DA:20,98
DA:21,98
DA:23,196
DA:24,196
DA:25,196
DA:26,196
DA:27,98
DA:30,0
DA:32,0
DA:33,0
DA:34,0
DA:35,0
DA:36,0
DA:37,0
DA:39,0
DA:42,0
DA:44,0
DA:45,0
DA:46,0
DA:48,0
DA:49,0
DA:50,0
DA:51,0
DA:52,0
DA:53,0
DA:54,0
DA:55,0
DA:56,0
DA:58,0
DA:59,0
DA:60,0
DA:61,0
DA:62,0
DA:63,0
LF:39
LH:12
end_of_record
TN:
SF:/home/runner/work/raccoon/raccoon/src/ics/BrittleDamageIC.C
FN:10,_ZN15BrittleDamageIC11validParamsEv
FN:22,_ZN15BrittleDamageICC2ERK15InputParameters
FN:28,_ZN15BrittleDamageIC5valueERKN7libMesh5PointE
FNDA:0,_ZN15BrittleDamageICC2ERK15InputParameters
FNDA:0,_ZN15BrittleDamageIC5valueERKN7libMesh5PointE
FNDA:98,_ZN15BrittleDamageIC11validParamsEv
FNF:3
FNH:1
DA:10,98
DA:12,98
DA:13,98
DA:17,196
DA:18,196
DA:19,98
DA:22,0
DA:23,0
DA:25,0
DA:28,0
DA:30,0
DA:32,0
DA:33,0
DA:34,0
DA:36,0
DA:38,0
LF:16
LH:6
end_of_record
TN:
SF:/home/runner/work/raccoon/raccoon/src/ics/CohesiveDamageIC.C
FN:10,_ZN16CohesiveDamageIC11validParamsEv
FN:20,_ZN16CohesiveDamageICC2ERK15InputParameters
FN:23,_ZN16CohesiveDamageIC5valueERKN7libMesh5PointE
FNDA:0,_ZN16CohesiveDamageICC2ERK15InputParameters
FNDA:98,_ZN16CohesiveDamageIC11validParamsEv
FNDA:0,_ZN16CohesiveDamageIC5valueERKN7libMesh5PointE
FNF:3
FNH:1
DA:10,98
DA:12,98
DA:13,98
DA:17,98
DA:20,0
DA:23,0
DA:25,0
DA:27,0
DA:28,0
DA:29,0
DA:31,0
DA:33,0
LF:12
LH:4
end_of_record
TN:
SF:/home/runner/work/raccoon/raccoon/src/ics/DamageICBase.C
FN:8,_ZN12DamageICBase11validParamsEv
FN:22,_ZN12DamageICBaseC2ERK15InputParameters
FN:41,_ZN12DamageICBase4distERKN7libMesh5PointE
FNDA:0,_ZN12DamageICBaseC2ERK15InputParameters
FNDA:0,_ZN12DamageICBase4distERKN7libMesh5PointE
FNDA:196,_ZN12DamageICBase11validParamsEv
FNF:3
FNH:1
DA:8,196
DA:11,392
DA:12,392
DA:13,392
DA:14,392
DA:15,392
DA:16,392
DA:17,392
DA:18,392
DA:19,196
DA:22,0
DA:30,0
DA:31,0
DA:38,0
DA:41,0
DA:44,0
DA:49,0
DA:54,0
DA:55,0
DA:63,0
DA:64,0
DA:65,0
DA:68,0
DA:74,0
DA:79,0
DA:83,0
LF:26
LH:10
end_of_record
TN:
SF:/home/runner/work/raccoon/raccoon/src/interfaces/BaseNameInterface.C
FN:8,_ZN17BaseNameInterface11validParamsEv
FN:18,_ZN17BaseNameInterfaceC2ERK15InputParameters
FN:25,_ZNK17BaseNameInterface15prependBaseNameE20MaterialPropertyNameb
FN:33,_ZNK17BaseNameInterface15prependBaseNameERKSt6vectorI20MaterialPropertyNameSaIS1_EE
FNDA:271,_ZN17BaseNameInterfaceC2ERK15InputParameters
FNDA:968,_ZNK17BaseNameInterface15prependBaseNameE20MaterialPropertyNameb
FNDA:27,_ZNK17BaseNameInterface15prependBaseNameERKSt6vectorI20MaterialPropertyNameSaIS1_EE
FNDA:2828,_ZN17BaseNameInterface11validParamsEv
FNF:4
FNH:4
DA:8,2828
DA:10,2828
DA:11,5656
DA:15,2828
DA:18,271
DA:20,271
DA:22,271
DA:25,968
DA:27,968
DA:28,1068
DA:29,868
DA:33,27
DA:36,27
DA:37,0
DA:38,27
LF:15
LH:14
end_of_record
TN:
SF:/home/runner/work/raccoon/raccoon/src/kernels/ADCoefMatDiffusion.C
FN:11,_ZN18ADCoefMatDiffusion11validParamsEv
FN:23,_ZN18ADCoefMatDiffusionC2ERK15InputParameters
FN:36,_ZN18ADCoefMatDiffusion17computeQpResidualEv
FNDA:98,_ZN18ADCoefMatDiffusion11validParamsEv
FNDA:0,_ZN18ADCoefMatDiffusion17computeQpResidualEv
FNDA:0,_ZN18ADCoefMatDiffusionC2ERK15InputParameters
FNF:3
FNH:1
DA:11,98
DA:13,98
DA:14,98
DA:17,196
DA:18,196
DA:20,98
DA:23,0
DA:25,0
DA:26,0
DA:27,0
DA:28,0
DA:30,0
DA:31,0
DA:32,0
DA:33,0
DA:36,0
DA:39,0
DA:40,0
DA:42,0
DA:43,0
DA:44,0
DA:46,0
LF:22
LH:6
end_of_record
TN:
SF:/home/runner/work/raccoon/raccoon/src/kernels/ADCoefMatReaction.C
FN:10,_ZN17ADCoefMatReaction11validParamsEv
FN:22,_ZN17ADCoefMatReactionC2ERK15InputParameters
FN:34,_ZN17ADCoefMatReaction20precomputeQpResidualEv
FNDA:102,_ZN17ADCoefMatReaction11validParamsEv
FNDA:400000,_ZN17ADCoefMatReaction20precomputeQpResidualEv
FNDA:2,_ZN17ADCoefMatReactionC2ERK15InputParameters
FNF:3
FNH:3
DA:10,102
DA:12,102
DA:13,102
DA:16,204
DA:17,204
DA:19,102
DA:22,2
DA:24,2
DA:25,2
DA:26,6
DA:28,2
DA:29,4
DA:30,2
DA:31,2
DA:34,400000
DA:37,800000
DA:38,400000
DA:39,400000
LF:18
LH:18
end_of_record
TN:
SF:/home/runner/work/raccoon/raccoon/src/kernels/ADCoefMatSource.C
FN:10,_ZN15ADCoefMatSource11validParamsEv
FN:21,_ZN15ADCoefMatSourceC2ERK15InputParameters
FN:33,_ZN15ADCoefMatSource20precomputeQpResidualEv
FNDA:1,_ZN15ADCoefMatSourceC2ERK15InputParameters
FNDA:100,_ZN15ADCoefMatSource11validParamsEv
FNDA:736,_ZN15ADCoefMatSource20precomputeQpResidualEv
FNF:3
FNH:3
DA:10,100
DA:12,100
DA:13,100
DA:15,200
DA:16,200
DA:18,100
DA:21,1
DA:23,1
DA:24,1
DA:25,3
DA:27,1
DA:28,2
DA:29,1
DA:30,1
DA:33,736
DA:36,1472
DA:37,736
DA:39,736
LF:18
LH:18
end_of_record
TN:
SF:/home/runner/work/raccoon/raccoon/src/kernels/ADPFFDiffusion.C
FN:11,_ZN14ADPFFDiffusion11validParamsEv
FN:27,_ZN14ADPFFDiffusionC2ERK15InputParameters
FN:38,_ZN14ADPFFDiffusion17computeQpResidualEv
FNDA:18,_ZN14ADPFFDiffusionC2ERK15InputParameters
FNDA:2957580,_ZN14ADPFFDiffusion17computeQpResidualEv
FNDA:134,_ZN14ADPFFDiffusion11validParamsEv
FNF:3
FNH:3
DA:11,134
DA:13,134
DA:14,134
DA:15,134
DA:18,268
DA:20,268
DA:22,268
DA:24,134
DA:27,18
DA:30,54
DA:31,54
DA:32,36
DA:33,90
DA:35,18
DA:38,2957580
DA:40,2957580
DA:42,2957580
DA:43,0
DA:45,2957580
LF:19
LH:18
end_of_record
TN:
SF:/home/runner/work/raccoon/raccoon/src/kernels/ADPFFPressure.C
FN:10,_ZN13ADPFFPressure11validParamsEv
FN:28,_ZN13ADPFFPressureC2ERK15InputParameters
FN:47,_ZN13ADPFFPressure20precomputeQpResidualEv
FNDA:2,_ZN13ADPFFPressureC2ERK15InputParameters
FNDA:102,_ZN13ADPFFPressure11validParamsEv
FNDA:80800,_ZN13ADPFFPressure20precomputeQpResidualEv
FNF:3
FNH:3
DA:10,102
DA:12,102
DA:13,102
DA:14,102
DA:18,204
DA:19,204
DA:22,204
DA:25,102
DA:28,2
DA:32,4
DA:33,2
DA:35,6
DA:36,8
DA:39,6
DA:40,4
DA:42,4
DA:43,2
DA:44,2
DA:47,80800
DA:49,80800
DA:50,80800
LF:21
LH:21
end_of_record
TN:
SF:/home/runner/work/raccoon/raccoon/src/kernels/ADPFFSource.C
FN:10,_ZN11ADPFFSource11validParamsEv
FN:21,_ZN11ADPFFSourceC2ERK15InputParameters
FN:30,_ZN11ADPFFSource20precomputeQpResidualEv
FNDA:18,_ZN11ADPFFSourceC2ERK15InputParameters
FNDA:134,_ZN11ADPFFSource11validParamsEv
FNDA:737748,_ZN11ADPFFSource20precomputeQpResidualEv
FNF:3
FNH:3
DA:10,134
DA:12,134
DA:13,134
DA:15,268
DA:18,134
DA:21,18
DA:25,36
DA:27,18
DA:30,737748
DA:32,737748
LF:10
LH:10
end_of_record
TN:
SF:/home/runner/work/raccoon/raccoon/src/kernels/ADPressurizedCrack.C
FN:10,_ZN18ADPressurizedCrack11validParamsEv
FN:29,_ZN18ADPressurizedCrackC2ERK15InputParameters
FN:42,_ZN18ADPressurizedCrack20precomputeQpResidualEv
FNDA:106,_ZN18ADPressurizedCrack11validParamsEv
FNDA:4,_ZN18ADPressurizedCrackC2ERK15InputParameters
FNDA:406400,_ZN18ADPressurizedCrack20precomputeQpResidualEv
FNF:3
FNH:3
DA:10,106
DA:12,106
DA:13,106
DA:14,106
DA:17,212
DA:18,212
DA:19,212
DA:23,212
DA:26,106
DA:29,4
DA:33,4
DA:34,8
DA:35,4
DA:36,12
DA:37,20
DA:39,4
DA:42,406400
DA:44,406400
LF:18
LH:18
end_of_record
TN:
SF:/home/runner/work/raccoon/raccoon/src/main.C
FN:16,main
FNDA:31,main
FNF:1
FNH:1
DA:16,31
DA:19,31
DA:22,31
DA:25,62
DA:28,31
LF:5
LH:5
end_of_record
TN:
SF:/home/runner/work/raccoon/raccoon/src/materials/ArrheniusLaw.C
FN:10,_ZN12ArrheniusLaw11validParamsEv
FN:27,_ZN12ArrheniusLawC2ERK15InputParameters
FN:42,_ZN12ArrheniusLaw19computeQpPropertiesEv
FNDA:3112,_ZN12ArrheniusLaw19computeQpPropertiesEv
FNDA:110,_ZN12ArrheniusLaw11validParamsEv
FNDA:9,_ZN12ArrheniusLawC2ERK15InputParameters
FNF:3
FNH:3
DA:10,110
DA:12,110
DA:13,110
DA:14,110
DA:18,220
DA:20,220
DA:21,220
DA:22,220
DA:24,110
DA:27,9
DA:31,18
DA:32,9
DA:34,45
DA:35,18
DA:36,9
DA:37,54
DA:39,9
DA:42,3112
DA:44,3112
DA:45,3112
DA:46,3112
LF:21
LH:21
end_of_record
TN:
SF:/home/runner/work/raccoon/raccoon/src/materials/ComputeEigenstrainFromFunctionInitialStress.C
FN:10,_ZN43ComputeEigenstrainFromFunctionInitialStress11validParamsEv
FN:32,_ZN43ComputeEigenstrainFromFunctionInitialStressC2ERK15InputParameters
FN:58,_ZN43ComputeEigenstrainFromFunctionInitialStress24initQpStatefulPropertiesEv
FN:64,_ZN43ComputeEigenstrainFromFunctionInitialStress19computeQpPropertiesEv
FNDA:400000,_ZN43ComputeEigenstrainFromFunctionInitialStress19computeQpPropertiesEv
FNDA:102,_ZN43ComputeEigenstrainFromFunctionInitialStress11validParamsEv
FNDA:0,_ZN43ComputeEigenstrainFromFunctionInitialStress24initQpStatefulPropertiesEv
FNDA:3,_ZN43ComputeEigenstrainFromFunctionInitialStressC2ERK15InputParameters
FNF:4
FNH:3
DA:10,102
DA:12,102
DA:13,102
DA:14,102
DA:20,204
DA:21,204
DA:22,204
DA:27,204
DA:29,102
DA:32,3
DA:33,3
DA:36,6
DA:37,6
DA:38,6
DA:39,15
DA:42,3
DA:43,3
DA:45,3
DA:46,0
DA:48,0
DA:49,0
DA:50,0
DA:52,3
DA:53,12
DA:54,9
DA:55,3
DA:58,0
DA:60,0
DA:61,0
DA:64,400000
DA:66,400000
DA:67,400000
DA:68,1600000
DA:69,1200000
DA:70,400000
DA:71,400000
DA:73,400000
DA:74,400000
DA:75,1200000
DA:76,400000
LF:40
LH:33
end_of_record
TN:
SF:/home/runner/work/raccoon/raccoon/src/materials/CrackSurfaceDensity.C
FN:10,_ZN19CrackSurfaceDensity11validParamsEv
FN:32,_ZN19CrackSurfaceDensityC2ERK15InputParameters
FN:44,_ZN19CrackSurfaceDensity19computeQpPropertiesEv
FNDA:98,_ZN19CrackSurfaceDensity11validParamsEv
FNDA:0,_ZN19CrackSurfaceDensity19computeQpPropertiesEv
FNDA:0,_ZN19CrackSurfaceDensityC2ERK15InputParameters
FNF:3
FNH:1
DA:10,98
DA:12,98
DA:13,98
DA:14,98
DA:19,196
DA:20,196
DA:22,196
DA:24,196
DA:26,196
DA:29,98
DA:32,0
DA:35,0
DA:36,0
DA:37,0
DA:38,0
DA:39,0
DA:41,0
DA:44,0
DA:46,0
DA:47,0
DA:48,0
LF:21
LH:10
end_of_record
TN:
SF:/home/runner/work/raccoon/raccoon/src/materials/NucleationMicroForce.C
FN:11,_ZN20NucleationMicroForce11validParamsEv
FN:45,_ZN20NucleationMicroForceC2ERK15InputParameters
FN:62,_ZN20NucleationMicroForce19computeQpPropertiesEv
FNDA:3,_ZN20NucleationMicroForceC2ERK15InputParameters
FNDA:41856,_ZN20NucleationMicroForce19computeQpPropertiesEv
FNDA:102,_ZN20NucleationMicroForce11validParamsEv
FNF:3
FNH:3
DA:11,102
DA:13,102
DA:14,102
DA:16,102
DA:20,204
DA:22,204
DA:24,204
DA:27,204
DA:28,204
DA:30,204
DA:32,204
DA:36,204
DA:37,204
DA:42,102
DA:45,3
DA:48,9
DA:49,9
DA:50,9
DA:51,9
DA:52,6
DA:53,6
DA:54,3
DA:55,3
DA:56,6
DA:57,33
DA:59,3
DA:62,41856
DA:65,41856
DA:69,41856
DA:70,41856
DA:71,83712
DA:74,41856
DA:77,41856
DA:78,41856
DA:79,41856
DA:85,41856
DA:86,41856
DA:87,83712
DA:88,41856
DA:89,83712
DA:90,41856
DA:91,41856
DA:92,41856
LF:43
LH:43
end_of_record
TN:
SF:/home/runner/work/raccoon/raccoon/src/materials/PressureDensity.C
FN:10,_ZN15PressureDensity11validParamsEv
FN:29,_ZN15PressureDensityC2ERK15InputParameters
FN:42,_ZN15PressureDensity19computeQpPropertiesEv
FNDA:272800,_ZN15PressureDensity19computeQpPropertiesEv
FNDA:6,_ZN15PressureDensityC2ERK15InputParameters
FNDA:106,_ZN15PressureDensity11validParamsEv
FNF:3
FNH:3
DA:10,106
DA:12,106
DA:13,106
DA:14,106
DA:17,212
DA:20,212
DA:21,212
DA:22,212
DA:26,106
DA:29,6
DA:33,12
DA:34,12
DA:35,12
DA:36,18
DA:37,36
DA:39,6
DA:42,272800
DA:44,272800
DA:45,272800
LF:19
LH:19
end_of_record
TN:
SF:/home/runner/work/raccoon/raccoon/src/materials/ThinFilmInterfaceEnergyDensity.C
FN:10,_ZN30ThinFilmInterfaceEnergyDensity11validParamsEv
FN:33,_ZN30ThinFilmInterfaceEnergyDensityC2ERK15InputParameters
FN:63,_ZN30ThinFilmInterfaceEnergyDensity19computeQpPropertiesEv
FNDA:400000,_ZN30ThinFilmInterfaceEnergyDensity19computeQpPropertiesEv
FNDA:102,_ZN30ThinFilmInterfaceEnergyDensity11validParamsEv
FNDA:3,_ZN30ThinFilmInterfaceEnergyDensityC2ERK15InputParameters
FNF:3
FNH:3
DA:10,102
DA:12,102
DA:13,102
DA:14,102
DA:18,204
DA:21,204
DA:25,204
DA:26,204
DA:28,204
DA:30,102
DA:33,3
DA:37,6
DA:38,3
DA:41,6
DA:45,3
DA:46,6
DA:47,9
DA:51,3
DA:52,36
DA:54,9
DA:55,6
DA:58,6
DA:59,3
DA:60,3
DA:63,400000
DA:65,400000
DA:66,800000
DA:67,400000
DA:68,400000
DA:69,400000
LF:30
LH:30
end_of_record
TN:
SF:/home/runner/work/raccoon/raccoon/src/materials/hardening_models/ArrheniusLawHardening.C
FN:10,_ZN21ArrheniusLawHardening11validParamsEv
FN:41,_ZN21ArrheniusLawHardeningC2ERK15InputParameters
FN:73,_ZN21ArrheniusLawHardening13plasticEnergyERKN11MetaPhysicL10DualNumberIdNS0_28SemiDynamicSparseNumberArrayIdmNS0_8NWrapperILm50EEEEELb1EEEj
FN:95,_ZN21ArrheniusLawHardening18plasticDissipationERKN11MetaPhysicL10DualNumberIdNS0_28SemiDynamicSparseNumberArrayIdmNS0_8NWrapperILm50EEEEELb1EEES8_j
FN:115,_ZN21ArrheniusLawHardening16thermalConjugateERKN11MetaPhysicL10DualNumberIdNS0_28SemiDynamicSparseNumberArrayIdmNS0_8NWrapperILm50EEEEELb1EEE
FNDA:20344,_ZN21ArrheniusLawHardening13plasticEnergyERKN11MetaPhysicL10DualNumberIdNS0_28SemiDynamicSparseNumberArrayIdmNS0_8NWrapperILm50EEEEELb1EEEj
FNDA:20344,_ZN21ArrheniusLawHardening18plasticDissipationERKN11MetaPhysicL10DualNumberIdNS0_28SemiDynamicSparseNumberArrayIdmNS0_8NWrapperILm50EEEEELb1EEES8_j
FNDA:110,_ZN21ArrheniusLawHardening11validParamsEv
FNDA:3112,_ZN21ArrheniusLawHardening16thermalConjugateERKN11MetaPhysicL10DualNumberIdNS0_28SemiDynamicSparseNumberArrayIdmNS0_8NWrapperILm50EEEEELb1EEE
FNDA:9,_ZN21ArrheniusLawHardeningC2ERK15InputParameters
FNF:5
FNH:5
DA:10,110
DA:12,110
DA:13,110
DA:15,220
DA:17,220
DA:19,220
DA:22,220
DA:23,220
DA:27,220
DA:28,330
DA:34,220
DA:38,110
DA:41,9
DA:44,18
DA:45,18
DA:46,9
DA:48,45
DA:49,9
DA:51,18
DA:55,9
DA:56,18
DA:57,27
DA:61,9
DA:62,27
DA:65,9
DA:68,144
DA:70,9
DA:73,20344
DA:75,20344
DA:77,3112
DA:78,3112
DA:79,3112
DA:80,3112
DA:81,3112
DA:84,17232
DA:85,13096
DA:87,4136
DA:88,4136
DA:90,0
DA:95,20344
DA:99,20344
DA:101,0
DA:104,20344
DA:105,16208
DA:107,4136
DA:108,4136
DA:110,0
DA:115,3112
DA:117,3112
DA:118,6224
LF:50
LH:47
end_of_record
TN:
SF:/home/runner/work/raccoon/raccoon/src/materials/hardening_models/LinearHardening.C
FN:11,_ZN15LinearHardening11validParamsEv
FN:30,_ZN15LinearHardeningC2ERK15InputParameters
FN:52,_ZN15LinearHardening13plasticEnergyERKN11MetaPhysicL10DualNumberIdNS0_28SemiDynamicSparseNumberArrayIdmNS0_8NWrapperILm50EEEEELb1EEEj
FNDA:102,_ZN15LinearHardening11validParamsEv
FNDA:2928,_ZN15LinearHardening13plasticEnergyERKN11MetaPhysicL10DualNumberIdNS0_28SemiDynamicSparseNumberArrayIdmNS0_8NWrapperILm50EEEEELb1EEEj
FNDA:3,_ZN15LinearHardeningC2ERK15InputParameters
FNF:3
FNH:3
DA:11,102
DA:13,102
DA:14,102
DA:16,204
DA:18,204
DA:20,204
DA:21,204
DA:25,204
DA:27,102
DA:30,3
DA:33,6
DA:34,6
DA:36,6
DA:40,3
DA:41,6
DA:42,9
DA:46,3
DA:47,36
DA:49,3
DA:52,2928
DA:54,2928
DA:56,1320
DA:57,1320
DA:58,1320
DA:59,1320
DA:62,1608
DA:63,1512
DA:65,96
DA:66,96
DA:68,0
LF:30
LH:29
end_of_record
TN:
SF:/home/runner/work/raccoon/raccoon/src/materials/hardening_models/PlasticHardeningModel.C
FN:8,_ZN21PlasticHardeningModel11validParamsEv
FN:19,_ZN21PlasticHardeningModelC2ERK15InputParameters
FNDA:30,_ZN21PlasticHardeningModelC2ERK15InputParameters
FNDA:334,_ZN21PlasticHardeningModel11validParamsEv
FNF:2
FNH:2
DA:8,334
DA:10,334
DA:11,334
DA:13,334
DA:14,334
DA:16,334
DA:19,30
DA:20,30
DA:22,30
LF:9
LH:9
end_of_record
TN:
SF:/home/runner/work/raccoon/raccoon/src/materials/hardening_models/PowerLawHardening.C
FN:10,_ZN17PowerLawHardening11validParamsEv
FN:31,_ZN17PowerLawHardeningC2ERK15InputParameters
FN:54,_ZN17PowerLawHardening13plasticEnergyERKN11MetaPhysicL10DualNumberIdNS0_28SemiDynamicSparseNumberArrayIdmNS0_8NWrapperILm50EEEEELb1EEEj
FNDA:499513,_ZN17PowerLawHardening13plasticEnergyERKN11MetaPhysicL10DualNumberIdNS0_28SemiDynamicSparseNumberArrayIdmNS0_8NWrapperILm50EEEEELb1EEEj
FNDA:122,_ZN17PowerLawHardening11validParamsEv
FNDA:18,_ZN17PowerLawHardeningC2ERK15InputParameters
FNF:3
FNH:3
DA:10,122
DA:12,122
DA:13,122
DA:15,244
DA:16,244
DA:18,244
DA:21,244
DA:22,244
DA:26,244
DA:28,122
DA:31,18
DA:34,36
DA:35,36
DA:36,36
DA:38,36
DA:42,18
DA:43,36
DA:44,54
DA:48,18
DA:49,234
DA:51,18
DA:54,499513
DA:56,499513
DA:58,248928
DA:59,497856
DA:60,248928
DA:61,248928
DA:62,248928
DA:65,250585
DA:66,249918
DA:68,667
DA:69,2001
DA:70,1334
DA:72,0
LF:34
LH:33
end_of_record
TN:
SF:/home/runner/work/raccoon/raccoon/src/materials/large_deformation_models/CNHIsotropicElasticity.C
FN:11,_ZN22CNHIsotropicElasticity11validParamsEv
FN:31,_ZN22CNHIsotropicElasticityC2ERK15InputParameters
FN:55,_ZN22CNHIsotropicElasticity19computeMandelStressERK18RankTwoTensorTemplIN11MetaPhysicL10DualNumberIdNS1_28SemiDynamicSparseNumberArrayIdmNS1_8NWrapperILm50EEEEELb1EEEEb
FN:71,_ZN22CNHIsotropicElasticity34computeMandelStressNoDecompositionERK18RankTwoTensorTemplIN11MetaPhysicL10DualNumberIdNS1_28SemiDynamicSparseNumberArrayIdmNS1_8NWrapperILm50EEEEELb1EEEEb
FN:108,_ZN22CNHIsotropicElasticity38computeMandelStressVolDevDecompositionERK18RankTwoTensorTemplIN11MetaPhysicL10DualNumberIdNS1_28SemiDynamicSparseNumberArrayIdmNS1_8NWrapperILm50EEEEELb1EEEEb
FNDA:3144,_ZN22CNHIsotropicElasticity19computeMandelStressERK18RankTwoTensorTemplIN11MetaPhysicL10DualNumberIdNS1_28SemiDynamicSparseNumberArrayIdmNS1_8NWrapperILm50EEEEELb1EEEEb
FNDA:0,_ZN22CNHIsotropicElasticity38computeMandelStressVolDevDecompositionERK18RankTwoTensorTemplIN11MetaPhysicL10DualNumberIdNS1_28SemiDynamicSparseNumberArrayIdmNS1_8NWrapperILm50EEEEELb1EEEEb
FNDA:3144,_ZN22CNHIsotropicElasticity34computeMandelStressNoDecompositionERK18RankTwoTensorTemplIN11MetaPhysicL10DualNumberIdNS1_28SemiDynamicSparseNumberArrayIdmNS1_8NWrapperILm50EEEEELb1EEEEb
FNDA:102,_ZN22CNHIsotropicElasticity11validParamsEv
FNDA:3,_ZN22CNHIsotropicElasticityC2ERK15InputParameters
FNF:5
FNH:4
DA:11,102
DA:13,102
DA:14,102
DA:16,204
DA:17,204
DA:19,204
DA:20,204
DA:24,204
DA:25,306
DA:26,306
DA:28,102
DA:31,3
DA:34,6
DA:35,6
DA:37,6
DA:41,3
DA:42,6
DA:43,9
DA:47,3
DA:48,9
DA:50,36
DA:52,3
DA:55,3144
DA:58,3144
DA:60,3144
DA:61,3144
DA:62,0
DA:63,0
DA:65,0
DA:67,3144
DA:71,3144
DA:75,3144
DA:76,3144
DA:78,1048
DA:79,1048
DA:82,2096
DA:84,3144
DA:86,3144
DA:89,9432
DA:90,3144
DA:94,3144
DA:96,2096
DA:97,4192
DA:98,4192
DA:99,2096
DA:100,2096
DA:101,2912
DA:104,3144
DA:108,0
DA:112,0
DA:113,0
DA:115,0
DA:116,0
DA:119,0
DA:121,0
DA:123,0
DA:126,0
DA:127,0
DA:129,0
DA:133,0
DA:135,0
DA:136,0
DA:137,0
DA:138,0
DA:139,0
DA:140,0
DA:143,0
LF:67
LH:45
end_of_record
TN:
SF:/home/runner/work/raccoon/raccoon/src/materials/large_deformation_models/ComputeDeformationGradient.C
FN:10,_ZN26ComputeDeformationGradient11validParamsEv
FN:31,_ZN26ComputeDeformationGradientC2ERK15InputParameters
FN:55,_ZN26ComputeDeformationGradient12initialSetupEv
FN:68,_ZN26ComputeDeformationGradient26displacementIntegrityCheckEv
FN:88,_ZN26ComputeDeformationGradient24initQpStatefulPropertiesEv
FN:95,_ZN26ComputeDeformationGradient27computeQpOutOfPlaneGradDispEv
FN:104,_ZN26ComputeDeformationGradient17computePropertiesEv
FNDA:27,_ZN26ComputeDeformationGradientC2ERK15InputParameters
FNDA:38422,_ZN26ComputeDeformationGradient17computePropertiesEv
FNDA:27,_ZN26ComputeDeformationGradient26displacementIntegrityCheckEv
FNDA:27,_ZN26ComputeDeformationGradient12initialSetupEv
FNDA:134,_ZN26ComputeDeformationGradient11validParamsEv
FNDA:0,_ZN26ComputeDeformationGradient27computeQpOutOfPlaneGradDispEv
FNDA:12304,_ZN26ComputeDeformationGradient24initQpStatefulPropertiesEv
FNF:7
FNH:6
DA:10,134
DA:12,134
DA:13,134
DA:14,134
DA:19,268
DA:22,268
DA:23,268
DA:24,268
DA:27,134
DA:28,134
DA:31,27
DA:34,27
DA:35,27
DA:38,27
DA:40,27
DA:41,81
DA:42,54
DA:45,270
DA:47,27
DA:48,0
DA:50,54
DA:51,0
DA:52,27
DA:55,27
DA:57,27
DA:60,36
DA:62,9
DA:63,9
DA:65,27
DA:68,27
DA:71,27
DA:72,0
DA:77,27
DA:78,0
DA:81,27
DA:82,0
DA:85,27
DA:88,12304
DA:90,12304
DA:91,12304
DA:92,12304
DA:95,0
DA:97,0
DA:98,0
DA:100,0
DA:104,38422
DA:106,38422
DA:108,195374
DA:110,156952
DA:111,156952
DA:112,0
DA:113,156952
DA:114,239768
DA:116,156952
DA:117,113752
DA:120,38422
DA:121,42524
DA:123,195374
DA:125,156952
DA:126,113752
DA:129,156952
DA:130,156952
DA:131,0
DA:132,156952
DA:134,38422
LF:65
LH:54
end_of_record
TN:
SF:/home/runner/work/raccoon/raccoon/src/materials/large_deformation_models/ComputeLargeDeformationStress.C
FN:13,_ZN29ComputeLargeDeformationStress11validParamsEv
FN:29,_ZN29ComputeLargeDeformationStressC2ERK15InputParameters
FN:44,_ZN29ComputeLargeDeformationStress12initialSetupEv
FN:67,_ZN29ComputeLargeDeformationStress24initQpStatefulPropertiesEv
FN:73,_ZN29ComputeLargeDeformationStress19computeQpPropertiesEv
FNDA:12304,_ZN29ComputeLargeDeformationStress24initQpStatefulPropertiesEv
FNDA:27,_ZN29ComputeLargeDeformationStress12initialSetupEv
FNDA:27,_ZN29ComputeLargeDeformationStressC2ERK15InputParameters
FNDA:134,_ZN29ComputeLargeDeformationStress11validParamsEv
FNDA:156952,_ZN29ComputeLargeDeformationStress19computeQpPropertiesEv
FNF:5
FNH:5
DA:13,134
DA:15,134
DA:16,134
DA:17,134
DA:20,268
DA:22,268
DA:23,268
DA:25,134
DA:26,134
DA:29,27
DA:32,54
DA:33,27
DA:34,27
DA:35,33
DA:37,108
DA:39,54
DA:40,0
DA:41,27
DA:44,27
DA:46,27
DA:47,27
DA:48,27
DA:49,0
DA:50,0
DA:53,27
DA:54,27
DA:55,51
DA:57,27
DA:58,24
DA:60,27
DA:61,30
DA:62,33
DA:64,27
DA:67,12304
DA:69,12304
DA:70,12304
DA:73,156952
DA:75,156952
DA:76,156952
DA:78,156952
DA:80,62224
DA:81,62224
DA:83,156952
LF:43
LH:40
end_of_record
TN:
SF:/home/runner/work/raccoon/raccoon/src/materials/large_deformation_models/HenckyIsotropicElasticity.C
FN:11,_ZN25HenckyIsotropicElasticity11validParamsEv
FN:32,_ZN25HenckyIsotropicElasticityC2ERK15InputParameters
FN:56,_ZN25HenckyIsotropicElasticity19computeMandelStressERK18RankTwoTensorTemplIN11MetaPhysicL10DualNumberIdNS1_28SemiDynamicSparseNumberArrayIdmNS1_8NWrapperILm50EEEEELb1EEEEb
FN:74,_ZN25HenckyIsotropicElasticity34computeMandelStressNoDecompositionERK18RankTwoTensorTemplIN11MetaPhysicL10DualNumberIdNS1_28SemiDynamicSparseNumberArrayIdmNS1_8NWrapperILm50EEEEELb1EEEEb
FN:104,_ZN25HenckyIsotropicElasticity38computeMandelStressVolDevDecompositionERK18RankTwoTensorTemplIN11MetaPhysicL10DualNumberIdNS1_28SemiDynamicSparseNumberArrayIdmNS1_8NWrapperILm50EEEEELb1EEEEb
FN:143,_ZN25HenckyIsotropicElasticity40computeMandelStressSpectralDecompositionERK18RankTwoTensorTemplIN11MetaPhysicL10DualNumberIdNS1_28SemiDynamicSparseNumberArrayIdmNS1_8NWrapperILm50EEEEELb1EEEEb
FNDA:130,_ZN25HenckyIsotropicElasticity11validParamsEv
FNDA:0,_ZN25HenckyIsotropicElasticity38computeMandelStressVolDevDecompositionERK18RankTwoTensorTemplIN11MetaPhysicL10DualNumberIdNS1_28SemiDynamicSparseNumberArrayIdmNS1_8NWrapperILm50EEEEELb1EEEEb
FNDA:24,_ZN25HenckyIsotropicElasticityC2ERK15InputParameters
FNDA:0,_ZN25HenckyIsotropicElasticity40computeMandelStressSpectralDecompositionERK18RankTwoTensorTemplIN11MetaPhysicL10DualNumberIdNS1_28SemiDynamicSparseNumberArrayIdmNS1_8NWrapperILm50EEEEELb1EEEEb
FNDA:403539,_ZN25HenckyIsotropicElasticity34computeMandelStressNoDecompositionERK18RankTwoTensorTemplIN11MetaPhysicL10DualNumberIdNS1_28SemiDynamicSparseNumberArrayIdmNS1_8NWrapperILm50EEEEELb1EEEEb
FNDA:403539,_ZN25HenckyIsotropicElasticity19computeMandelStressERK18RankTwoTensorTemplIN11MetaPhysicL10DualNumberIdNS1_28SemiDynamicSparseNumberArrayIdmNS1_8NWrapperILm50EEEEELb1EEEEb
FNF:6
FNH:4
DA:11,130
DA:13,130
DA:14,130
DA:17,260
DA:18,260
DA:20,260
DA:21,260
DA:25,260
DA:26,390
DA:27,390
DA:29,130
DA:32,24
DA:35,48
DA:36,48
DA:38,48
DA:42,24
DA:43,48
DA:44,72
DA:48,24
DA:49,72
DA:51,288
DA:53,24
DA:56,403539
DA:59,403539
DA:61,403539
DA:62,403539
DA:63,0
DA:64,0
DA:65,0
DA:66,0
DA:68,0
DA:70,403539
DA:74,403539
DA:81,403539
DA:82,537216
DA:84,403539
DA:87,1210620
DA:88,403539
DA:92,403539
DA:95,268608
DA:96,268608
DA:97,411824
DA:100,403539
DA:104,0
DA:111,0
DA:112,0
DA:114,0
DA:117,0
DA:118,0
DA:119,0
DA:120,0
DA:122,0
DA:123,0
DA:124,0
DA:125,0
DA:129,0
DA:132,0
DA:133,0
DA:134,0
DA:135,0
DA:136,0
DA:139,0
DA:143,0
DA:150,0
DA:151,0
DA:153,0
DA:154,0
DA:155,0
DA:156,0
DA:159,0
DA:162,0
DA:163,0
DA:164,0
DA:165,0
DA:168,0
DA:171,0
DA:172,0
DA:173,0
DA:174,0
DA:175,0
DA:176,0
DA:178,0
LF:82
LH:38
end_of_record
TN:
SF:/home/runner/work/raccoon/raccoon/src/materials/large_deformation_models/LargeDeformationElasticityModel.C
FN:9,_ZN31LargeDeformationElasticityModel11validParamsEv
FN:20,_ZN31LargeDeformationElasticityModelC2ERK15InputParameters
FN:29,_ZN31LargeDeformationElasticityModel5setQpEj
FN:37,_ZN31LargeDeformationElasticityModel18setPlasticityModelEP31LargeDeformationPlasticityModel
FN:45,_ZN31LargeDeformationElasticityModel24initQpStatefulPropertiesEv
FN:51,_ZN31LargeDeformationElasticityModel11updateStateERK18RankTwoTensorTemplIN11MetaPhysicL10DualNumberIdNS1_28SemiDynamicSparseNumberArrayIdmNS1_8NWrapperILm50EEEEELb1EEEERS8_
FN:62,_ZN31LargeDeformationElasticityModel19computeCauchyStressERK18RankTwoTensorTemplIN11MetaPhysicL10DualNumberIdNS1_28SemiDynamicSparseNumberArrayIdmNS1_8NWrapperILm50EEEEELb1EEEE
FNDA:12304,_ZN31LargeDeformationElasticityModel24initQpStatefulPropertiesEv
FNDA:24,_ZN31LargeDeformationElasticityModel18setPlasticityModelEP31LargeDeformationPlasticityModel
FNDA:156952,_ZN31LargeDeformationElasticityModel5setQpEj
FNDA:156952,_ZN31LargeDeformationElasticityModel19computeCauchyStressERK18RankTwoTensorTemplIN11MetaPhysicL10DualNumberIdNS1_28SemiDynamicSparseNumberArrayIdmNS1_8NWrapperILm50EEEEELb1EEEE
FNDA:156952,_ZN31LargeDeformationElasticityModel11updateStateERK18RankTwoTensorTemplIN11MetaPhysicL10DualNumberIdNS1_28SemiDynamicSparseNumberArrayIdmNS1_8NWrapperILm50EEEEELb1EEEERS8_
FNDA:27,_ZN31LargeDeformationElasticityModelC2ERK15InputParameters
FNDA:232,_ZN31LargeDeformationElasticityModel11validParamsEv
FNF:7
FNH:7
DA:9,232
DA:11,232
DA:12,232
DA:14,232
DA:15,232
DA:17,232
DA:20,27
DA:24,54
DA:26,27
DA:29,156952
DA:31,156952
DA:32,156952
DA:33,113752
DA:34,156952
DA:37,24
DA:40,24
DA:41,24
DA:42,24
DA:45,12304
DA:47,12304
DA:48,12304
DA:51,156952
DA:53,156952
DA:55,156952
DA:56,113752
DA:58,43200
DA:59,156952
DA:62,156952
DA:64,156952
LF:29
LH:29
end_of_record
TN:
SF:/home/runner/work/raccoon/raccoon/src/materials/large_deformation_models/LargeDeformationJ2Plasticity.C
FN:11,_ZN28LargeDeformationJ2Plasticity11validParamsEv
FN:19,_ZN28LargeDeformationJ2PlasticityC2ERK15InputParameters
FN:25,_ZN28LargeDeformationJ2Plasticity11updateStateER18RankTwoTensorTemplIN11MetaPhysicL10DualNumberIdNS1_28SemiDynamicSparseNumberArrayIdmNS1_8NWrapperILm50EEEEELb1EEEES9_
FN:60,_ZN28LargeDeformationJ2Plasticity24computeReferenceResidualERKN11MetaPhysicL10DualNumberIdNS0_28SemiDynamicSparseNumberArrayIdmNS0_8NWrapperILm50EEEEELb1EEES8_
FN:70,_ZN28LargeDeformationJ2Plasticity15computeResidualERKN11MetaPhysicL10DualNumberIdNS0_28SemiDynamicSparseNumberArrayIdmNS0_8NWrapperILm50EEEEELb1EEES8_
FN:81,_ZN28LargeDeformationJ2Plasticity17computeDerivativeERKN11MetaPhysicL10DualNumberIdNS0_28SemiDynamicSparseNumberArrayIdmNS0_8NWrapperILm50EEEEELb1EEES8_
FNDA:228,_ZN28LargeDeformationJ2Plasticity11validParamsEv
FNDA:24,_ZN28LargeDeformationJ2PlasticityC2ERK15InputParameters
FNDA:6824,_ZN28LargeDeformationJ2Plasticity24computeReferenceResidualERKN11MetaPhysicL10DualNumberIdNS0_28SemiDynamicSparseNumberArrayIdmNS0_8NWrapperILm50EEEEELb1EEES8_
FNDA:113752,_ZN28LargeDeformationJ2Plasticity11updateStateER18RankTwoTensorTemplIN11MetaPhysicL10DualNumberIdNS1_28SemiDynamicSparseNumberArrayIdmNS1_8NWrapperILm50EEEEELb1EEEES9_
FNDA:691,_ZN28LargeDeformationJ2Plasticity17computeDerivativeERKN11MetaPhysicL10DualNumberIdNS0_28SemiDynamicSparseNumberArrayIdmNS0_8NWrapperILm50EEEEELb1EEES8_
FNDA:113208,_ZN28LargeDeformationJ2Plasticity15computeResidualERKN11MetaPhysicL10DualNumberIdNS0_28SemiDynamicSparseNumberArrayIdmNS0_8NWrapperILm50EEEEELb1EEES8_
FNF:6
FNH:6
DA:11,228
DA:13,228
DA:14,228
DA:16,228
DA:19,24
DA:20,24
DA:22,24
DA:25,113752
DA:29,113752
DA:30,113752
DA:34,113752
DA:35,113752
DA:36,113752
DA:37,32496
DA:38,113752
DA:39,227504
DA:42,113752
DA:43,113752
DA:44,2189
DA:45,113752
DA:46,227504
DA:47,113752
DA:50,113752
DA:51,113752
DA:52,113752
DA:55,113752
DA:56,113752
DA:57,113752
DA:60,6824
DA:64,6824
DA:65,13648
DA:66,13648
DA:70,113208
DA:73,113208
DA:74,226416
DA:75,226416
DA:76,113208
DA:77,226416
DA:81,691
DA:84,1382
DA:85,1382
DA:86,691
DA:87,1382
LF:43
LH:43
end_of_record
TN:
SF:/home/runner/work/raccoon/raccoon/src/materials/large_deformation_models/LargeDeformationJ2PowerLawCreep.C
FN:11,_ZN31LargeDeformationJ2PowerLawCreep11validParamsEv
FN:24,_ZN31LargeDeformationJ2PowerLawCreepC2ERK15InputParameters
FN:32,_ZN31LargeDeformationJ2PowerLawCreep15computeResidualERKN11MetaPhysicL10DualNumberIdNS0_28SemiDynamicSparseNumberArrayIdmNS0_8NWrapperILm50EEEEELb1EEES8_
FN:47,_ZN31LargeDeformationJ2PowerLawCreep17computeDerivativeERKN11MetaPhysicL10DualNumberIdNS0_28SemiDynamicSparseNumberArrayIdmNS0_8NWrapperILm50EEEEELb1EEES8_
FNDA:6,_ZN31LargeDeformationJ2PowerLawCreepC2ERK15InputParameters
FNDA:7368,_ZN31LargeDeformationJ2PowerLawCreep15computeResidualERKN11MetaPhysicL10DualNumberIdNS0_28SemiDynamicSparseNumberArrayIdmNS0_8NWrapperILm50EEEEELb1EEES8_
FNDA:106,_ZN31LargeDeformationJ2PowerLawCreep11validParamsEv
FNDA:3944,_ZN31LargeDeformationJ2PowerLawCreep17computeDerivativeERKN11MetaPhysicL10DualNumberIdNS0_28SemiDynamicSparseNumberArrayIdmNS0_8NWrapperILm50EEEEELb1EEES8_
FNF:4
FNH:4
DA:11,106
DA:13,106
DA:14,106
DA:17,212
DA:19,212
DA:21,106
DA:24,6
DA:26,6
DA:27,12
DA:29,6
DA:32,7368
DA:37,14736
DA:38,7368
DA:40,7368
DA:41,14736
DA:42,7368
DA:43,7368
DA:47,3944
DA:52,7888
DA:53,3944
DA:55,3944
DA:56,3944
DA:58,3944
DA:59,7888
DA:61,3944
DA:62,7888
DA:64,3944
DA:65,3944
DA:66,7888
DA:67,7888
DA:68,3944
LF:31
LH:31
end_of_record
TN:
SF:/home/runner/work/raccoon/raccoon/src/materials/large_deformation_models/LargeDeformationNewtonianViscosity.C
FN:10,_ZN34LargeDeformationNewtonianViscosity11validParamsEv
FN:20,_ZN34LargeDeformationNewtonianViscosityC2ERK15InputParameters
FN:29,_ZN34LargeDeformationNewtonianViscosity19computeCauchyStressERK18RankTwoTensorTemplIN11MetaPhysicL10DualNumberIdNS1_28SemiDynamicSparseNumberArrayIdmNS1_8NWrapperILm50EEEEELb1EEEERKS0_IdE
FNDA:102,_ZN34LargeDeformationNewtonianViscosity11validParamsEv
FNDA:3,_ZN34LargeDeformationNewtonianViscosityC2ERK15InputParameters
FNDA:62224,_ZN34LargeDeformationNewtonianViscosity19computeCauchyStressERK18RankTwoTensorTemplIN11MetaPhysicL10DualNumberIdNS1_28SemiDynamicSparseNumberArrayIdmNS1_8NWrapperILm50EEEEELb1EEEERKS0_IdE
FNF:3
FNH:3
DA:10,102
DA:12,102
DA:13,102
DA:14,204
DA:15,204
DA:17,102
DA:20,3
DA:21,3
DA:23,6
DA:24,9
DA:26,3
DA:29,62224
DA:32,62224
DA:33,62224
DA:34,62224
DA:35,124448
LF:16
LH:16
end_of_record
TN:
SF:/home/runner/work/raccoon/raccoon/src/materials/large_deformation_models/LargeDeformationPlasticityModel.C
FN:9,_ZN31LargeDeformationPlasticityModel11validParamsEv
FN:23,_ZN31LargeDeformationPlasticityModelC2ERK15InputParameters
FN:38,_ZN31LargeDeformationPlasticityModel12initialSetupEv
FN:48,_ZN31LargeDeformationPlasticityModel5setQpEj
FN:55,_ZN31LargeDeformationPlasticityModel18setElasticityModelEP31LargeDeformationElasticityModel
FN:62,_ZN31LargeDeformationPlasticityModel24initQpStatefulPropertiesEv
FNDA:228,_ZN31LargeDeformationPlasticityModel11validParamsEv
FNDA:24,_ZN31LargeDeformationPlasticityModelC2ERK15InputParameters
FNDA:113752,_ZN31LargeDeformationPlasticityModel5setQpEj
FNDA:24,_ZN31LargeDeformationPlasticityModel12initialSetupEv
FNDA:24,_ZN31LargeDeformationPlasticityModel18setElasticityModelEP31LargeDeformationElasticityModel
FNDA:12304,_ZN31LargeDeformationPlasticityModel24initQpStatefulPropertiesEv
FNF:6
FNH:6
DA:9,228
DA:11,228
DA:12,228
DA:13,228
DA:15,456
DA:17,228
DA:18,228
DA:20,228
DA:23,24
DA:27,72
DA:29,72
DA:30,72
DA:31,72
DA:32,48
DA:33,192
DA:35,24
DA:38,24
DA:40,24
DA:41,24
DA:42,0
DA:43,0
DA:44,0
DA:45,24
DA:48,113752
DA:50,113752
DA:51,113752
DA:52,113752
DA:55,24
DA:58,24
DA:59,24
DA:62,12304
DA:64,12304
DA:65,12304
DA:66,12304
LF:34
LH:31
end_of_record
TN:
SF:/home/runner/work/raccoon/raccoon/src/materials/large_deformation_models/LargeDeformationViscoelasticityModel.C
FN:8,_ZN36LargeDeformationViscoelasticityModel11validParamsEv
FN:19,_ZN36LargeDeformationViscoelasticityModelC2ERK15InputParameters
FN:26,_ZN36LargeDeformationViscoelasticityModel5setQpEj
FNDA:102,_ZN36LargeDeformationViscoelasticityModel11validParamsEv
FNDA:62224,_ZN36LargeDeformationViscoelasticityModel5setQpEj
FNDA:3,_ZN36LargeDeformationViscoelasticityModelC2ERK15InputParameters
FNF:3
FNH:3
DA:8,102
DA:10,102
DA:11,102
DA:13,102
DA:14,102
DA:16,102
DA:19,3
DA:20,3
DA:21,3
DA:23,3
DA:26,62224
DA:28,62224
DA:29,62224
LF:13
LH:13
end_of_record
TN:
SF:/home/runner/work/raccoon/raccoon/src/materials/pff_constitutive_functions/CrackGeometricFunction.C
FN:10,_ZN22CrackGeometricFunction11validParamsEv
FN:43,_ZN22CrackGeometricFunctionC2ERK15InputParameters
FN:58,_ZN22CrackGeometricFunction28computeNormalizationConstantEv
FN:97,_ZN22CrackGeometricFunction22normalizationIntegrandERKN11MetaPhysicL10DualNumberIdNS0_28SemiDynamicSparseNumberArrayIdmNS0_8NWrapperILm50EEEEELb1EEE
FN:104,_ZN22CrackGeometricFunction19computeQpPropertiesEv
FNDA:2546710,_ZN22CrackGeometricFunction19computeQpPropertiesEv
FNDA:105,_ZN22CrackGeometricFunctionC2ERK15InputParameters
FNDA:105,_ZN22CrackGeometricFunction28computeNormalizationConstantEv
FNDA:238,_ZN22CrackGeometricFunction11validParamsEv
FNDA:8312860,_ZN22CrackGeometricFunction22normalizationIntegrandERKN11MetaPhysicL10DualNumberIdNS0_28SemiDynamicSparseNumberArrayIdmNS0_8NWrapperILm50EEEEELb1EEE
FNF:5
FNH:5
DA:10,238
DA:12,238
DA:13,238
DA:18,238
DA:19,476
DA:21,238
DA:22,238
DA:24,476
DA:29,476
DA:34,476
DA:35,476
DA:36,476
DA:37,476
DA:40,238
DA:43,105
DA:45,105
DA:46,105
DA:47,105
DA:48,105
DA:49,630
DA:52,105
DA:53,105
DA:54,105
DA:55,105
DA:58,105
DA:63,105
DA:66,1662680
DA:68,1662570
DA:71,1662570
DA:72,1662570
DA:73,1662570
DA:75,3325150
DA:77,4987720
DA:78,1662570
DA:80,1662570
DA:86,831234
DA:89,1662570
DA:90,0
DA:93,105
DA:97,8312860
DA:99,8312860
DA:100,8312860
DA:104,2546710
DA:106,2546710
DA:107,2546710
DA:109,2546710
DA:110,2546710
LF:47
LH:46
end_of_record
TN:
SF:/home/runner/work/raccoon/raccoon/src/materials/pff_constitutive_functions/CustomParsedFunctionBase.C
FN:8,_ZN24CustomParsedFunctionBase11validParamsEv
FN:24,_ZN24CustomParsedFunctionBaseC2ERK15InputParameters
FNDA:222,_ZN24CustomParsedFunctionBaseC2ERK15InputParameters
FNDA:688,_ZN24CustomParsedFunctionBase11validParamsEv
FNF:2
FNH:2
DA:8,688
DA:10,688
DA:11,1376
DA:12,688
DA:13,688
DA:15,688
DA:16,688
DA:17,688
DA:19,688
DA:21,688
DA:24,222
DA:29,888
DA:32,222
DA:36,222
DA:37,0
DA:38,222
LF:16
LH:15
end_of_record
TN:
SF:/home/runner/work/raccoon/raccoon/src/materials/pff_constitutive_functions/DegradationFunctionBase.C
FN:8,_ZN23DegradationFunctionBase11validParamsEv
FN:20,_ZN23DegradationFunctionBaseC2ERK15InputParameters
FNDA:450,_ZN23DegradationFunctionBase11validParamsEv
FNDA:117,_ZN23DegradationFunctionBaseC2ERK15InputParameters
FNF:2
FNH:2
DA:8,450
DA:10,450
DA:12,450
DA:13,900
DA:15,450
DA:16,450
DA:17,450
DA:20,117
DA:21,117
DA:23,117
LF:10
LH:10
end_of_record
TN:
SF:/home/runner/work/raccoon/raccoon/src/materials/pff_constitutive_functions/NoDegradation.C
FN:10,_ZN13NoDegradation11validParamsEv
FN:20,_ZN13NoDegradationC2ERK15InputParameters
FNDA:114,_ZN13NoDegradation11validParamsEv
FNDA:12,_ZN13NoDegradationC2ERK15InputParameters
FNF:2
FNH:2
DA:10,114
DA:12,114
DA:13,114
DA:15,114
DA:17,114
DA:20,12
DA:21,12
DA:23,12
LF:8
LH:8
end_of_record
TN:
SF:/home/runner/work/raccoon/raccoon/src/materials/pff_constitutive_functions/PowerDegradationFunction.C
FN:10,_ZN24PowerDegradationFunction11validParamsEv
FN:23,_ZN24PowerDegradationFunctionC2ERK15InputParameters
FNDA:130,_ZN24PowerDegradationFunction11validParamsEv
FNDA:24,_ZN24PowerDegradationFunctionC2ERK15InputParameters
FNF:2
FNH:2
DA:10,130
DA:12,130
DA:13,130
DA:16,130
DA:18,130
DA:19,260
DA:20,130
DA:23,24
DA:24,24
DA:26,24
LF:10
LH:10
end_of_record
TN:
SF:/home/runner/work/raccoon/raccoon/src/materials/pff_constitutive_functions/RationalDegradationFunction.C
FN:10,_ZN27RationalDegradationFunction11validParamsEv
FN:31,_ZN27RationalDegradationFunctionC2ERK15InputParameters
FNDA:81,_ZN27RationalDegradationFunctionC2ERK15InputParameters
FNDA:206,_ZN27RationalDegradationFunction11validParamsEv
FNF:2
FNH:2
DA:10,206
DA:12,206
DA:13,206
DA:20,206
DA:23,412
DA:24,206
DA:26,206
DA:27,412
DA:28,206
DA:31,81
DA:32,81
DA:34,81
LF:12
LH:12
end_of_record
TN:
SF:/home/runner/work/raccoon/raccoon/src/materials/small_deformation_models/ComputeSmallDeformationStress.C
FN:12,_ZN29ComputeSmallDeformationStress11validParamsEv
FN:27,_ZN29ComputeSmallDeformationStressC2ERK15InputParameters
FN:38,_ZN29ComputeSmallDeformationStress12initialSetupEv
FN:56,_ZN29ComputeSmallDeformationStress24initQpStatefulPropertiesEv
FN:62,_ZN29ComputeSmallDeformationStress19computeQpPropertiesEv
FNDA:150,_ZN29ComputeSmallDeformationStress11validParamsEv
FNDA:1985160,_ZN29ComputeSmallDeformationStress19computeQpPropertiesEv
FNDA:39,_ZN29ComputeSmallDeformationStress12initialSetupEv
FNDA:11508,_ZN29ComputeSmallDeformationStress24initQpStatefulPropertiesEv
FNDA:39,_ZN29ComputeSmallDeformationStressC2ERK15InputParameters
FNF:5
FNH:5
DA:12,150
DA:14,150
DA:15,150
DA:16,150
DA:19,300
DA:21,300
DA:23,150
DA:24,150
DA:27,39
DA:30,78
DA:31,117
DA:33,78
DA:34,0
DA:35,39
DA:38,39
DA:40,39
DA:41,39
DA:42,39
DA:43,0
DA:44,0
DA:47,39
DA:48,39
DA:49,45
DA:51,39
DA:52,6
DA:53,39
DA:56,11508
DA:58,11508
DA:59,11508
DA:62,1985160
DA:64,1985160
DA:65,1985160
DA:66,1985160
LF:33
LH:30
end_of_record
TN:
SF:/home/runner/work/raccoon/raccoon/src/materials/small_deformation_models/SmallDeformationElasticityModel.C
FN:9,_ZN31SmallDeformationElasticityModel11validParamsEv
FN:20,_ZN31SmallDeformationElasticityModelC2ERK15InputParameters
FN:29,_ZN31SmallDeformationElasticityModel5setQpEj
FN:37,_ZN31SmallDeformationElasticityModel18setPlasticityModelEP31SmallDeformationPlasticityModel
FN:45,_ZN31SmallDeformationElasticityModel24initQpStatefulPropertiesEv
FN:51,_ZN31SmallDeformationElasticityModel11updateStateERK18RankTwoTensorTemplIN11MetaPhysicL10DualNumberIdNS1_28SemiDynamicSparseNumberArrayIdmNS1_8NWrapperILm50EEEEELb1EEEERS8_
FNDA:11508,_ZN31SmallDeformationElasticityModel24initQpStatefulPropertiesEv
FNDA:1985160,_ZN31SmallDeformationElasticityModel5setQpEj
FNDA:1985160,_ZN31SmallDeformationElasticityModel11updateStateERK18RankTwoTensorTemplIN11MetaPhysicL10DualNumberIdNS1_28SemiDynamicSparseNumberArrayIdmNS1_8NWrapperILm50EEEEELb1EEEERS8_
FNDA:39,_ZN31SmallDeformationElasticityModelC2ERK15InputParameters
FNDA:150,_ZN31SmallDeformationElasticityModel11validParamsEv
FNDA:6,_ZN31SmallDeformationElasticityModel18setPlasticityModelEP31SmallDeformationPlasticityModel
FNF:6
FNH:6
DA:9,150
DA:11,150
DA:12,150
DA:14,150
DA:15,150
DA:17,150
DA:20,39
DA:24,39
DA:26,39
DA:29,1985160
DA:31,1985160
DA:32,1985160
DA:33,139608
DA:34,1985160
DA:37,6
DA:40,6
DA:41,6
DA:42,6
DA:45,11508
DA:47,11508
DA:48,11508
DA:51,1985160
DA:54,1985160
DA:56,1985160
DA:57,139608
DA:59,1845550
DA:60,1985160
LF:27
LH:27
end_of_record
TN:
SF:/home/runner/work/raccoon/raccoon/src/materials/small_deformation_models/SmallDeformationIsotropicElasticity.C
FN:11,_ZN35SmallDeformationIsotropicElasticity11validParamsEv
FN:31,_ZN35SmallDeformationIsotropicElasticityC2ERK15InputParameters
FN:56,_ZN35SmallDeformationIsotropicElasticity13computeStressERK18RankTwoTensorTemplIN11MetaPhysicL10DualNumberIdNS1_28SemiDynamicSparseNumberArrayIdmNS1_8NWrapperILm50EEEEELb1EEEE
FN:73,_ZN35SmallDeformationIsotropicElasticity28computeStressNoDecompositionERK18RankTwoTensorTemplIN11MetaPhysicL10DualNumberIdNS1_28SemiDynamicSparseNumberArrayIdmNS1_8NWrapperILm50EEEEELb1EEEE
FN:87,_ZN35SmallDeformationIsotropicElasticity34computeStressSpectralDecompositionERK18RankTwoTensorTemplIN11MetaPhysicL10DualNumberIdNS1_28SemiDynamicSparseNumberArrayIdmNS1_8NWrapperILm50EEEEELb1EEEE
FN:117,_ZN35SmallDeformationIsotropicElasticity32computeStressVolDevDecompositionERK18RankTwoTensorTemplIN11MetaPhysicL10DualNumberIdNS1_28SemiDynamicSparseNumberArrayIdmNS1_8NWrapperILm50EEEEELb1EEEE
FNDA:150,_ZN35SmallDeformationIsotropicElasticity11validParamsEv
FNDA:451864,_ZN35SmallDeformationIsotropicElasticity32computeStressVolDevDecompositionERK18RankTwoTensorTemplIN11MetaPhysicL10DualNumberIdNS1_28SemiDynamicSparseNumberArrayIdmNS1_8NWrapperILm50EEEEELb1EEEE
FNDA:521496,_ZN35SmallDeformationIsotropicElasticity34computeStressSpectralDecompositionERK18RankTwoTensorTemplIN11MetaPhysicL10DualNumberIdNS1_28SemiDynamicSparseNumberArrayIdmNS1_8NWrapperILm50EEEEELb1EEEE
FNDA:39,_ZN35SmallDeformationIsotropicElasticityC2ERK15InputParameters
FNDA:2265440,_ZN35SmallDeformationIsotropicElasticity13computeStressERK18RankTwoTensorTemplIN11MetaPhysicL10DualNumberIdNS1_28SemiDynamicSparseNumberArrayIdmNS1_8NWrapperILm50EEEEELb1EEEE
FNDA:1292080,_ZN35SmallDeformationIsotropicElasticity28computeStressNoDecompositionERK18RankTwoTensorTemplIN11MetaPhysicL10DualNumberIdNS1_28SemiDynamicSparseNumberArrayIdmNS1_8NWrapperILm50EEEEELb1EEEE
FNF:6
FNH:6
DA:11,150
DA:13,150
DA:14,150
DA:16,300
DA:17,300
DA:19,300
DA:20,300
DA:24,300
DA:25,450
DA:26,450
DA:28,150
DA:31,39
DA:32,39
DA:35,78
DA:36,78
DA:38,78
DA:42,39
DA:43,78
DA:44,117
DA:48,39
DA:49,117
DA:51,468
DA:53,39
DA:56,2265440
DA:58,2265440
DA:60,2265440
DA:61,1292080
DA:62,973360
DA:63,521496
DA:64,451864
DA:65,451864
DA:67,0
DA:69,2265440
DA:73,1292080
DA:75,1292080
DA:76,3876230
DA:77,1292080
DA:79,1292080
DA:80,1292080
DA:81,1292080
DA:83,1292080
DA:87,521496
DA:90,521496
DA:91,521496
DA:92,521496
DA:93,521496
DA:96,521496
DA:99,1564490
DA:100,1564490
DA:101,521496
DA:102,521496
DA:106,521496
DA:107,521496
DA:108,521496
DA:109,521496
DA:110,521496
DA:111,521496
DA:113,521496
DA:117,451864
DA:120,451864
DA:123,451864
DA:124,451864
DA:125,451864
DA:126,451864
DA:129,1355590
DA:130,451864
DA:131,451864
DA:132,451864
DA:136,451864
DA:137,451864
DA:138,451864
DA:139,451864
DA:140,903728
DA:142,451864
LF:74
LH:73
end_of_record
TN:
SF:/home/runner/work/raccoon/raccoon/src/materials/small_deformation_models/SmallDeformationJ2Plasticity.C
FN:10,_ZN28SmallDeformationJ2Plasticity11validParamsEv
FN:18,_ZN28SmallDeformationJ2PlasticityC2ERK15InputParameters
FN:24,_ZN28SmallDeformationJ2Plasticity11updateStateER18RankTwoTensorTemplIN11MetaPhysicL10DualNumberIdNS1_28SemiDynamicSparseNumberArrayIdmNS1_8NWrapperILm50EEEEELb1EEEES9_
FN:55,_ZN28SmallDeformationJ2Plasticity24computeReferenceResidualERKN11MetaPhysicL10DualNumberIdNS0_28SemiDynamicSparseNumberArrayIdmNS0_8NWrapperILm50EEEEELb1EEES8_
FN:64,_ZN28SmallDeformationJ2Plasticity15computeResidualERKN11MetaPhysicL10DualNumberIdNS0_28SemiDynamicSparseNumberArrayIdmNS0_8NWrapperILm50EEEEELb1EEES8_
FN:73,_ZN28SmallDeformationJ2Plasticity17computeDerivativeERKN11MetaPhysicL10DualNumberIdNS0_28SemiDynamicSparseNumberArrayIdmNS0_8NWrapperILm50EEEEELb1EEES8_
FNDA:264,_ZN28SmallDeformationJ2Plasticity17computeDerivativeERKN11MetaPhysicL10DualNumberIdNS0_28SemiDynamicSparseNumberArrayIdmNS0_8NWrapperILm50EEEEELb1EEES8_
FNDA:6,_ZN28SmallDeformationJ2PlasticityC2ERK15InputParameters
FNDA:139608,_ZN28SmallDeformationJ2Plasticity11updateStateER18RankTwoTensorTemplIN11MetaPhysicL10DualNumberIdNS1_28SemiDynamicSparseNumberArrayIdmNS1_8NWrapperILm50EEEEELb1EEEES9_
FNDA:140006,_ZN28SmallDeformationJ2Plasticity15computeResidualERKN11MetaPhysicL10DualNumberIdNS0_28SemiDynamicSparseNumberArrayIdmNS0_8NWrapperILm50EEEEELb1EEES8_
FNDA:398,_ZN28SmallDeformationJ2Plasticity24computeReferenceResidualERKN11MetaPhysicL10DualNumberIdNS0_28SemiDynamicSparseNumberArrayIdmNS0_8NWrapperILm50EEEEELb1EEES8_
FNDA:106,_ZN28SmallDeformationJ2Plasticity11validParamsEv
FNF:6
FNH:6
DA:10,106
DA:12,106
DA:13,106
DA:15,106
DA:18,6
DA:19,6
DA:21,6
DA:24,139608
DA:29,139608
DA:30,139608
DA:34,139608
DA:35,139608
DA:36,139608
DA:37,49268
DA:38,139608
DA:39,279216
DA:42,139608
DA:43,139608
DA:44,134
DA:45,139608
DA:46,139608
DA:49,279216
DA:50,139608
DA:51,139608
DA:52,139608
DA:55,398
DA:59,398
DA:60,1194
DA:64,140006
DA:67,140006
DA:68,280012
DA:69,280012
DA:73,264
DA:76,264
DA:77,528
LF:35
LH:35
end_of_record
TN:
SF:/home/runner/work/raccoon/raccoon/src/materials/small_deformation_models/SmallDeformationPlasticityModel.C
FN:9,_ZN31SmallDeformationPlasticityModel11validParamsEv
FN:23,_ZN31SmallDeformationPlasticityModelC2ERK15InputParameters
FN:37,_ZN31SmallDeformationPlasticityModel12initialSetupEv
FN:47,_ZN31SmallDeformationPlasticityModel5setQpEj
FN:54,_ZN31SmallDeformationPlasticityModel18setElasticityModelEP31SmallDeformationElasticityModel
FN:61,_ZN31SmallDeformationPlasticityModel24initQpStatefulPropertiesEv
FNDA:106,_ZN31SmallDeformationPlasticityModel11validParamsEv
FNDA:11508,_ZN31SmallDeformationPlasticityModel24initQpStatefulPropertiesEv
FNDA:6,_ZN31SmallDeformationPlasticityModel12initialSetupEv
FNDA:139608,_ZN31SmallDeformationPlasticityModel5setQpEj
FNDA:6,_ZN31SmallDeformationPlasticityModel18setElasticityModelEP31SmallDeformationElasticityModel
FNDA:6,_ZN31SmallDeformationPlasticityModelC2ERK15InputParameters
FNF:6
FNH:6
DA:9,106
DA:11,106
DA:12,106
DA:13,106
DA:15,212
DA:17,106
DA:18,106
DA:20,106
DA:23,6
DA:27,12
DA:29,12
DA:30,18
DA:31,18
DA:32,36
DA:34,6
DA:37,6
DA:39,6
DA:40,6
DA:41,0
DA:42,0
DA:43,0
DA:44,6
DA:47,139608
DA:49,139608
DA:50,139608
DA:51,139608
DA:54,6
DA:57,6
DA:58,6
DA:61,11508
DA:63,11508
DA:64,11508
DA:65,11508
LF:33
LH:30
end_of_record
TN:
SF:/home/runner/work/raccoon/raccoon/src/postprocessors/ExternalWork.C
FN:10,_ZN12ExternalWork11validParamsEv
FN:25,_ZN12ExternalWorkC2ERK15InputParameters
FN:42,_ZN12ExternalWork10initializeEv
FN:48,_ZN12ExternalWork7executeEv
FN:54,_ZN12ExternalWork14computeQpValueEv
FN:63,_ZN12ExternalWork8getValueEv
FN:70,_ZN12ExternalWork10threadJoinERK10UserObject
FNDA:0,_ZN12ExternalWork8getValueEv
FNDA:0,_ZN12ExternalWork14computeQpValueEv
FNDA:0,_ZN12ExternalWork10threadJoinERK10UserObject
FNDA:0,_ZN12ExternalWorkC2ERK15InputParameters
FNDA:0,_ZN12ExternalWork7executeEv
FNDA:0,_ZN12ExternalWork10initializeEv
FNDA:98,_ZN12ExternalWork11validParamsEv
FNF:7
FNH:1
DA:10,98
DA:12,98
DA:13,98
DA:17,196
DA:19,196
DA:22,98
DA:25,0
DA:28,0
DA:30,0
DA:32,0
DA:34,0
DA:35,0
DA:37,0
DA:38,0
DA:39,0
DA:42,0
DA:44,0
DA:45,0
DA:48,0
DA:50,0
DA:51,0
DA:54,0
DA:56,0
DA:57,0
DA:59,0
DA:63,0
DA:65,0
DA:66,0
DA:70,0
DA:73,0
DA:74,0
LF:31
LH:6
end_of_record
TN:
SF:/home/runner/work/raccoon/raccoon/src/postprocessors/KineticEnergy.C
FN:10,_ZN13KineticEnergy11validParamsEv
FN:25,_ZN13KineticEnergyC2ERK15InputParameters
FN:37,_ZN13KineticEnergy17computeQpIntegralEv
FNDA:98,_ZN13KineticEnergy11validParamsEv
FNDA:0,_ZN13KineticEnergyC2ERK15InputParameters
FNDA:0,_ZN13KineticEnergy17computeQpIntegralEv
FNF:3
FNH:1
DA:10,98
DA:12,98
DA:13,98
DA:14,98
DA:18,196
DA:20,196
DA:22,98
DA:25,0
DA:28,0
DA:29,0
DA:30,0
DA:32,0
DA:33,0
DA:34,0
DA:37,0
DA:39,0
DA:40,0
LF:17
LH:7
end_of_record
TN:
SF:/home/runner/work/raccoon/raccoon/src/postprocessors/LargeDeformationJIntegral.C
FN:10,_ZN25LargeDeformationJIntegral11validParamsEv
FN:23,_ZN25LargeDeformationJIntegralC2ERK15InputParameters
FN:35,_ZN25LargeDeformationJIntegral17computeQpIntegralEv
FNDA:0,_ZN25LargeDeformationJIntegralC2ERK15InputParameters
FNDA:98,_ZN25LargeDeformationJIntegral11validParamsEv
FNDA:0,_ZN25LargeDeformationJIntegral17computeQpIntegralEv
FNF:3
FNH:1
DA:10,98
DA:12,98
DA:13,98
DA:14,98
DA:17,196
DA:18,196
DA:20,98
DA:23,0
DA:26,0
DA:27,0
DA:29,0
DA:30,0
DA:32,0
DA:35,0
DA:37,0
DA:38,0
DA:39,0
DA:40,0
DA:41,0
LF:19
LH:7
end_of_record
TN:
SF:/home/runner/work/raccoon/raccoon/src/postprocessors/PhaseFieldJIntegral.C
FN:10,_ZN19PhaseFieldJIntegral11validParamsEv
FN:25,_ZN19PhaseFieldJIntegralC2ERK15InputParameters
FN:40,_ZN19PhaseFieldJIntegral17computeQpIntegralEv
FNDA:100,_ZN19PhaseFieldJIntegral11validParamsEv
FNDA:336,_ZN19PhaseFieldJIntegral17computeQpIntegralEv
FNDA:1,_ZN19PhaseFieldJIntegralC2ERK15InputParameters
FNF:3
FNH:3
DA:10,100
DA:12,100
DA:13,100
DA:14,100
DA:15,200
DA:16,200
DA:19,200
DA:22,100
DA:25,1
DA:28,2
DA:29,2
DA:30,1
DA:32,5
DA:35,2
DA:36,1
DA:37,1
DA:40,336
DA:42,336
DA:43,336
DA:44,336
DA:45,336
DA:46,336
LF:22
LH:22
end_of_record
TN:
SF:/home/runner/work/raccoon/raccoon/src/postprocessors/SolutionChangeNorm.C
FN:11,_ZN18SolutionChangeNorm11validParamsEv
FN:21,_ZN18SolutionChangeNormC2ERK15InputParameters
FN:29,_ZN18SolutionChangeNorm8getValueEv
FN:35,_ZN18SolutionChangeNorm17computeQpIntegralEv
FNDA:1,_ZN18SolutionChangeNormC2ERK15InputParameters
FNDA:100,_ZN18SolutionChangeNorm11validParamsEv
FNDA:2,_ZN18SolutionChangeNorm8getValueEv
FNDA:80000,_ZN18SolutionChangeNorm17computeQpIntegralEv
FNF:4
FNH:4
DA:11,100
DA:13,100
DA:14,100
DA:16,200
DA:18,100
DA:21,1
DA:24,2
DA:26,1
DA:29,2
DA:31,2
DA:35,80000
DA:38,160000
DA:39,160000
DA:40,80000
LF:14
LH:14
end_of_record
TN:
SF:/home/runner/work/raccoon/raccoon/src/utils/RaccoonUtils.C
FN:14,_ZN12RaccoonUtils8MacaulayEN11MetaPhysicL10DualNumberIdNS0_28SemiDynamicSparseNumberArrayIdmNS0_8NWrapperILm50EEEEELb1EEEb
FN:22,_ZN12RaccoonUtils8MacaulayERKSt6vectorIN11MetaPhysicL10DualNumberIdNS1_28SemiDynamicSparseNumberArrayIdmNS1_8NWrapperILm50EEEEELb1EEESaIS7_EEb
FN:31,_ZN12RaccoonUtils21spectralDecompositionERK18RankTwoTensorTemplIN11MetaPhysicL10DualNumberIdNS1_28SemiDynamicSparseNumberArrayIdmNS1_8NWrapperILm50EEEEELb1EEEE
FN:43,_ZN12RaccoonUtils3logERK18RankTwoTensorTemplIN11MetaPhysicL10DualNumberIdNS1_28SemiDynamicSparseNumberArrayIdmNS1_8NWrapperILm50EEEEELb1EEEE
FN:55,_ZN12RaccoonUtils3expERK18RankTwoTensorTemplIN11MetaPhysicL10DualNumberIdNS1_28SemiDynamicSparseNumberArrayIdmNS1_8NWrapperILm50EEEEELb1EEEE
FNDA:2537850,_ZN12RaccoonUtils8MacaulayEN11MetaPhysicL10DualNumberIdNS0_28SemiDynamicSparseNumberArrayIdmNS0_8NWrapperILm50EEEEELb1EEEb
FNDA:114800,_ZN12RaccoonUtils3expERK18RankTwoTensorTemplIN11MetaPhysicL10DualNumberIdNS1_28SemiDynamicSparseNumberArrayIdmNS1_8NWrapperILm50EEEEELb1EEEE
FNDA:521496,_ZN12RaccoonUtils21spectralDecompositionERK18RankTwoTensorTemplIN11MetaPhysicL10DualNumberIdNS1_28SemiDynamicSparseNumberArrayIdmNS1_8NWrapperILm50EEEEELb1EEEE
FNDA:521496,_ZN12RaccoonUtils8MacaulayERKSt6vectorIN11MetaPhysicL10DualNumberIdNS1_28SemiDynamicSparseNumberArrayIdmNS1_8NWrapperILm50EEEEELb1EEESaIS7_EEb
FNDA:268608,_ZN12RaccoonUtils3logERK18RankTwoTensorTemplIN11MetaPhysicL10DualNumberIdNS1_28SemiDynamicSparseNumberArrayIdmNS1_8NWrapperILm50EEEEELb1EEEE
FNF:5
FNH:5
DA:14,2537850
DA:16,2537850
DA:17,0
DA:18,2537850
DA:22,521496
DA:24,521496
DA:25,2085980
DA:26,3128980
DA:27,521496
DA:31,521496
DA:33,521496
DA:34,521496
DA:35,521496
DA:37,521496
DA:38,521496
DA:39,1042990
DA:43,268608
DA:46,268608
DA:47,268608
DA:48,1074430
DA:49,1611650
DA:50,268608
DA:51,537216
DA:55,114800
DA:58,114800
DA:59,114800
DA:60,459200
DA:61,688800
DA:62,114800
DA:63,229600
LF:30
LH:29
end_of_record
